 MapServer

 Timestamp is 688c315f (Fri Aug  1 00:15:43 2025)

 Preferred load address is 00400000

 Start         Length     Name                   Class
 0001:00000000 00016ea0H .text$di                CODE
 0001:00016ea0 00302f70H .text$mn                CODE
 0001:00319e10 00015070H .text$x                 CODE
 0001:0032ee80 000012adH .text$yd                CODE
 0002:00000000 00000104H .CRT$XCA                DATA
 0002:00000104 00000104H .CRT$XCAA               DATA
 0002:00000208 000001d0H .CRT$XCC                DATA
 0002:000003d8 00000124H .CRT$XCL                DATA
 0002:000004fc 0000012cH .CRT$XCU                DATA
 0002:00000628 00000104H .CRT$XCZ                DATA
 0002:0000072c 00000104H .CRT$XIA                DATA
 0002:00000830 00000104H .CRT$XIAA               DATA
 0002:00000934 00000104H .CRT$XIAC               DATA
 0002:00000a38 0000011cH .CRT$XIC                DATA
 0002:00000b54 00000104H .CRT$XIZ                DATA
 0002:00000c58 00000104H .CRT$XPA                DATA
 0002:00000d5c 0000010cH .CRT$XPX                DATA
 0002:00000e68 00000104H .CRT$XPXA               DATA
 0002:00000f6c 00000104H .CRT$XPZ                DATA
 0002:00001070 00000104H .CRT$XTA                DATA
 0002:00001174 0000010cH .CRT$XTZ                DATA
 0002:00001280 0004a7c0H .rdata                  DATA
 0002:0004ba40 00000180H .rdata$CastGuardVftablesA DATA
 0002:0004bbc0 0000014cH .rdata$CastGuardVftablesC DATA
 0002:0004bd0c 00002cccH .rdata$r                DATA
 0002:0004e9d8 000016d0H .rdata$sxdata           DATA
 0002:000500a8 000001a4H .rdata$zzzdbg           DATA
 0002:0005024c 00000104H .rtc$IAA                DATA
 0002:00050350 00000104H .rtc$IZZ                DATA
 0002:00050454 00000104H .rtc$TAA                DATA
 0002:00050558 00000108H .rtc$TZZ                DATA
 0002:00050660 0001852dH .xdata$x                DATA
 0002:00068b8d 00000000H .edata                  DATA
 0003:00000000 000045e0H .data                   DATA
 0003:000045e0 00000388H .data$r                 DATA
 0003:00004968 00001440H .data$rs                DATA
 0003:00005da8 00081d10H .bss                    DATA
 0004:00000000 0000046cH .idata$5                DATA
 0004:0000046c 00000064H .idata$2                DATA
 0004:000004d0 00000014H .idata$3                DATA
 0004:000004e4 0000046cH .idata$4                DATA
 0004:00000950 00000f3fH .idata$6                DATA
 0005:00000000 0000010eH .00cfg                  DATA
 0006:00000000 00000199H .fptable                DATA
 0007:00000000 00000270H .rsrc$01                DATA
 0007:00000270 000007d3H .rsrc$02                DATA

  Address         Publics by Value              Rva+Base       Lib:Object

 0000:00000000       ___AbsoluteZero            00000000     <absolute>
 0000:00000000       ___arm64x_extra_rfe_table  00000000     <absolute>
 0000:00000000       ___arm64x_extra_rfe_table_size 00000000     <absolute>
 0000:00000000       ___arm64x_native_entrypoint 00000000     <absolute>
 0000:00000000       ___arm64x_redirection_metadata 00000000     <absolute>
 0000:00000000       ___arm64x_redirection_metadata_count 00000000     <absolute>
 0000:00000000       ___dynamic_value_reloc_table 00000000     <absolute>
 0000:00000000       ___enclave_config          00000000     <absolute>
 0000:00000000       ___guard_check_icall_a64n_fptr 00000000     <absolute>
 0000:00000000       ___guard_eh_cont_count     00000000     <absolute>
 0000:00000000       ___guard_eh_cont_table     00000000     <absolute>
 0000:00000000       ___guard_fids_count        00000000     <absolute>
 0000:00000000       ___guard_fids_table        00000000     <absolute>
 0000:00000000       ___guard_iat_count         00000000     <absolute>
 0000:00000000       ___guard_iat_table         00000000     <absolute>
 0000:00000000       ___guard_longjmp_count     00000000     <absolute>
 0000:00000000       ___guard_longjmp_table     00000000     <absolute>
 0000:00000000       ___hybrid_auxiliary_delayload_iat 00000000     <absolute>
 0000:00000000       ___hybrid_auxiliary_delayload_iat_copy 00000000     <absolute>
 0000:00000000       ___hybrid_auxiliary_iat    00000000     <absolute>
 0000:00000000       ___hybrid_auxiliary_iat_copy 00000000     <absolute>
 0000:00000000       ___hybrid_code_map         00000000     <absolute>
 0000:00000000       ___hybrid_code_map_count   00000000     <absolute>
 0000:00000000       ___hybrid_image_info_bitfield 00000000     <absolute>
 0000:00000000       ___volatile_metadata       00000000     <absolute>
 0000:00000000       ___x64_code_ranges_to_entry_points 00000000     <absolute>
 0000:00000000       ___x64_code_ranges_to_entry_points_count 00000000     <absolute>
 0000:00000000       __except_list              00000000     <absolute>
 0000:00000100       ___guard_flags             00000100     <absolute>
 0000:0000048b       ___safe_se_handler_count   0000048b     <absolute>
 0000:00000000       ___ImageBase               00400000     <linker-defined>
 0001:00016ea0       ??$?0$$V@?$_Compressed_pair@V?$allocator@D@std@@V?$_String_val@U?$_Simple_types@D@std@@@2@$00@std@@QAE@U_Zero_then_variadic_args_t@1@@Z 00417ea0 f i cApplicationStartup.obj
 0001:00016ee0       ??$?0AAPAV_Facet_base@std@@@?$_Compressed_pair@U?$default_delete@V_Facet_base@std@@@std@@PAV_Facet_base@2@$00@std@@QAE@U_Zero_then_variadic_args_t@1@AAPAV_Facet_base@1@@Z 00417ee0 f i cApplicationStartup.obj
 0001:00016f20       ??$?0D@?$allocator@U_Container_proxy@std@@@std@@QAE@ABV?$allocator@D@1@@Z 00417f20 f i cApplicationStartup.obj
 0001:00016f40       ??$?0U?$default_delete@V_Facet_base@std@@@std@@$0A@@?$unique_ptr@V_Facet_base@std@@U?$default_delete@V_Facet_base@std@@@2@@std@@QAE@PAV_Facet_base@1@@Z 00417f40 f i cApplicationStartup.obj
 0001:00016f80       ??$?0V?$allocator@D@std@@$$V@?$_Compressed_pair@V?$allocator@D@std@@V?$_String_val@U?$_Simple_types@D@std@@@2@$00@std@@QAE@U_One_then_variadic_args_t@1@$$QAV?$allocator@D@1@@Z 00417f80 f i cApplicationStartup.obj
 0001:00016fc0       ??$?6U?$char_traits@D@std@@@std@@YAAAV?$basic_ostream@DU?$char_traits@D@std@@@0@AAV10@PBD@Z 00417fc0 f i cApplicationStartup.obj
 0001:00017370       ??$_Adl_verify_range@PADPBD@std@@YAXABQADABQBD@Z 00418370 f i cApplicationStartup.obj
 0001:000173e0       ??$_Adl_verify_range@PBDPBD@std@@YAXABQBD0@Z 004183e0 f i cApplicationStartup.obj
 0001:00017450       ??$_Alloc_proxy@V?$allocator@U_Container_proxy@std@@@std@@@_Container_base12@std@@QAEX$$QAV?$allocator@U_Container_proxy@std@@@1@@Z 00418450 f i cApplicationStartup.obj
 0001:000174c0       ??$_Allocate@$07U_Default_allocate_traits@std@@@std@@YAPAXI@Z 004184c0 f i cApplicationStartup.obj
 0001:00017510       ??$_Allocate_at_least_helper@V?$allocator@D@std@@@std@@YAPADAAV?$allocator@D@0@AAI@Z 00418510 f i cApplicationStartup.obj
 0001:00017540       ??$_Allocate_for_capacity@$0A@@?$basic_string@DU?$char_traits@D@std@@V?$allocator@D@2@@std@@CAPADAAV?$allocator@D@1@AAI@Z 00418540 f i cApplicationStartup.obj
 0001:000175a0       ??$_Allocate_manually_vector_aligned@U_Default_allocate_traits@std@@@std@@YAPAXI@Z 004185a0 f i cApplicationStartup.obj
 0001:00017670       ??$_Bit_cast@IT_Addr_storage@error_category@std@@$0A@@std@@YAIABT_Addr_storage@error_category@0@@Z 00418670 f i cApplicationStartup.obj
 0001:000176a0       ??$_Construct@$00PBD@?$basic_string@DU?$char_traits@D@std@@V?$allocator@D@2@@std@@AAEXQBDI@Z 004186a0 f i cApplicationStartup.obj
 0001:000178b0       ??$_Construct@$01PBD@?$basic_string@DU?$char_traits@D@std@@V?$allocator@D@2@@std@@AAEXQBDI@Z 004188b0 f i cApplicationStartup.obj
 0001:00017a70       ??$_Construct_in_place@PADAAPAD@std@@YAXAAPAD0@Z 00418a70 f i cApplicationStartup.obj
 0001:00017ac0       ??$_Construct_in_place@PADABQAD@std@@YAXAAPADABQAD@Z 00418ac0 f i cApplicationStartup.obj
 0001:00017b10       ??$_Construct_in_place@U_Container_proxy@std@@PAU_Container_base12@2@@std@@YAXAAU_Container_proxy@0@$$QAPAU_Container_base12@0@@Z 00418b10 f i cApplicationStartup.obj
 0001:00017b70       ??$_Convert_size@II@std@@YAII@Z 00418b70 f i cApplicationStartup.obj
 0001:00017b90       ??$_Deallocate@$07@std@@YAXPAXI@Z 00418b90 f i cApplicationStartup.obj
 0001:00017c20       ??$_Deallocate_plain@V?$allocator@U_Container_proxy@std@@@std@@@std@@YAXAAV?$allocator@U_Container_proxy@std@@@0@QAU_Container_proxy@0@@Z 00418c20 f i cApplicationStartup.obj
 0001:00017c50       ??$_Delete_plain_internal@V?$allocator@U_Container_proxy@std@@@std@@@std@@YAXAAV?$allocator@U_Container_proxy@std@@@0@QAU_Container_proxy@0@@Z 00418c50 f i cApplicationStartup.obj
 0001:00017c80       ??$_Destroy_in_place@PAD@std@@YAXAAPAD@Z 00418c80 f i cApplicationStartup.obj
 0001:00017ca0       ??$_Get_index@$0A@@id@locale@std@@QAEIXZ 00418ca0 f i cApplicationStartup.obj
 0001:00017d10       ??$_Get_size_of_n@$00@std@@YAII@Z 00418d10 f i cApplicationStartup.obj
 0001:00017d30       ??$_Get_size_of_n@$07@std@@YAII@Z 00418d30 f i cApplicationStartup.obj
 0001:00017d70       ??$_Immortalize_memcpy_image@V_Iostream_error_category2@std@@@std@@YAABV_Iostream_error_category2@0@XZ 00418d70 f i cApplicationStartup.obj
 0001:00017d90       ??$_Max_limit@H@std@@YAHXZ 00418d90 f i cApplicationStartup.obj
 0001:00017dc0       ??$_Reallocate_grow_by@V<lambda_ab246b20b9526e2ef7792587e4298a77>@@PBDI@?$basic_string@DU?$char_traits@D@std@@V?$allocator@D@2@@std@@AAEAAV01@IV<lambda_ab246b20b9526e2ef7792587e4298a77>@@PBDI@Z 00418dc0 f i cApplicationStartup.obj
 0001:00017f40       ??$_Unfancy@D@std@@YAPADPAD@Z 00418f40 f i cApplicationStartup.obj
 0001:00017f60       ??$_Unfancy@U_Container_proxy@std@@@std@@YAPAU_Container_proxy@0@PAU10@@Z 00418f60 f i cApplicationStartup.obj
 0001:00017f80       ??$addressof@PAD@std@@YAPAPADAAPAD@Z 00418f80 f i cApplicationStartup.obj
 0001:00017fa0       ??$addressof@U_Container_base12@std@@@std@@YAPAU_Container_base12@0@AAU10@@Z 00418fa0 f i cApplicationStartup.obj
 0001:00017fc0       ??$addressof@U_Container_proxy@std@@@std@@YAPAU_Container_proxy@0@AAU10@@Z 00418fc0 f i cApplicationStartup.obj
 0001:00017fe0       ??$addressof@V?$_String_val@U?$_Simple_types@D@std@@@std@@@std@@YAPAV?$_String_val@U?$_Simple_types@D@std@@@0@AAV10@@Z 00418fe0 f i cApplicationStartup.obj
 0001:00018000       ??$addressof@V?$basic_ostream@DU?$char_traits@D@std@@@std@@@std@@YAPAV?$basic_ostream@DU?$char_traits@D@std@@@0@AAV10@@Z 00419000 f i cApplicationStartup.obj
 0001:00018020       ??$endl@DU?$char_traits@D@std@@@std@@YAAAV?$basic_ostream@DU?$char_traits@D@std@@@0@AAV10@@Z 00419020 f i cApplicationStartup.obj
 0001:00018070       ??$exchange@PAU_Iterator_base12@std@@$$T@std@@YAPAU_Iterator_base12@0@AAPAU10@$$QA$$T@Z 00419070 f i cApplicationStartup.obj
 0001:000180a0       ??$exchange@PAV_Facet_base@std@@$$T@std@@YAPAV_Facet_base@0@AAPAV10@$$QA$$T@Z 004190a0 f i cApplicationStartup.obj
 0001:000180d0       ??$forward@AAPAD@std@@YAAAPADAAPAD@Z 004190d0 f i cApplicationStartup.obj
 0001:000180f0       ??$forward@AAPAV_Facet_base@std@@@std@@YAAAPAV_Facet_base@0@AAPAV10@@Z 004190f0 f i cApplicationStartup.obj
 0001:00018110       ??$forward@ABQAD@std@@YAABQADABQAD@Z 00419110 f i cApplicationStartup.obj
 0001:00018130       ??$forward@PAU_Container_base12@std@@@std@@YA$$QAPAU_Container_base12@0@AAPAU10@@Z 00419130 f i cApplicationStartup.obj
 0001:00018150       ??$forward@V?$allocator@D@std@@@std@@YA$$QAV?$allocator@D@0@AAV10@@Z 00419150 f i cApplicationStartup.obj
 0001:00018170       ??$max@I@std@@YAABIABI0@Z  00419170 f i cApplicationStartup.obj
 0001:000181b0       ??$min@I@std@@YAABIABI0@Z  004191b0 f i cApplicationStartup.obj
 0001:000181f0       ??$move@AAV?$allocator@D@std@@@std@@YA$$QAV?$allocator@D@0@AAV10@@Z 004191f0 f i cApplicationStartup.obj
 0001:00018210       ??$use_facet@V?$ctype@D@std@@@std@@YAABV?$ctype@D@0@ABVlocale@0@@Z 00419210 f i cApplicationStartup.obj
 0001:00018360       ??0?$_Container_proxy_ptr12@V?$allocator@U_Container_proxy@std@@@std@@@std@@QAE@AAV?$allocator@U_Container_proxy@std@@@1@AAU_Container_base12@1@@Z 00419360 f i cApplicationStartup.obj
 0001:000183f0       ??0?$_String_val@U?$_Simple_types@D@std@@@std@@QAE@XZ 004193f0 f i cApplicationStartup.obj
 0001:00018440       ??0?$_Yarn@D@std@@QAE@XZ   00419440 f i cApplicationStartup.obj
 0001:00018470       ??0?$_Yarn@_W@std@@QAE@XZ  00419470 f i cApplicationStartup.obj
 0001:000184b0       ??0?$allocator@D@std@@QAE@XZ 004194b0 f i cApplicationStartup.obj
 0001:000184d0       ??0?$basic_string@DU?$char_traits@D@std@@V?$allocator@D@2@@std@@QAE@$$QAV01@@Z 004194d0 f i cApplicationStartup.obj
 0001:00018590       ??0?$basic_string@DU?$char_traits@D@std@@V?$allocator@D@2@@std@@QAE@ABV01@@Z 00419590 f i cApplicationStartup.obj
 0001:00018640       ??0?$basic_string@DU?$char_traits@D@std@@V?$allocator@D@2@@std@@QAE@QBD@Z 00419640 f i cApplicationStartup.obj
 0001:000186e0       ??0?$basic_string@DU?$char_traits@D@std@@V?$allocator@D@2@@std@@QAE@QBDI@Z 004196e0 f i cApplicationStartup.obj
 0001:00018770       ??0?$ctype@D@std@@QAE@ABV_Locinfo@1@I@Z 00419770 f i cApplicationStartup.obj
 0001:00018800       ??0Handler@Event@@QAE@XZ   00419800 f i cApplicationStartup.obj
 0001:00018870       ??0_Basic_container_proxy_ptr12@std@@IAE@XZ 00419870 f i cApplicationStartup.obj
 0001:000188a0       ??0_Bxty@?$_String_val@U?$_Simple_types@D@std@@@std@@QAE@XZ 004198a0 f i cApplicationStartup.obj
 0001:000188d0       ??0_Container_base12@std@@QAE@XZ 004198d0 f i cApplicationStartup.obj
 0001:00018900       ??0_Container_proxy@std@@QAE@PAU_Container_base12@1@@Z 00419900 f i cApplicationStartup.obj
 0001:00018940       ??0_Facet_base@std@@QAE@XZ 00419940 f i cApplicationStartup.obj
 0001:00018970       ??0_Locinfo@std@@QAE@PBD@Z 00419970 f i cApplicationStartup.obj
 0001:00018a80       ??0_Sentry_base@?$basic_ostream@DU?$char_traits@D@std@@@std@@QAE@AAV12@@Z 00419a80 f i cApplicationStartup.obj
 0001:00018af0       ??0_System_error@std@@IAE@Verror_code@1@ABV?$basic_string@DU?$char_traits@D@std@@V?$allocator@D@2@@1@@Z 00419af0 f i cApplicationStartup.obj
 0001:00018be0       ??0_System_error@std@@QAE@ABV01@@Z 00419be0 f i cApplicationStartup.obj
 0001:00018c30       ??0bad_alloc@std@@AAE@QBD@Z 00419c30 f i cApplicationStartup.obj
 0001:00018c70       ??0bad_alloc@std@@QAE@ABV01@@Z 00419c70 f i cApplicationStartup.obj
 0001:00018cb0       ??0bad_array_new_length@std@@QAE@ABV01@@Z 00419cb0 f i cApplicationStartup.obj
 0001:00018cf0       ??0bad_array_new_length@std@@QAE@XZ 00419cf0 f i cApplicationStartup.obj
 0001:00018d30       ??0bad_cast@std@@QAE@ABV01@@Z 00419d30 f i cApplicationStartup.obj
 0001:00018d70       ??0bad_cast@std@@QAE@XZ    00419d70 f i cApplicationStartup.obj
 0001:00018db0       ??0cApplicationStartup@@QAE@XZ 00419db0 f   cApplicationStartup.obj
 0001:00018dd0       ??0ctype_base@std@@QAE@I@Z 00419dd0 f i cApplicationStartup.obj
 0001:00018e10       ??0error_code@std@@QAE@HABVerror_category@1@@Z 00419e10 f i cApplicationStartup.obj
 0001:00018e50       ??0error_condition@std@@QAE@HABVerror_category@1@@Z 00419e50 f i cApplicationStartup.obj
 0001:00018e90       ??0exception@std@@QAE@ABV01@@Z 00419e90 f i cApplicationStartup.obj
 0001:00018ef0       ??0exception@std@@QAE@QBD@Z 00419ef0 f i cApplicationStartup.obj
 0001:00018f50       ??0exception@std@@QAE@QBDH@Z 00419f50 f i cApplicationStartup.obj
 0001:00018fa0       ??0facet@locale@std@@IAE@I@Z 00419fa0 f i cApplicationStartup.obj
 0001:00018fe0       ??0failure@ios_base@std@@QAE@ABV012@@Z 00419fe0 f i cApplicationStartup.obj
 0001:00019020       ??0failure@ios_base@std@@QAE@PBDABVerror_code@2@@Z 0041a020 f i cApplicationStartup.obj
 0001:00019070       ??0locale@std@@QAE@ABV01@@Z 0041a070 f i cApplicationStartup.obj
 0001:000190c0       ??0runtime_error@std@@QAE@ABV01@@Z 0041a0c0 f i cApplicationStartup.obj
 0001:00019100       ??0runtime_error@std@@QAE@ABV?$basic_string@DU?$char_traits@D@std@@V?$allocator@D@2@@1@@Z 0041a100 f i cApplicationStartup.obj
 0001:00019140       ??0sentry@?$basic_ostream@DU?$char_traits@D@std@@@std@@QAE@AAV12@@Z 0041a140 f i cApplicationStartup.obj
 0001:00019250       ??0system_error@std@@QAE@ABV01@@Z 0041a250 f i cApplicationStartup.obj
 0001:00019290       ??0system_error@std@@QAE@Verror_code@1@PBD@Z 0041a290 f i cApplicationStartup.obj
 0001:00019350       ??1?$_Compressed_pair@V?$allocator@D@std@@V?$_String_val@U?$_Simple_types@D@std@@@2@$00@std@@QAE@XZ 0041a350 f i cApplicationStartup.obj
 0001:00019380       ??1?$_Container_proxy_ptr12@V?$allocator@U_Container_proxy@std@@@std@@@std@@QAE@XZ 0041a380 f i cApplicationStartup.obj
 0001:000193c0       ??1?$_String_val@U?$_Simple_types@D@std@@@std@@QAE@XZ 0041a3c0 f i cApplicationStartup.obj
 0001:000193f0       ??1?$_Yarn@D@std@@QAE@XZ   0041a3f0 f i cApplicationStartup.obj
 0001:00019420       ??1?$_Yarn@_W@std@@QAE@XZ  0041a420 f i cApplicationStartup.obj
 0001:00019450       ??1?$basic_string@DU?$char_traits@D@std@@V?$allocator@D@2@@std@@QAE@XZ 0041a450 f i cApplicationStartup.obj
 0001:000194d0       ??1?$ctype@D@std@@MAE@XZ   0041a4d0 f i cApplicationStartup.obj
 0001:00019510       ??1?$unique_ptr@V_Facet_base@std@@U?$default_delete@V_Facet_base@std@@@2@@std@@QAE@XZ 0041a510 f i cApplicationStartup.obj
 0001:00019550       ??1Handler@Event@@QAE@XZ   0041a550 f i cApplicationStartup.obj
 0001:00019570       ??1_Bxty@?$_String_val@U?$_Simple_types@D@std@@@std@@QAE@XZ 0041a570 f i cApplicationStartup.obj
 0001:00019590       ??1_Facet_base@std@@UAE@XZ 0041a590 f i cApplicationStartup.obj
 0001:000195c0       ??1_Iostream_error_category2@std@@UAE@XZ 0041a5c0 f i cApplicationStartup.obj
 0001:000195f0       ??1_Locinfo@std@@QAE@XZ    0041a5f0 f i cApplicationStartup.obj
 0001:000196b0       ??1_Sentry_base@?$basic_ostream@DU?$char_traits@D@std@@@std@@QAE@XZ 0041a6b0 f i cApplicationStartup.obj
 0001:00019740       ??1_System_error@std@@UAE@XZ 0041a740 f i cApplicationStartup.obj
 0001:00019770       ??1bad_alloc@std@@UAE@XZ   0041a770 f i cApplicationStartup.obj
 0001:000197a0       ??1bad_array_new_length@std@@UAE@XZ 0041a7a0 f i cApplicationStartup.obj
 0001:000197d0       ??1bad_cast@std@@UAE@XZ    0041a7d0 f i cApplicationStartup.obj
 0001:00019800       ??1cApplicationStartup@@QAE@XZ 0041a800 f   cApplicationStartup.obj
 0001:00019820       ??1ctype_base@std@@UAE@XZ  0041a820 f i cApplicationStartup.obj
 0001:00019850       ??1error_category@std@@UAE@XZ 0041a850 f i cApplicationStartup.obj
 0001:00019870       ??1exception@std@@UAE@XZ   0041a870 f i cApplicationStartup.obj
 0001:000198b0       ??1facet@locale@std@@MAE@XZ 0041a8b0 f i cApplicationStartup.obj
 0001:000198e0       ??1failure@ios_base@std@@UAE@XZ 0041a8e0 f i cApplicationStartup.obj
 0001:00019910       ??1locale@std@@QAE@XZ      0041a910 f i cApplicationStartup.obj
 0001:00019980       ??1runtime_error@std@@UAE@XZ 0041a980 f i cApplicationStartup.obj
 0001:000199b0       ??1sentry@?$basic_ostream@DU?$char_traits@D@std@@@std@@QAE@XZ 0041a9b0 f i cApplicationStartup.obj
 0001:00019a10       ??1system_error@std@@UAE@XZ 0041aa10 f i cApplicationStartup.obj
 0001:00019a40       ??2@YAPAXIPAX@Z            0041aa40 f i cApplicationStartup.obj
 0001:00019a60       ??2_Crt_new_delete@std@@SAPAXI@Z 0041aa60 f i cApplicationStartup.obj
 0001:00019aa0       ??2_Crt_new_delete@std@@SAPAXIABUnothrow_t@1@@Z 0041aaa0 f i cApplicationStartup.obj
 0001:00019af0       ??3_Crt_new_delete@std@@SAXPAX@Z 0041aaf0 f i cApplicationStartup.obj
 0001:00019b20       ??6?$basic_ostream@DU?$char_traits@D@std@@@std@@QAEAAV01@P6AAAV01@AAV01@@Z@Z 0041ab20 f i cApplicationStartup.obj
 0001:00019b50       ??8error_category@std@@QBE_NABV01@@Z 0041ab50 f i cApplicationStartup.obj
 0001:00019bb0       ??8std@@YA_NABVerror_condition@0@0@Z 0041abb0 f i cApplicationStartup.obj
 0001:00019c20       ??Bsentry@?$basic_ostream@DU?$char_traits@D@std@@@std@@QBE_NXZ 0041ac20 f i cApplicationStartup.obj
 0001:00019c40       ??R<lambda_ab246b20b9526e2ef7792587e4298a77>@@QBE@QADQBDI1I@Z 0041ac40 f i cApplicationStartup.obj
 0001:00019cb0       ??R?$default_delete@V_Facet_base@std@@@std@@QBEXPAV_Facet_base@1@@Z 0041acb0 f i cApplicationStartup.obj
 0001:00019d00       ??_E?$ctype@D@std@@MAEPAXI@Z 0041ad00 f i cApplicationStartup.obj
 0001:00019d00       ??_G?$ctype@D@std@@MAEPAXI@Z 0041ad00 f i cApplicationStartup.obj
 0001:00019d60       ??_E_Facet_base@std@@UAEPAXI@Z 0041ad60 f i cApplicationStartup.obj
 0001:00019d60       ??_G_Facet_base@std@@UAEPAXI@Z 0041ad60 f i cApplicationStartup.obj
 0001:00019db0       ??_E_Iostream_error_category2@std@@UAEPAXI@Z 0041adb0 f i cApplicationStartup.obj
 0001:00019db0       ??_G_Iostream_error_category2@std@@UAEPAXI@Z 0041adb0 f i cApplicationStartup.obj
 0001:00019e00       ??_E_System_error@std@@UAEPAXI@Z 0041ae00 f i cApplicationStartup.obj
 0001:00019e00       ??_G_System_error@std@@UAEPAXI@Z 0041ae00 f i cApplicationStartup.obj
 0001:00019e50       ??_Ebad_alloc@std@@UAEPAXI@Z 0041ae50 f i cApplicationStartup.obj
 0001:00019e50       ??_Gbad_alloc@std@@UAEPAXI@Z 0041ae50 f i cApplicationStartup.obj
 0001:00019ea0       ??_Ebad_array_new_length@std@@UAEPAXI@Z 0041aea0 f i cApplicationStartup.obj
 0001:00019ea0       ??_Gbad_array_new_length@std@@UAEPAXI@Z 0041aea0 f i cApplicationStartup.obj
 0001:00019ef0       ??_Ebad_cast@std@@UAEPAXI@Z 0041aef0 f i cApplicationStartup.obj
 0001:00019ef0       ??_Gbad_cast@std@@UAEPAXI@Z 0041aef0 f i cApplicationStartup.obj
 0001:00019f40       ??_Ectype_base@std@@UAEPAXI@Z 0041af40 f i cApplicationStartup.obj
 0001:00019f40       ??_Gctype_base@std@@UAEPAXI@Z 0041af40 f i cApplicationStartup.obj
 0001:00019fa0       ??_Eexception@std@@UAEPAXI@Z 0041afa0 f i cApplicationStartup.obj
 0001:00019fa0       ??_Gexception@std@@UAEPAXI@Z 0041afa0 f i cApplicationStartup.obj
 0001:00019ff0       ??_Efacet@locale@std@@MAEPAXI@Z 0041aff0 f i cApplicationStartup.obj
 0001:00019ff0       ??_Gfacet@locale@std@@MAEPAXI@Z 0041aff0 f i cApplicationStartup.obj
 0001:0001a050       ??_Efailure@ios_base@std@@UAEPAXI@Z 0041b050 f i cApplicationStartup.obj
 0001:0001a050       ??_Gfailure@ios_base@std@@UAEPAXI@Z 0041b050 f i cApplicationStartup.obj
 0001:0001a0a0       ??_Eruntime_error@std@@UAEPAXI@Z 0041b0a0 f i cApplicationStartup.obj
 0001:0001a0a0       ??_Gruntime_error@std@@UAEPAXI@Z 0041b0a0 f i cApplicationStartup.obj
 0001:0001a0f0       ??_Esystem_error@std@@UAEPAXI@Z 0041b0f0 f i cApplicationStartup.obj
 0001:0001a0f0       ??_Gsystem_error@std@@UAEPAXI@Z 0041b0f0 f i cApplicationStartup.obj
 0001:0001a140       ?BackgroundWindowProcess@@YGJPAUHWND__@@IIJ@Z 0041b140 f   cApplicationStartup.obj
 0001:0001a4c0       ?Borrado@@YAXXZ            0041b4c0 f   cApplicationStartup.obj
 0001:0001a540       ?CharacterLogList@@YAXPAD@Z 0041b540 f   cApplicationStartup.obj
 0001:0001a7d0       ?ChatLogs@@YAXPAD@Z        0041b7d0 f   cApplicationStartup.obj
 0001:0001aa60       ?ConfigList@@YAXPAD@Z      0041ba60 f   cApplicationStartup.obj
 0001:0001aa80       ?CreateBackgroundWindow@cApplicationStartup@@AAEPAUHWND__@@XZ 0041ba80 f   cApplicationStartup.obj
 0001:0001abd0       ?Deinitialize@@YAXXZ       0041bbd0 f   cApplicationStartup.obj
 0001:0001abf0       ?ErrorList@@YAXPAD@Z       0041bbf0 f   cApplicationStartup.obj
 0001:0001ae80       ?Initialize@@YA_NXZ        0041be80 f   cApplicationStartup.obj
 0001:0001af00       ?InitializeSockets@cApplicationStartup@@AAEXXZ 0041bf00 f   cApplicationStartup.obj
 0001:0001af50       ?OnAccept@@YAXXZ           0041bf50 f   cApplicationStartup.obj
 0001:0001af80       ?OnDestroy@@YAXXZ          0041bf80 f   cApplicationStartup.obj
 0001:0001b090       ?PutEkAndPkLogFileList@@YAXPAD@Z 0041c090 f   cApplicationStartup.obj
 0001:0001b2f0       ?PutGMLogData@@YAXPAD@Z    0041c2f0 f   cApplicationStartup.obj
 0001:0001b550       ?PutLogCoinsFileList@@YAXPAD@Z 0041c550 f   cApplicationStartup.obj
 0001:0001b7b0       ?PutLogDrops@@YAXPAD@Z     0041c7b0 f   cApplicationStartup.obj
 0001:0001ba40       ?PutLogHacksFileList@@YAXPAD@Z 0041ca40 f   cApplicationStartup.obj
 0001:0001bc60       ?PutLogItemsList@@YAXPAD@Z 0041cc60 f   cApplicationStartup.obj
 0001:0001bec0       ?PutLogList@@YAXPAD@Z      0041cec0 f   cApplicationStartup.obj
 0001:0001c150       ?PutLogOnlinesFileList@@YAXPAD@Z 0041d150 f   cApplicationStartup.obj
 0001:0001c250       ?PutLogTradeFileList@@YAXPAD@Z 0041d250 f   cApplicationStartup.obj
 0001:0001c4b0       ?StartCoreserver@cApplicationStartup@@AAEXXZ 0041d4b0 f   cApplicationStartup.obj
 0001:0001c640       ?StartTimer@cApplicationStartup@@AAEIK@Z 0041d640 f   cApplicationStartup.obj
 0001:0001c6a0       ?Startup@cApplicationStartup@@QAEXXZ 0041d6a0 f   cApplicationStartup.obj
 0001:0001c760       ?UpdateConfigList@@YAXPAD@Z 0041d760 f   cApplicationStartup.obj
 0001:0001c7a0       ?_Activate_SSO_buffer@?$_String_val@U?$_Simple_types@D@std@@@std@@QAEXXZ 0041d7a0 f i cApplicationStartup.obj
 0001:0001c7c0       ?_Adjust_manually_vector_aligned@std@@YAXAAPAXAAI@Z 0041d7c0 f i cApplicationStartup.obj
 0001:0001c8e0       ?_Allocate@_Default_allocate_traits@std@@SAPAXI@Z 0041d8e0 f i cApplicationStartup.obj
 0001:0001c910       ?_C_str@locale@std@@QBEPBDXZ 0041d910 f i cApplicationStartup.obj
 0001:0001c960       ?_Calculate_growth@?$basic_string@DU?$char_traits@D@std@@V?$allocator@D@2@@std@@ABEII@Z 0041d960 f i cApplicationStartup.obj
 0001:0001c9a0       ?_Calculate_growth@?$basic_string@DU?$char_traits@D@std@@V?$allocator@D@2@@std@@CAIIII@Z 0041d9a0 f i cApplicationStartup.obj
 0001:0001ca10       ?_Deallocate_for_capacity@?$basic_string@DU?$char_traits@D@std@@V?$allocator@D@2@@std@@CAXAAV?$allocator@D@2@QADI@Z 0041da10 f i cApplicationStartup.obj
 0001:0001ca40       ?_Decref@facet@locale@std@@UAEPAV_Facet_base@3@XZ 0041da40 f i cApplicationStartup.obj
 0001:0001ca80       ?_Get_first@?$_Compressed_pair@U?$default_delete@V_Facet_base@std@@@std@@PAV_Facet_base@2@$00@std@@QAEAAU?$default_delete@V_Facet_base@std@@@2@XZ 0041da80 f i cApplicationStartup.obj
 0001:0001caa0       ?_Get_first@?$_Compressed_pair@V?$allocator@D@std@@V?$_String_val@U?$_Simple_types@D@std@@@2@$00@std@@QAEAAV?$allocator@D@2@XZ 0041daa0 f i cApplicationStartup.obj
 0001:0001cac0       ?_Get_first@?$_Compressed_pair@V?$allocator@D@std@@V?$_String_val@U?$_Simple_types@D@std@@@2@$00@std@@QBEABV?$allocator@D@2@XZ 0041dac0 f i cApplicationStartup.obj
 0001:0001cae0       ?_Getal@?$basic_string@DU?$char_traits@D@std@@V?$allocator@D@2@@std@@AAEAAV?$allocator@D@2@XZ 0041dae0 f i cApplicationStartup.obj
 0001:0001cb10       ?_Getal@?$basic_string@DU?$char_traits@D@std@@V?$allocator@D@2@@std@@ABEABV?$allocator@D@2@XZ 0041db10 f i cApplicationStartup.obj
 0001:0001cb40       ?_Getcat@?$ctype@D@std@@SAIPAPBVfacet@locale@2@PBV42@@Z 0041db40 f i cApplicationStartup.obj
 0001:0001cca0       ?_Getctype@_Locinfo@std@@QBE?AU_Ctypevec@@XZ 0041dca0 f i cApplicationStartup.obj
 0001:0001cd10       ?_Getfacet@locale@std@@QBEPBVfacet@12@I@Z 0041dd10 f i cApplicationStartup.obj
 0001:0001cdb0       ?_Incref@facet@locale@std@@UAEXXZ 0041ddb0 f i cApplicationStartup.obj
 0001:0001cde0       ?_Init@?$ctype@D@std@@IAEXABV_Locinfo@2@@Z 0041dde0 f i cApplicationStartup.obj
 0001:0001ce30       ?_Large_mode_engaged@?$_String_val@U?$_Simple_types@D@std@@@std@@QBE_NXZ 0041de30 f i cApplicationStartup.obj
 0001:0001ce70       ?_Makestr@_System_error@std@@CA?AV?$basic_string@DU?$char_traits@D@std@@V?$allocator@D@2@@2@Verror_code@2@V32@@Z 0041de70 f i cApplicationStartup.obj
 0001:0001cf70       ?_Myptr@?$_String_val@U?$_Simple_types@D@std@@@std@@QAEPADXZ 0041df70 f i cApplicationStartup.obj
 0001:0001cfc0       ?_Myptr@?$_String_val@U?$_Simple_types@D@std@@@std@@QBEPBDXZ 0041dfc0 f i cApplicationStartup.obj
 0001:0001d010       ?_Orphan_all@_Container_base12@std@@QAEXXZ 0041e010 f i cApplicationStartup.obj
 0001:0001d040       ?_Orphan_all_locked_v3@_Container_base12@std@@AAEXXZ 0041e040 f i cApplicationStartup.obj
 0001:0001d080       ?_Orphan_all_unlocked_v3@_Container_base12@std@@AAEXXZ 0041e080 f i cApplicationStartup.obj
 0001:0001d0f0       ?_Osfx@?$basic_ostream@DU?$char_traits@D@std@@@std@@QAEXXZ 0041e0f0 f i cApplicationStartup.obj
 0001:0001d200       ?_Pnavail@?$basic_streambuf@DU?$char_traits@D@std@@@std@@IBE_JXZ 0041e200 f i cApplicationStartup.obj
 0001:0001d250       ?_Pninc@?$basic_streambuf@DU?$char_traits@D@std@@@std@@IAEPADXZ 0041e250 f i cApplicationStartup.obj
 0001:0001d2b0       ?_Release@_Basic_container_proxy_ptr12@std@@QAEXXZ 0041e2b0 f i cApplicationStartup.obj
 0001:0001d2e0       ?_StopTimer@@YAXI@Z        0041e2e0 f   cApplicationStartup.obj
 0001:0001d330       ?_Swap_proxy_and_iterators@?$basic_string@DU?$char_traits@D@std@@V?$allocator@D@2@@std@@AAEXAAV12@@Z 0041e330 f i cApplicationStartup.obj
 0001:0001d360       ?_Swap_proxy_and_iterators@_Container_base12@std@@QAEXAAU12@@Z 0041e360 f i cApplicationStartup.obj
 0001:0001d390       ?_Swap_proxy_and_iterators_locked@_Container_base12@std@@AAEXAAU12@@Z 0041e390 f i cApplicationStartup.obj
 0001:0001d3e0       ?_Swap_proxy_and_iterators_unlocked@_Container_base12@std@@AAEXAAU12@@Z 0041e3e0 f i cApplicationStartup.obj
 0001:0001d450       ?_Switch_to_buf@_Bxty@?$_String_val@U?$_Simple_types@D@std@@@std@@QAEXXZ 0041e450 f i cApplicationStartup.obj
 0001:0001d480       ?_Take_contents@?$basic_string@DU?$char_traits@D@std@@V?$allocator@D@2@@std@@AAEXAAV12@@Z 0041e480 f i cApplicationStartup.obj
 0001:0001d660       ?_Throw_bad_array_new_length@std@@YAXXZ 0041e660 f i cApplicationStartup.obj
 0001:0001d690       ?_Throw_bad_cast@std@@YAXXZ 0041e690 f i cApplicationStartup.obj
 0001:0001d6c0       ?_Tidy@?$_Yarn@D@std@@AAEXXZ 0041e6c0 f i cApplicationStartup.obj
 0001:0001d710       ?_Tidy@?$_Yarn@_W@std@@AAEXXZ 0041e710 f i cApplicationStartup.obj
 0001:0001d760       ?_Tidy@?$ctype@D@std@@IAEXXZ 0041e760 f i cApplicationStartup.obj
 0001:0001d7d0       ?_Tidy_deallocate@?$basic_string@DU?$char_traits@D@std@@V?$allocator@D@2@@std@@AAEXXZ 0041e7d0 f i cApplicationStartup.obj
 0001:0001d890       ?_TimerFunc@@YGXIIKKK@Z    0041e890 f   cApplicationStartup.obj
 0001:0001d8d0       ?_Xlen_string@std@@YAXXZ   0041e8d0 f i cApplicationStartup.obj
 0001:0001d900       ?__empty_global_delete@@YAXPAX@Z 0041e900 f i cApplicationStartup.obj
 0001:0001d920       ?__empty_global_delete@@YAXPAXI@Z 0041e920 f i cApplicationStartup.obj
 0001:0001d920       ?__global_delete@@YAXPAXI@Z 0041e920 f i cApplicationStartup.obj
 0001:0001d940       ?allocate@?$allocator@D@std@@QAEPADI@Z 0041e940 f i cApplicationStartup.obj
 0001:0001d980       ?allocate@?$allocator@U_Container_proxy@std@@@std@@QAEPAU_Container_proxy@2@I@Z 0041e980 f i cApplicationStartup.obj
 0001:0001d9c0       ?append@?$basic_string@DU?$char_traits@D@std@@V?$allocator@D@2@@std@@QAEAAV12@ABV12@@Z 0041e9c0 f i cApplicationStartup.obj
 0001:0001da00       ?append@?$basic_string@DU?$char_traits@D@std@@V?$allocator@D@2@@std@@QAEAAV12@QBD@Z 0041ea00 f i cApplicationStartup.obj
 0001:0001da50       ?append@?$basic_string@DU?$char_traits@D@std@@V?$allocator@D@2@@std@@QAEAAV12@QBDI@Z 0041ea50 f i cApplicationStartup.obj
 0001:0001db10       ?assign@?$_Narrow_char_traits@DH@std@@SAXAADABD@Z 0041eb10 f i cApplicationStartup.obj
 0001:0001db30       ?c_str@?$_Yarn@D@std@@QBEPBDXZ 0041eb30 f i cApplicationStartup.obj
 0001:0001db70       ?c_str@?$basic_string@DU?$char_traits@D@std@@V?$allocator@D@2@@std@@QBEPBDXZ 0041eb70 f i cApplicationStartup.obj
 0001:0001dba0       ?category@error_code@std@@QBEABVerror_category@2@XZ 0041eba0 f i cApplicationStartup.obj
 0001:0001dbc0       ?category@error_condition@std@@QBEABVerror_category@2@XZ 0041ebc0 f i cApplicationStartup.obj
 0001:0001dbe0       ?clear@?$basic_ios@DU?$char_traits@D@std@@@std@@QAEXH_N@Z 0041ebe0 f i cApplicationStartup.obj
 0001:0001dc40       ?clear@ios_base@std@@QAEXH_N@Z 0041ec40 f i cApplicationStartup.obj
 0001:0001dd00       ?copy@?$_Char_traits@DH@std@@SAPADQADQBDI@Z 0041ed00 f i cApplicationStartup.obj
 0001:0001dd30       ?deallocate@?$_Default_allocator_traits@V?$allocator@U_Container_proxy@std@@@std@@@std@@SAXAAV?$allocator@U_Container_proxy@std@@@2@QAU_Container_proxy@2@I@Z 0041ed30 f i cApplicationStartup.obj
 0001:0001dd60       ?deallocate@?$allocator@D@std@@QAEXQADI@Z 0041ed60 f i cApplicationStartup.obj
 0001:0001dde0       ?default_error_condition@error_category@std@@UBE?AVerror_condition@2@H@Z 0041ede0 f i cApplicationStartup.obj
 0001:0001de20       ?do_narrow@?$ctype@D@std@@MBEDDD@Z 0041ee20 f i cApplicationStartup.obj
 0001:0001de40       ?do_narrow@?$ctype@D@std@@MBEPBDPBD0DPAD@Z 0041ee40 f i cApplicationStartup.obj
 0001:0001de90       ?do_tolower@?$ctype@D@std@@MBEDD@Z 0041ee90 f i cApplicationStartup.obj
 0001:0001ded0       ?do_tolower@?$ctype@D@std@@MBEPBDPADPBD@Z 0041eed0 f i cApplicationStartup.obj
 0001:0001df40       ?do_toupper@?$ctype@D@std@@MBEDD@Z 0041ef40 f i cApplicationStartup.obj
 0001:0001df80       ?do_toupper@?$ctype@D@std@@MBEPBDPADPBD@Z 0041ef80 f i cApplicationStartup.obj
 0001:0001dff0       ?do_widen@?$ctype@D@std@@MBEDD@Z 0041eff0 f i cApplicationStartup.obj
 0001:0001e010       ?do_widen@?$ctype@D@std@@MBEPBDPBD0PAD@Z 0041f010 f i cApplicationStartup.obj
 0001:0001e060       ?empty@?$basic_string@DU?$char_traits@D@std@@V?$allocator@D@2@@std@@QBE_NXZ 0041f060 f i cApplicationStartup.obj
 0001:0001e0a0       ?eof@?$_Narrow_char_traits@DH@std@@SAHXZ 0041f0a0 f i cApplicationStartup.obj
 0001:0001e0c0       ?eq_int_type@?$_Narrow_char_traits@DH@std@@SA_NHH@Z 0041f0c0 f i cApplicationStartup.obj
 0001:0001e100       ?equivalent@error_category@std@@UBE_NABVerror_code@2@H@Z 0041f100 f i cApplicationStartup.obj
 0001:0001e170       ?equivalent@error_category@std@@UBE_NHABVerror_condition@2@@Z 0041f170 f i cApplicationStartup.obj
 0001:0001e1c0       ?fill@?$basic_ios@DU?$char_traits@D@std@@@std@@QBEDXZ 0041f1c0 f i cApplicationStartup.obj
 0001:0001e1e0       ?flags@ios_base@std@@QBEHXZ 0041f1e0 f i cApplicationStartup.obj
 0001:0001e200       ?flush@?$basic_ostream@DU?$char_traits@D@std@@@std@@QAEAAV12@XZ 0041f200 f i cApplicationStartup.obj
 0001:0001e340       ?getloc@ios_base@std@@QBE?AVlocale@2@XZ 0041f340 f i cApplicationStartup.obj
 0001:0001e380       ?good@ios_base@std@@QBE_NXZ 0041f380 f i cApplicationStartup.obj
 0001:0001e3c0       ?iostream_category@std@@YAABVerror_category@1@XZ 0041f3c0 f i cApplicationStartup.obj
 0001:0001e3e0       ?length@?$_Narrow_char_traits@DH@std@@SAIQBD@Z 0041f3e0 f i cApplicationStartup.obj
 0001:0001e410       ?make_error_code@std@@YA?AVerror_code@1@W4io_errc@1@@Z 0041f410 f i cApplicationStartup.obj
 0001:0001e440       ?max_size@?$_Default_allocator_traits@V?$allocator@D@std@@@std@@SAIABV?$allocator@D@2@@Z 0041f440 f i cApplicationStartup.obj
 0001:0001e460       ?max_size@?$basic_string@DU?$char_traits@D@std@@V?$allocator@D@2@@std@@QBEIXZ 0041f460 f i cApplicationStartup.obj
 0001:0001e4e0       ?message@_Iostream_error_category2@std@@UBE?AV?$basic_string@DU?$char_traits@D@std@@V?$allocator@D@2@@2@H@Z 0041f4e0 f i cApplicationStartup.obj
 0001:0001e570       ?message@error_code@std@@QBE?AV?$basic_string@DU?$char_traits@D@std@@V?$allocator@D@2@@2@XZ 0041f570 f i cApplicationStartup.obj
 0001:0001e5d0       ?move@?$_Char_traits@DH@std@@SAPADQADQBDI@Z 0041f5d0 f i cApplicationStartup.obj
 0001:0001e600       ?name@_Iostream_error_category2@std@@UBEPBDXZ 0041f600 f i cApplicationStartup.obj
 0001:0001e620       ?pubsync@?$basic_streambuf@DU?$char_traits@D@std@@@std@@QAEHXZ 0041f620 f i cApplicationStartup.obj
 0001:0001e650       ?put@?$basic_ostream@DU?$char_traits@D@std@@@std@@QAEAAV12@D@Z 0041f650 f i cApplicationStartup.obj
 0001:0001e7b0       ?rdbuf@?$basic_ios@DU?$char_traits@D@std@@@std@@QBEPAV?$basic_streambuf@DU?$char_traits@D@std@@@2@XZ 0041f7b0 f i cApplicationStartup.obj
 0001:0001e7d0       ?rdstate@ios_base@std@@QBEHXZ 0041f7d0 f i cApplicationStartup.obj
 0001:0001e7f0       ?release@?$unique_ptr@V_Facet_base@std@@U?$default_delete@V_Facet_base@std@@@2@@std@@QAEPAV_Facet_base@2@XZ 0041f7f0 f i cApplicationStartup.obj
 0001:0001e830       ?select_on_container_copy_construction@?$_Default_allocator_traits@V?$allocator@D@std@@@std@@SA?AV?$allocator@D@2@ABV32@@Z 0041f830 f i cApplicationStartup.obj
 0001:0001e850       ?setstate@?$basic_ios@DU?$char_traits@D@std@@@std@@QAEXH_N@Z 0041f850 f i cApplicationStartup.obj
 0001:0001e890       ?sputc@?$basic_streambuf@DU?$char_traits@D@std@@@std@@QAEHD@Z 0041f890 f i cApplicationStartup.obj
 0001:0001e920       ?sputn@?$basic_streambuf@DU?$char_traits@D@std@@@std@@QAE_JPBD_J@Z 0041f920 f i cApplicationStartup.obj
 0001:0001e960       ?tie@?$basic_ios@DU?$char_traits@D@std@@@std@@QBEPAV?$basic_ostream@DU?$char_traits@D@std@@@2@XZ 0041f960 f i cApplicationStartup.obj
 0001:0001e980       ?to_int_type@?$_Narrow_char_traits@DH@std@@SAHD@Z 0041f980 f i cApplicationStartup.obj
 0001:0001e9a0       ?value@error_code@std@@QBEHXZ 0041f9a0 f i cApplicationStartup.obj
 0001:0001e9c0       ?value@error_condition@std@@QBEHXZ 0041f9c0 f i cApplicationStartup.obj
 0001:0001e9e0       ?what@exception@std@@UBEPBDXZ 0041f9e0 f i cApplicationStartup.obj
 0001:0001ea20       ?widen@?$basic_ios@DU?$char_traits@D@std@@@std@@QBEDD@Z 0041fa20 f i cApplicationStartup.obj
 0001:0001ead0       ?widen@?$ctype@D@std@@QBEDD@Z 0041fad0 f i cApplicationStartup.obj
 0001:0001eb00       ?width@ios_base@std@@QAE_J_J@Z 0041fb00 f i cApplicationStartup.obj
 0001:0001eb50       ?width@ios_base@std@@QBE_JXZ 0041fb50 f i cApplicationStartup.obj
 0001:0001eb80       ___local_stdio_printf_options 0041fb80 f i cApplicationStartup.obj
 0001:0001eba0       __vfprintf_l               0041fba0 f i cApplicationStartup.obj
 0001:0001ebf0       _printf                    0041fbf0 f i cApplicationStartup.obj
 0001:0001ec40       ?DeleteNpc@CMapServer@@QAEXHHH@Z 0041fc40 f   Drops.obj
 0001:00024490       ?NpcDeadItemGenerator@CMapServer@@QAEXHFD@Z 00425490 f   Drops.obj
 0001:00027ed0       ?bCheckClientMoveFrequency@CMapServer@@QAE_NHH@Z 00428ed0 f   Drops.obj
 0001:00027f30       ?bGetMultipleItemNamesWhenDeleteNpc@CMapServer@@QAEHFHHHFFHHPAHPAUtagPOINT@@0@Z 00428f30 f   Drops.obj
 0001:00028c90       _main                      00429c90 f   main.obj
 0001:00028e40       ??0CBuildItem@@QAE@XZ      00429e40 f   BuildItem.obj
 0001:00028f40       ??1CBuildItem@@UAE@XZ      00429f40 f   BuildItem.obj
 0001:00028f70       ??_ECBuildItem@@UAEPAXI@Z  00429f70 f i BuildItem.obj
 0001:00028f70       ??_GCBuildItem@@UAEPAXI@Z  00429f70 f i BuildItem.obj
 0001:00028fc0       ??$?0$$V@?$_Compressed_pair@V?$allocator@Ust_charquest@CClient@@@std@@V?$_Vector_val@U?$_Simple_types@Ust_charquest@CClient@@@std@@@2@$00@std@@QAE@U_Zero_then_variadic_args_t@1@@Z 00429fc0 f i Client.obj
 0001:00029000       ??$?0$$V@?$_Compressed_pair@V?$allocator@V?$basic_string@DU?$char_traits@D@std@@V?$allocator@D@2@@std@@@std@@V?$_Vector_val@U?$_Simple_types@V?$basic_string@DU?$char_traits@D@std@@V?$allocator@D@2@@std@@@std@@@2@$00@std@@QAE@U_Zero_then_variadic_args_t@1@@Z 0042a000 f i Client.obj
 0001:00029040       ??$?0$0A@@id@locale@std@@QAE@XZ 0042a040 f i Client.obj
 0001:000290b0       ??$?0ABV?$allocator@D@std@@$$V@?$_Compressed_pair@V?$allocator@D@std@@V?$_String_val@U?$_Simple_types@D@std@@@2@$00@std@@QAE@U_One_then_variadic_args_t@1@ABV?$allocator@D@1@@Z 0042a0b0 f i Client.obj
 0001:000290f0       ??$?0PAD$0A@@?$basic_string@DU?$char_traits@D@std@@V?$allocator@D@2@@std@@QAE@PAD0ABV?$allocator@D@1@@Z 0042a0f0 f i Client.obj
 0001:000292d0       ??$?0U_Exact_args_t@std@@$0A@@?$tuple@$$V@std@@QAE@U_Exact_args_t@1@@Z 0042a2d0 f i Client.obj
 0001:00029340       ??$?0Ust_charquest@CClient@@@?$allocator@U_Container_proxy@std@@@std@@QAE@ABV?$allocator@Ust_charquest@CClient@@@1@@Z 0042a340 f i Client.obj
 0001:00029460       ??$?0V?$basic_string@DU?$char_traits@D@std@@V?$allocator@D@2@@std@@@?$allocator@U_Container_proxy@std@@@std@@QAE@ABV?$allocator@V?$basic_string@DU?$char_traits@D@std@@V?$allocator@D@2@@std@@@1@@Z 0042a460 f i Client.obj
 0001:00029480       ??$?8DU?$char_traits@D@std@@V?$allocator@D@1@@std@@YA_NABV?$basic_string@DU?$char_traits@D@std@@V?$allocator@D@2@@0@QBD@Z 0042a480 f i Client.obj
 0001:00029670       ??$_Adl_verify_range@PADPAD@std@@YAXABQAD0@Z 0042a670 f i Client.obj
 0001:000296e0       ??$_Allocate_at_least_helper@V?$allocator@Ust_charquest@CClient@@@std@@@std@@YAPAUst_charquest@CClient@@AAV?$allocator@Ust_charquest@CClient@@@0@AAI@Z 0042a6e0 f i Client.obj
 0001:00029710       ??$_Allocate_at_least_helper@V?$allocator@V?$basic_string@DU?$char_traits@D@std@@V?$allocator@D@2@@std@@@std@@@std@@YAPAV?$basic_string@DU?$char_traits@D@std@@V?$allocator@D@2@@0@AAV?$allocator@V?$basic_string@DU?$char_traits@D@std@@V?$allocator@D@2@@std@@@0@AAI@Z 0042a710 f i Client.obj
 0001:00029740       ??$_Construct@$00PAD@?$basic_string@DU?$char_traits@D@std@@V?$allocator@D@2@@std@@AAEXQADI@Z 0042a740 f i Client.obj
 0001:00029950       ??$_Construct@$0A@D@?$basic_string@DU?$char_traits@D@std@@V?$allocator@D@2@@std@@AAEXDI@Z 0042a950 f i Client.obj
 0001:00029b60       ??$_Construct_in_place@Ust_charquest@CClient@@ABU12@@std@@YAXAAUst_charquest@CClient@@ABU12@@Z 0042ab60 f i Client.obj
 0001:00029bc0       ??$_Construct_in_place@V?$basic_string@DU?$char_traits@D@std@@V?$allocator@D@2@@std@@V12@@std@@YAXAAV?$basic_string@DU?$char_traits@D@std@@V?$allocator@D@2@@0@$$QAV10@@Z 0042abc0 f i Client.obj
 0001:00029c10       ??$_Copy_memmove@PAUst_charquest@CClient@@PAU12@@std@@YAPAUst_charquest@CClient@@PAU12@00@Z 0042ac10 f i Client.obj
 0001:00029cb0       ??$_Copy_memmove_tail@PAUst_charquest@CClient@@@std@@YAPAUst_charquest@CClient@@QBDQAU12@II@Z 0042acb0 f i Client.obj
 0001:00029d00       ??$_Destroy_range@V?$allocator@Ust_charquest@CClient@@@std@@@std@@YAXPAUst_charquest@CClient@@QAU12@AAV?$allocator@Ust_charquest@CClient@@@0@@Z 0042ad00 f i Client.obj
 0001:00029d20       ??$_Destroy_range@V?$allocator@V?$basic_string@DU?$char_traits@D@std@@V?$allocator@D@2@@std@@@std@@@std@@YAXPAV?$basic_string@DU?$char_traits@D@std@@V?$allocator@D@2@@0@QAV10@AAV?$allocator@V?$basic_string@DU?$char_traits@D@std@@V?$allocator@D@2@@std@@@0@@Z 0042ad20 f i Client.obj
 0001:00029db0       ??$_Emplace_back@Ust_charquest@CClient@@@?$_Uninitialized_backout_al@V?$allocator@Ust_charquest@CClient@@@std@@@std@@QAEX$$QAUst_charquest@CClient@@@Z 0042adb0 f i Client.obj
 0001:00029e20       ??$_Emplace_back@V?$basic_string@DU?$char_traits@D@std@@V?$allocator@D@2@@std@@@?$_Uninitialized_backout_al@V?$allocator@V?$basic_string@DU?$char_traits@D@std@@V?$allocator@D@2@@std@@@std@@@std@@QAEX$$QAV?$basic_string@DU?$char_traits@D@std@@V?$allocator@D@2@@1@@Z 0042ae20 f i Client.obj
 0001:00029e90       ??$_Emplace_back_with_unused_capacity@ABUst_charquest@CClient@@@?$vector@Ust_charquest@CClient@@V?$allocator@Ust_charquest@CClient@@@std@@@std@@AAEAAUst_charquest@CClient@@ABU23@@Z 0042ae90 f i Client.obj
 0001:00029f20       ??$_Emplace_back_with_unused_capacity@V?$basic_string@DU?$char_traits@D@std@@V?$allocator@D@2@@std@@@?$vector@V?$basic_string@DU?$char_traits@D@std@@V?$allocator@D@2@@std@@V?$allocator@V?$basic_string@DU?$char_traits@D@std@@V?$allocator@D@2@@std@@@2@@std@@AAEAAV?$basic_string@DU?$char_traits@D@std@@V?$allocator@D@2@@1@$$QAV21@@Z 0042af20 f i Client.obj
 0001:00029fb0       ??$_Emplace_one_at_back@ABUst_charquest@CClient@@@?$vector@Ust_charquest@CClient@@V?$allocator@Ust_charquest@CClient@@@std@@@std@@AAEAAUst_charquest@CClient@@ABU23@@Z 0042afb0 f i Client.obj
 0001:0002a030       ??$_Emplace_one_at_back@V?$basic_string@DU?$char_traits@D@std@@V?$allocator@D@2@@std@@@?$vector@V?$basic_string@DU?$char_traits@D@std@@V?$allocator@D@2@@std@@V?$allocator@V?$basic_string@DU?$char_traits@D@std@@V?$allocator@D@2@@std@@@2@@std@@AAEAAV?$basic_string@DU?$char_traits@D@std@@V?$allocator@D@2@@1@$$QAV21@@Z 0042b030 f i Client.obj
 0001:0002a0b0       ??$_Emplace_reallocate@ABUst_charquest@CClient@@@?$vector@Ust_charquest@CClient@@V?$allocator@Ust_charquest@CClient@@@std@@@std@@AAEPAUst_charquest@CClient@@QAU23@ABU23@@Z 0042b0b0 f i Client.obj
 0001:0002a330       ??$_Emplace_reallocate@V?$basic_string@DU?$char_traits@D@std@@V?$allocator@D@2@@std@@@?$vector@V?$basic_string@DU?$char_traits@D@std@@V?$allocator@D@2@@std@@V?$allocator@V?$basic_string@DU?$char_traits@D@std@@V?$allocator@D@2@@std@@@2@@std@@AAEPAV?$basic_string@DU?$char_traits@D@std@@V?$allocator@D@2@@1@QAV21@$$QAV21@@Z 0042b330 f i Client.obj
 0001:0002a590       ??$_Fgetc@D@std@@YA_NAADPAU_iobuf@@@Z 0042b590 f i Client.obj
 0001:0002a5e0       ??$_Find_end_vectorized@$$CBD$$CBD@std@@YAPBDQBD00I@Z 0042b5e0 f i Client.obj
 0001:0002a610       ??$_Float_put_desired_precision@N@std@@YAH_JH@Z 0042b610 f i Client.obj
 0001:0002a6d0       ??$_Float_put_desired_precision@O@std@@YAH_JH@Z 0042b6d0 f i Client.obj
 0001:0002a790       ??$_Fput_v3@$0A@@?$num_put@DV?$ostreambuf_iterator@DU?$char_traits@D@std@@@std@@@std@@ABE?AV?$ostreambuf_iterator@DU?$char_traits@D@std@@@1@V21@AAVios_base@1@DPBDI_N@Z 0042b790 f i Client.obj
 0001:0002adf0       ??$_Fputc@D@std@@YA_NDPAU_iobuf@@@Z 0042bdf0 f i Client.obj
 0001:0002ae40       ??$_Get_size_of_n@$0BM@@std@@YAII@Z 0042be40 f i Client.obj
 0001:0002ae80       ??$_Get_size_of_n@$0IE@@std@@YAII@Z 0042be80 f i Client.obj
 0001:0002aec0       ??$_Get_unwrapped@AAPAD@std@@YA?A_TAAPAD@Z 0042bec0 f i Client.obj
 0001:0002aee0       ??$_Get_unwrapped@ABQAUst_charquest@CClient@@@std@@YA?A_TABQAUst_charquest@CClient@@@Z 0042bee0 f i Client.obj
 0001:0002af00       ??$_Get_unwrapped@ABQAV?$basic_string@DU?$char_traits@D@std@@V?$allocator@D@2@@std@@@std@@YA?A_TABQAV?$basic_string@DU?$char_traits@D@std@@V?$allocator@D@2@@0@@Z 0042bf00 f i Client.obj
 0001:0002af20       ??$_Integral_to_string@DH@std@@YA?AV?$basic_string@DU?$char_traits@D@std@@V?$allocator@D@2@@0@H@Z 0042bf20 f i Client.obj
 0001:0002b0c0       ??$_Maklocchr@D@std@@YADDPADABU_Cvtvec@@@Z 0042c0c0 f i Client.obj
 0001:0002b0e0       ??$_Maklocstr@D@std@@YAPADPBDPADABU_Cvtvec@@@Z 0042c0e0 f i Client.obj
 0001:0002b190       ??$_Move_unchecked@PAUst_charquest@CClient@@PAU12@@std@@YAPAUst_charquest@CClient@@PAU12@00@Z 0042c190 f i Client.obj
 0001:0002b210       ??$_Pocma@V?$allocator@D@std@@@std@@YAXAAV?$allocator@D@0@0@Z 0042c210 f i Client.obj
 0001:0002b240       ??$_Reallocate_grow_by@V<lambda_15711c68e099a15a58f4d77303cb286d>@@D@?$basic_string@DU?$char_traits@D@std@@V?$allocator@D@2@@std@@AAEAAV01@IV<lambda_15711c68e099a15a58f4d77303cb286d>@@D@Z 0042c240 f i Client.obj
 0001:0002b3b0       ??$_Reallocate_grow_by@V<lambda_6607a66f2a10a1261ff9db96cba1015b>@@IID@?$basic_string@DU?$char_traits@D@std@@V?$allocator@D@2@@std@@AAEAAV01@IV<lambda_6607a66f2a10a1261ff9db96cba1015b>@@IID@Z 0042c3b0 f i Client.obj
 0001:0002b540       ??$_Reallocate_grow_by@V<lambda_c1b8c41cb4019640539cfd828748c4d4>@@ID@?$basic_string@DU?$char_traits@D@std@@V?$allocator@D@2@@std@@AAEAAV01@IV<lambda_c1b8c41cb4019640539cfd828748c4d4>@@ID@Z 0042c540 f i Client.obj
 0001:0002b6c0       ??$_Search_vectorized@$$CBD$$CBD@std@@YAPBDQBD00I@Z 0042c6c0 f i Client.obj
 0001:0002b800       ??$_To_address@PAUst_charquest@CClient@@@std@@YA?A_PABQAUst_charquest@CClient@@@Z 0042c800 f i Client.obj
 0001:0002b820       ??$_Traits_equal@U?$char_traits@D@std@@@std@@YA_NQBDI0I@Z 0042c820 f i Client.obj
 0001:0002b890       ??$_Traits_find@U?$char_traits@D@std@@@std@@YAIQBDII0I@Z 0042c890 f i Client.obj
 0001:0002b9c0       ??$_Traits_rfind@U?$char_traits@D@std@@@std@@YAIQBDII0I@Z 0042c9c0 f i Client.obj
 0001:0002bb10       ??$_UIntegral_to_buff@DI@std@@YAPADPADI@Z 0042cb10 f i Client.obj
 0001:0002bb80       ??$_Unfancy@Ust_charquest@CClient@@@std@@YAPAUst_charquest@CClient@@PAU12@@Z 0042cb80 f i Client.obj
 0001:0002bba0       ??$_Unfancy@V?$basic_string@DU?$char_traits@D@std@@V?$allocator@D@2@@std@@@std@@YAPAV?$basic_string@DU?$char_traits@D@std@@V?$allocator@D@2@@0@PAV10@@Z 0042cba0 f i Client.obj
 0001:0002bbc0       ??$_Unfancy_maybe_null@V?$basic_string@DU?$char_traits@D@std@@V?$allocator@D@2@@std@@@std@@YAPAV?$basic_string@DU?$char_traits@D@std@@V?$allocator@D@2@@0@PAV10@@Z 0042cbc0 f i Client.obj
 0001:0002bbe0       ??$_Ungetc@D@std@@YA_NABDPAU_iobuf@@@Z 0042cbe0 f i Client.obj
 0001:0002bc30       ??$_Uninitialized_move@PAUst_charquest@CClient@@V?$allocator@Ust_charquest@CClient@@@std@@@std@@YAPAUst_charquest@CClient@@QAU12@0PAU12@AAV?$allocator@Ust_charquest@CClient@@@0@@Z 0042cc30 f i Client.obj
 0001:0002bd60       ??$_Uninitialized_move@PAV?$basic_string@DU?$char_traits@D@std@@V?$allocator@D@2@@std@@V?$allocator@V?$basic_string@DU?$char_traits@D@std@@V?$allocator@D@2@@std@@@2@@std@@YAPAV?$basic_string@DU?$char_traits@D@std@@V?$allocator@D@2@@0@QAV10@0PAV10@AAV?$allocator@V?$basic_string@DU?$char_traits@D@std@@V?$allocator@D@2@@std@@@0@@Z 0042cd60 f i Client.obj
 0001:0002be50       ??$addressof@$$CBV?$codecvt@DDU_Mbstatet@@@std@@@std@@YAPBV?$codecvt@DDU_Mbstatet@@@0@ABV10@@Z 0042ce50 f i Client.obj
 0001:0002be70       ??$addressof@Ust_charquest@CClient@@@std@@YAPAUst_charquest@CClient@@AAU12@@Z 0042ce70 f i Client.obj
 0001:0002be90       ??$addressof@V?$_Vector_val@U?$_Simple_types@Ust_charquest@CClient@@@std@@@std@@@std@@YAPAV?$_Vector_val@U?$_Simple_types@Ust_charquest@CClient@@@std@@@0@AAV10@@Z 0042ce90 f i Client.obj
 0001:0002beb0       ??$addressof@V?$basic_filebuf@DU?$char_traits@D@std@@@std@@@std@@YAPAV?$basic_filebuf@DU?$char_traits@D@std@@@0@AAV10@@Z 0042ceb0 f i Client.obj
 0001:0002bed0       ??$addressof@V?$basic_string@DU?$char_traits@D@std@@V?$allocator@D@2@@std@@@std@@YAPAV?$basic_string@DU?$char_traits@D@std@@V?$allocator@D@2@@0@AAV10@@Z 0042ced0 f i Client.obj
 0001:0002bef0       ??$construct@Ust_charquest@CClient@@ABU12@@?$_Default_allocator_traits@V?$allocator@Ust_charquest@CClient@@@std@@@std@@SAXAAV?$allocator@Ust_charquest@CClient@@@1@QAUst_charquest@CClient@@ABU34@@Z 0042cef0 f i Client.obj
 0001:0002bf40       ??$construct@Ust_charquest@CClient@@U12@@?$_Default_allocator_traits@V?$allocator@Ust_charquest@CClient@@@std@@@std@@SAXAAV?$allocator@Ust_charquest@CClient@@@1@QAUst_charquest@CClient@@$$QAU34@@Z 0042cf40 f i Client.obj
 0001:0002bf90       ??$construct@V?$basic_string@DU?$char_traits@D@std@@V?$allocator@D@2@@std@@V12@@?$_Default_allocator_traits@V?$allocator@V?$basic_string@DU?$char_traits@D@std@@V?$allocator@D@2@@std@@@std@@@std@@SAXAAV?$allocator@V?$basic_string@DU?$char_traits@D@std@@V?$allocator@D@2@@std@@@1@QAV?$basic_string@DU?$char_traits@D@std@@V?$allocator@D@2@@1@$$QAV31@@Z 0042cf90 f i Client.obj
 0001:0002bfe0       ??$destroy@Ust_charquest@CClient@@@?$_Default_allocator_traits@V?$allocator@Ust_charquest@CClient@@@std@@@std@@SAXAAV?$allocator@Ust_charquest@CClient@@@1@QAUst_charquest@CClient@@@Z 0042cfe0 f i Client.obj
 0001:0002c000       ??$destroy@V?$basic_string@DU?$char_traits@D@std@@V?$allocator@D@2@@std@@@?$_Default_allocator_traits@V?$allocator@V?$basic_string@DU?$char_traits@D@std@@V?$allocator@D@2@@std@@@std@@@std@@SAXAAV?$allocator@V?$basic_string@DU?$char_traits@D@std@@V?$allocator@D@2@@std@@@1@QAV?$basic_string@DU?$char_traits@D@std@@V?$allocator@D@2@@1@@Z 0042d000 f i Client.obj
 0001:0002c030       ??$end@D$0BF@@std@@YAPADAAY0BF@D@Z 0042d030 f i Client.obj
 0001:0002c050       ??$exchange@PAU_Container_proxy@std@@$$T@std@@YAPAU_Container_proxy@0@AAPAU10@$$QA$$T@Z 0042d050 f i Client.obj
 0001:0002c0d0       ??$forward@ABUst_charquest@CClient@@@std@@YAABUst_charquest@CClient@@ABU12@@Z 0042d0d0 f i Client.obj
 0001:0002c0f0       ??$forward@ABV?$allocator@D@std@@@std@@YAABV?$allocator@D@0@ABV10@@Z 0042d0f0 f i Client.obj
 0001:0002c150       ??$forward@Ust_charquest@CClient@@@std@@YA$$QAUst_charquest@CClient@@AAU12@@Z 0042d150 f i Client.obj
 0001:0002c190       ??$forward@V?$basic_string@DU?$char_traits@D@std@@V?$allocator@D@2@@std@@@std@@YA$$QAV?$basic_string@DU?$char_traits@D@std@@V?$allocator@D@2@@0@AAV10@@Z 0042d190 f i Client.obj
 0001:0002c1d0       ??$getline@DU?$char_traits@D@std@@V?$allocator@D@2@@std@@YAAAV?$basic_istream@DU?$char_traits@D@std@@@0@$$QAV10@AAV?$basic_string@DU?$char_traits@D@std@@V?$allocator@D@2@@0@D@Z 0042d1d0 f i Client.obj
 0001:0002c440       ??$getline@DU?$char_traits@D@std@@V?$allocator@D@2@@std@@YAAAV?$basic_istream@DU?$char_traits@D@std@@@0@AAV10@AAV?$basic_string@DU?$char_traits@D@std@@V?$allocator@D@2@@0@@Z 0042d440 f i Client.obj
 0001:0002c4c0       ??$isfinite@N@@YA_NN@Z     0042d4c0 f i Client.obj
 0001:0002c510       ??$isfinite@O@@YA_NO@Z     0042d510 f i Client.obj
 0001:0002c600       ??$min@H@std@@YAABHABH0@Z  0042d600 f i Client.obj
 0001:0002c640       ??$move@AAPAUst_charquest@CClient@@@std@@YA$$QAPAUst_charquest@CClient@@AAPAU12@@Z 0042d640 f i Client.obj
 0001:0002c660       ??$move@AAUst_charquest@CClient@@@std@@YA$$QAUst_charquest@CClient@@AAU12@@Z 0042d660 f i Client.obj
 0001:0002c6a0       ??$move@AAV?$basic_istream@DU?$char_traits@D@std@@@std@@@std@@YA$$QAV?$basic_istream@DU?$char_traits@D@std@@@0@AAV10@@Z 0042d6a0 f i Client.obj
 0001:0002c6c0       ??$move@AAV?$basic_string@DU?$char_traits@D@std@@V?$allocator@D@2@@std@@@std@@YA$$QAV?$basic_string@DU?$char_traits@D@std@@V?$allocator@D@2@@0@AAV10@@Z 0042d6c0 f i Client.obj
 0001:0002c6e0       ??$use_facet@V?$codecvt@DDU_Mbstatet@@@std@@@std@@YAABV?$codecvt@DDU_Mbstatet@@@0@ABVlocale@0@@Z 0042d6e0 f i Client.obj
 0001:0002c830       ??$use_facet@V?$num_put@DV?$ostreambuf_iterator@DU?$char_traits@D@std@@@std@@@std@@@std@@YAABV?$num_put@DV?$ostreambuf_iterator@DU?$char_traits@D@std@@@std@@@0@ABVlocale@0@@Z 0042d830 f i Client.obj
 0001:0002c980       ??$use_facet@V?$numpunct@D@std@@@std@@YAABV?$numpunct@D@0@ABVlocale@0@@Z 0042d980 f i Client.obj
 0001:0002cb00       ??0?$_Uninitialized_backout_al@V?$allocator@Ust_charquest@CClient@@@std@@@std@@QAE@PAUst_charquest@CClient@@AAV?$allocator@Ust_charquest@CClient@@@1@@Z 0042db00 f i Client.obj
 0001:0002cb40       ??0?$_Uninitialized_backout_al@V?$allocator@V?$basic_string@DU?$char_traits@D@std@@V?$allocator@D@2@@std@@@std@@@std@@QAE@PAV?$basic_string@DU?$char_traits@D@std@@V?$allocator@D@2@@1@AAV?$allocator@V?$basic_string@DU?$char_traits@D@std@@V?$allocator@D@2@@std@@@1@@Z 0042db40 f i Client.obj
 0001:0002cb80       ??0?$_Vector_const_iterator@V?$_Vector_val@U?$_Simple_types@Ust_charquest@CClient@@@std@@@std@@@std@@QAE@$$QAV01@@Z 0042db80 f i Client.obj
 0001:0002cbc0       ??0?$_Vector_const_iterator@V?$_Vector_val@U?$_Simple_types@Ust_charquest@CClient@@@std@@@std@@@std@@QAE@ABV01@@Z 0042dbc0 f i Client.obj
 0001:0002cc00       ??0?$_Vector_const_iterator@V?$_Vector_val@U?$_Simple_types@Ust_charquest@CClient@@@std@@@std@@@std@@QAE@PAUst_charquest@CClient@@PBU_Container_base12@1@@Z 0042dc00 f i Client.obj
 0001:0002cc50       ??0?$_Vector_iterator@V?$_Vector_val@U?$_Simple_types@Ust_charquest@CClient@@@std@@@std@@@std@@QAE@$$QAV01@@Z 0042dc50 f i Client.obj
 0001:0002cc80       ??0?$_Vector_iterator@V?$_Vector_val@U?$_Simple_types@Ust_charquest@CClient@@@std@@@std@@@std@@QAE@ABV01@@Z 0042dc80 f i Client.obj
 0001:0002ccb0       ??0?$_Vector_iterator@V?$_Vector_val@U?$_Simple_types@Ust_charquest@CClient@@@std@@@std@@@std@@QAE@PAUst_charquest@CClient@@PBU_Container_base12@1@@Z 0042dcb0 f i Client.obj
 0001:0002ccf0       ??0?$_Vector_val@U?$_Simple_types@Ust_charquest@CClient@@@std@@@std@@QAE@XZ 0042dcf0 f i Client.obj
 0001:0002cd40       ??0?$_Vector_val@U?$_Simple_types@V?$basic_string@DU?$char_traits@D@std@@V?$allocator@D@2@@std@@@std@@@std@@QAE@XZ 0042dd40 f i Client.obj
 0001:0002cd90       ??0?$allocator@Ust_charquest@CClient@@@std@@QAE@XZ 0042dd90 f i Client.obj
 0001:0002cdb0       ??0?$allocator@V?$basic_string@DU?$char_traits@D@std@@V?$allocator@D@2@@std@@@std@@QAE@XZ 0042ddb0 f i Client.obj
 0001:0002cdd0       ??0?$basic_filebuf@DU?$char_traits@D@std@@@std@@QAE@XZ 0042ddd0 f i Client.obj
 0001:0002ce20       ??0?$basic_ifstream@DU?$char_traits@D@std@@@std@@QAE@ABV?$basic_string@DU?$char_traits@D@std@@V?$allocator@D@2@@1@HH@Z 0042de20 f i Client.obj
 0001:0002cea0       ??0?$basic_ifstream@DU?$char_traits@D@std@@@std@@QAE@PBDHH@Z 0042dea0 f i Client.obj
 0001:0002cff0       ??0?$basic_ios@DU?$char_traits@D@std@@@std@@IAE@XZ 0042dff0 f i Client.obj
 0001:0002d050       ??0?$basic_istream@DU?$char_traits@D@std@@@std@@QAE@PAV?$basic_streambuf@DU?$char_traits@D@std@@@1@_N@Z 0042e050 f i Client.obj
 0001:0002d150       ??0?$basic_streambuf@DU?$char_traits@D@std@@@std@@IAE@XZ 0042e150 f i Client.obj
 0001:0002d260       ??0?$basic_string@DU?$char_traits@D@std@@V?$allocator@D@2@@std@@QAE@ID@Z 0042e260 f i Client.obj
 0001:0002d2f0       ??0?$basic_string@DU?$char_traits@D@std@@V?$allocator@D@2@@std@@QAE@XZ 0042e2f0 f i Client.obj
 0001:0002d370       ??0?$codecvt@DDU_Mbstatet@@@std@@QAE@ABV_Locinfo@1@I@Z 0042e370 f i Client.obj
 0001:0002d400       ??0?$fpos@U_Mbstatet@@@std@@QAE@U_Mbstatet@@_J@Z 0042e400 f i Client.obj
 0001:0002d460       ??0?$fpos@U_Mbstatet@@@std@@QAE@_J@Z 0042e460 f i Client.obj
 0001:0002d4b0       ??0?$num_put@DV?$ostreambuf_iterator@DU?$char_traits@D@std@@@std@@@std@@QAE@ABV_Locinfo@1@I@Z 0042e4b0 f i Client.obj
 0001:0002d540       ??0?$numpunct@D@std@@QAE@ABV_Locinfo@1@I_N@Z 0042e540 f i Client.obj
 0001:0002d5e0       ??0?$ostreambuf_iterator@DU?$char_traits@D@std@@@std@@QAE@PAV?$basic_streambuf@DU?$char_traits@D@std@@@1@@Z 0042e5e0 f i Client.obj
 0001:0002d610       ??0?$vector@Ust_charquest@CClient@@V?$allocator@Ust_charquest@CClient@@@std@@@std@@QAE@XZ 0042e610 f i Client.obj
 0001:0002d6a0       ??0?$vector@V?$basic_string@DU?$char_traits@D@std@@V?$allocator@D@2@@std@@V?$allocator@V?$basic_string@DU?$char_traits@D@std@@V?$allocator@D@2@@std@@@2@@std@@QAE@XZ 0042e6a0 f i Client.obj
 0001:0002d730       ??0CClient@@QAE@PAUHWND__@@H@Z 0042e730 f   Client.obj
 0001:0002f140       ??0_Iterator_base12@std@@QAE@ABU01@@Z 00430140 f i Client.obj
 0001:0002f190       ??0_Iterator_base12@std@@QAE@XZ 00430190 f i Client.obj
 0001:0002f1d0       ??0_Sentry_base@?$basic_istream@DU?$char_traits@D@std@@@std@@QAE@AAV12@@Z 004301d0 f i Client.obj
 0001:0002f240       ??0codecvt_base@std@@QAE@I@Z 00430240 f i Client.obj
 0001:0002f280       ??0ios_base@std@@IAE@XZ    00430280 f i Client.obj
 0001:0002f320       ??0locale@std@@QAE@XZ      00430320 f i Client.obj
 0001:0002f390       ??0sentry@?$basic_istream@DU?$char_traits@D@std@@@std@@QAE@AAV12@_N@Z 00430390 f i Client.obj
 0001:0002f420       ??0st_charquest@CClient@@QAE@XZ 00430420 f i Client.obj
 0001:0002f440       ??1?$_Tidy_guard@V?$numpunct@D@std@@@std@@QAE@XZ 00430440 f i Client.obj
 0001:0002f470       ??1?$_Uninitialized_backout_al@V?$allocator@Ust_charquest@CClient@@@std@@@std@@QAE@XZ 00430470 f i Client.obj
 0001:0002f4b0       ??1?$_Uninitialized_backout_al@V?$allocator@V?$basic_string@DU?$char_traits@D@std@@V?$allocator@D@2@@std@@@std@@@std@@QAE@XZ 004304b0 f i Client.obj
 0001:0002f4f0       ??1?$_Vector_const_iterator@V?$_Vector_val@U?$_Simple_types@Ust_charquest@CClient@@@std@@@std@@@std@@QAE@XZ 004304f0 f i Client.obj
 0001:0002f520       ??1?$_Vector_iterator@V?$_Vector_val@U?$_Simple_types@Ust_charquest@CClient@@@std@@@std@@@std@@QAE@XZ 00430520 f i Client.obj
 0001:0002f550       ??1?$basic_filebuf@DU?$char_traits@D@std@@@std@@UAE@XZ 00430550 f i Client.obj
 0001:0002f5f0       ??1?$basic_ifstream@DU?$char_traits@D@std@@@std@@UAE@XZ 004305f0 f i Client.obj
 0001:0002f660       ??1?$basic_ios@DU?$char_traits@D@std@@@std@@UAE@XZ 00430660 f i Client.obj
 0001:0002f690       ??1?$basic_istream@DU?$char_traits@D@std@@@std@@UAE@XZ 00430690 f i Client.obj
 0001:0002f6f0       ??1?$basic_streambuf@DU?$char_traits@D@std@@@std@@UAE@XZ 004306f0 f i Client.obj
 0001:0002f750       ??1?$codecvt@DDU_Mbstatet@@@std@@MAE@XZ 00430750 f i Client.obj
 0001:0002f780       ??1?$num_put@DV?$ostreambuf_iterator@DU?$char_traits@D@std@@@std@@@std@@MAE@XZ 00430780 f i Client.obj
 0001:0002f7b0       ??1?$numpunct@D@std@@MAE@XZ 004307b0 f i Client.obj
 0001:0002f830       ??1?$vector@Ust_charquest@CClient@@V?$allocator@Ust_charquest@CClient@@@std@@@std@@QAE@XZ 00430830 f i Client.obj
 0001:0002f8a0       ??1?$vector@V?$basic_string@DU?$char_traits@D@std@@V?$allocator@D@2@@std@@V?$allocator@V?$basic_string@DU?$char_traits@D@std@@V?$allocator@D@2@@std@@@2@@std@@QAE@XZ 004308a0 f i Client.obj
 0001:0002f910       ??1CClient@@UAE@XZ         00430910 f   Client.obj
 0001:0002fb90       ??1_Iterator_base12@std@@QAE@XZ 00430b90 f i Client.obj
 0001:0002fbc0       ??1_Reallocation_guard@?$vector@Ust_charquest@CClient@@V?$allocator@Ust_charquest@CClient@@@std@@@std@@QAE@XZ 00430bc0 f i Client.obj
 0001:0002fc30       ??1_Reallocation_guard@?$vector@V?$basic_string@DU?$char_traits@D@std@@V?$allocator@D@2@@std@@V?$allocator@V?$basic_string@DU?$char_traits@D@std@@V?$allocator@D@2@@std@@@2@@std@@QAE@XZ 00430c30 f i Client.obj
 0001:0002fca0       ??1_Sentry_base@?$basic_istream@DU?$char_traits@D@std@@@std@@QAE@XZ 00430ca0 f i Client.obj
 0001:0002fd30       ??1codecvt_base@std@@UAE@XZ 00430d30 f i Client.obj
 0001:0002fd60       ??1ios_base@std@@UAE@XZ    00430d60 f i Client.obj
 0001:0002fdd0       ??1sentry@?$basic_istream@DU?$char_traits@D@std@@@std@@QAE@XZ 00430dd0 f i Client.obj
 0001:0002fe00       ??1thread@std@@QAE@XZ      00430e00 f i Client.obj
 0001:0002fe40       ??4?$basic_string@DU?$char_traits@D@std@@V?$allocator@D@2@@std@@QAEAAV01@$$QAV01@@Z 00430e40 f i Client.obj
 0001:0002fed0       ??4?$ostreambuf_iterator@DU?$char_traits@D@std@@@std@@QAEAAV01@D@Z 00430ed0 f i Client.obj
 0001:0002ff30       ??4_Iterator_base12@std@@QAEAAU01@ABU01@@Z 00430f30 f i Client.obj
 0001:0002ff60       ??6?$basic_ostream@DU?$char_traits@D@std@@@std@@QAEAAV01@H@Z 00430f60 f i Client.obj
 0001:000301b0       ??A?$basic_string@DU?$char_traits@D@std@@V?$allocator@D@2@@std@@QAEAADI@Z 004311b0 f i Client.obj
 0001:00030230       ??A?$basic_string@DU?$char_traits@D@std@@V?$allocator@D@2@@std@@QBEABDI@Z 00431230 f i Client.obj
 0001:000302b0       ??A?$vector@Ust_charquest@CClient@@V?$allocator@Ust_charquest@CClient@@@std@@@std@@QAEAAUst_charquest@CClient@@I@Z 004312b0 f i Client.obj
 0001:00030350       ??B?$fpos@U_Mbstatet@@@std@@QBE_JXZ 00431350 f i Client.obj
 0001:00030390       ??Bios_base@std@@QBE_NXZ   00431390 f i Client.obj
 0001:000303e0       ??Bsentry@?$basic_istream@DU?$char_traits@D@std@@@std@@QBE_NXZ 004313e0 f i Client.obj
 0001:00030400       ??D?$ostreambuf_iterator@DU?$char_traits@D@std@@@std@@QAEAAV01@XZ 00431400 f i Client.obj
 0001:00030420       ??E?$ostreambuf_iterator@DU?$char_traits@D@std@@@std@@QAEAAV01@XZ 00431420 f i Client.obj
 0001:00030440       ??H?$_Vector_iterator@V?$_Vector_val@U?$_Simple_types@Ust_charquest@CClient@@@std@@@std@@@std@@QBE?AV01@H@Z 00431440 f i Client.obj
 0001:000304a0       ??R<lambda_15711c68e099a15a58f4d77303cb286d>@@QBE@QADQBDID@Z 004314a0 f i Client.obj
 0001:00030510       ??R<lambda_6607a66f2a10a1261ff9db96cba1015b>@@QBE@QADQBDIIID@Z 00431510 f i Client.obj
 0001:000305c0       ??R<lambda_c1b8c41cb4019640539cfd828748c4d4>@@QBE@QADQBDIID@Z 004315c0 f i Client.obj
 0001:00030680       ??Y?$_Vector_const_iterator@V?$_Vector_val@U?$_Simple_types@Ust_charquest@CClient@@@std@@@std@@@std@@QAEAAV01@H@Z 00431680 f i Client.obj
 0001:000306d0       ??Y?$_Vector_iterator@V?$_Vector_val@U?$_Simple_types@Ust_charquest@CClient@@@std@@@std@@@std@@QAEAAV01@H@Z 004316d0 f i Client.obj
 0001:00030700       ??Y?$basic_string@DU?$char_traits@D@std@@V?$allocator@D@2@@std@@QAEAAV01@D@Z 00431700 f i Client.obj
 0001:00030730       ??_D?$basic_ifstream@DU?$char_traits@D@std@@@std@@QAEXXZ 00431730 f i Client.obj
 0001:00030770       ??_D?$basic_istream@DU?$char_traits@D@std@@@std@@QAEXXZ 00431770 f i Client.obj
 0001:000307a5       ??_E?$basic_ifstream@DU?$char_traits@D@std@@@std@@$4PPPPPPPM@A@AEPAXI@Z 004317a5 f i Client.obj
 0001:000307af       ??_E?$basic_istream@DU?$char_traits@D@std@@@std@@$4PPPPPPPM@A@AEPAXI@Z 004317af f i Client.obj
 0001:000307c0       ??_E?$basic_filebuf@DU?$char_traits@D@std@@@std@@UAEPAXI@Z 004317c0 f i Client.obj
 0001:000307c0       ??_G?$basic_filebuf@DU?$char_traits@D@std@@@std@@UAEPAXI@Z 004317c0 f i Client.obj
 0001:00030810       ??_E?$basic_ifstream@DU?$char_traits@D@std@@@std@@UAEPAXI@Z 00431810 f i Client.obj
 0001:00030810       ??_G?$basic_ifstream@DU?$char_traits@D@std@@@std@@UAEPAXI@Z 00431810 f i Client.obj
 0001:00030870       ??_E?$basic_ios@DU?$char_traits@D@std@@@std@@UAEPAXI@Z 00431870 f i Client.obj
 0001:00030870       ??_G?$basic_ios@DU?$char_traits@D@std@@@std@@UAEPAXI@Z 00431870 f i Client.obj
 0001:000308c0       ??_E?$basic_istream@DU?$char_traits@D@std@@@std@@UAEPAXI@Z 004318c0 f i Client.obj
 0001:000308c0       ??_G?$basic_istream@DU?$char_traits@D@std@@@std@@UAEPAXI@Z 004318c0 f i Client.obj
 0001:00030910       ??_E?$basic_streambuf@DU?$char_traits@D@std@@@std@@UAEPAXI@Z 00431910 f i Client.obj
 0001:00030910       ??_G?$basic_streambuf@DU?$char_traits@D@std@@@std@@UAEPAXI@Z 00431910 f i Client.obj
 0001:00030960       ??_G?$basic_string@DU?$char_traits@D@std@@V?$allocator@D@2@@std@@QAEPAXI@Z 00431960 f i Client.obj
 0001:000309b0       ??_E?$codecvt@DDU_Mbstatet@@@std@@MAEPAXI@Z 004319b0 f i Client.obj
 0001:000309b0       ??_G?$codecvt@DDU_Mbstatet@@@std@@MAEPAXI@Z 004319b0 f i Client.obj
 0001:00030a10       ??_E?$num_put@DV?$ostreambuf_iterator@DU?$char_traits@D@std@@@std@@@std@@MAEPAXI@Z 00431a10 f i Client.obj
 0001:00030a10       ??_G?$num_put@DV?$ostreambuf_iterator@DU?$char_traits@D@std@@@std@@@std@@MAEPAXI@Z 00431a10 f i Client.obj
 0001:00030a70       ??_E?$numpunct@D@std@@MAEPAXI@Z 00431a70 f i Client.obj
 0001:00030a70       ??_G?$numpunct@D@std@@MAEPAXI@Z 00431a70 f i Client.obj
 0001:00030ad0       ??_ECClient@@UAEPAXI@Z     00431ad0 f i Client.obj
 0001:00030ad0       ??_GCClient@@UAEPAXI@Z     00431ad0 f i Client.obj
 0001:00030b20       ??_Ecodecvt_base@std@@UAEPAXI@Z 00431b20 f i Client.obj
 0001:00030b20       ??_Gcodecvt_base@std@@UAEPAXI@Z 00431b20 f i Client.obj
 0001:00030b80       ??_Eios_base@std@@UAEPAXI@Z 00431b80 f i Client.obj
 0001:00030b80       ??_Gios_base@std@@UAEPAXI@Z 00431b80 f i Client.obj
 0001:00030bd0       ??_Glocale@std@@QAEPAXI@Z  00431bd0 f i Client.obj
 0001:00030c30       ?AsignSocket@CClient@@QAEXPAUHWND__@@@Z 00431c30 f   Client.obj
 0001:00030d20       ?CreateItem@CClient@@QAEXPAD@Z 00431d20 f   Client.obj
 0001:000315d0       ?EnableItem@CClient@@QAEXC@Z 004325d0 f   Client.obj
 0001:00031660       ?Get@Handler@Event@@QAEPAV2@W4EventID@@@Z 00432660 f i Client.obj
 0001:00031690       ?GetDex@CClient@@QAEHXZ    00432690 f   Client.obj
 0001:000316d0       ?GetInt@CClient@@QAEHXZ    004326d0 f   Client.obj
 0001:00031710       ?GetInt@CClient@@QBEHXZ    00432710 f i Client.obj
 0001:00031740       ?GetMag@CClient@@QAEHXZ    00432740 f   Client.obj
 0001:00031780       ?GetMag@CClient@@QBEHXZ    00432780 f i Client.obj
 0001:000317b0       ?GetMaxMP@CClient@@QBEHXZ  004327b0 f   Client.obj
 0001:00031800       ?GetMaxSP@CClient@@QBEHXZ  00432800 f   Client.obj
 0001:00031840       ?GetStr@CClient@@QAEHXZ    00432840 f   Client.obj
 0001:00031880       ?GetStr@CClient@@QBEHXZ    00432880 f i Client.obj
 0001:000318b0       ?GetVit@CClient@@QAEHXZ    004328b0 f   Client.obj
 0001:000318f0       ?GetWearedItemIndex@CClient@@QAEFH@Z 004328f0 f   Client.obj
 0001:00031920       ?GetWearedItemIndex@CClient@@QAEHF@Z 00432920 f   Client.obj
 0001:000319d0       ?Is@Handler@Event@@QAE_NW4EventID@@@Z 004329d0 f i Client.obj
 0001:00031a20       ?IsInMap@CClient@@QAE_NPAD@Z 00432a20 f   Client.obj
 0001:00031aa0       ?IsInsideCh@CClient@@QAE_NXZ 00432aa0 f   Client.obj
 0001:00031b20       ?IsInsideDM@CClient@@QAE_NXZ 00432b20 f   Client.obj
 0001:00031b90       ?IsLimboMap@CClient@@QAE_NXZ 00432b90 f   Client.obj
 0001:00031d50       ?IsLocation@CClient@@QAE_NPAD@Z 00432d50 f   Client.obj
 0001:00031dd0       ?Notify@CClient@@QAEXGKKKPADKKKKKK0D@Z 00432dd0 f   Client.obj
 0001:00031ed0       ?ResetClient@CClient@@QAEXXZ 00432ed0 f   Client.obj
 0001:000333b0       ?Send@CClient@@QAEXHGKKKPADKKKKKK0@Z 004343b0 f   Client.obj
 0001:00033420       ?WearingItem@CClient@@QAE_NF@Z 00434420 f   Client.obj
 0001:00033460       ?WearingItem@CClient@@QAE_NFH@Z 00434460 f   Client.obj
 0001:000334e0       ?_Adopt@_Iterator_base12@std@@QAEXPBU_Container_base12@2@@Z 004344e0 f i Client.obj
 0001:00033510       ?_Adopt_locked@_Iterator_base12@std@@AAEXPBU_Container_base12@2@@Z 00434510 f i Client.obj
 0001:00033560       ?_Adopt_unlocked@_Iterator_base12@std@@AAEXPBU_Container_base12@2@@Z 00434560 f i Client.obj
 0001:000335e0       ?_Assign_locked@_Iterator_base12@std@@AAEXABU12@@Z 004345e0 f i Client.obj
 0001:00033630       ?_Assign_unlocked@_Iterator_base12@std@@AAEXABU12@@Z 00434630 f i Client.obj
 0001:00033690       ?_Calculate_growth@?$vector@Ust_charquest@CClient@@V?$allocator@Ust_charquest@CClient@@@std@@@std@@ABEII@Z 00434690 f i Client.obj
 0001:00033700       ?_Calculate_growth@?$vector@V?$basic_string@DU?$char_traits@D@std@@V?$allocator@D@2@@std@@V?$allocator@V?$basic_string@DU?$char_traits@D@std@@V?$allocator@D@2@@std@@@2@@std@@ABEII@Z 00434700 f i Client.obj
 0001:00033770       ?_Change_array@?$vector@Ust_charquest@CClient@@V?$allocator@Ust_charquest@CClient@@@std@@@std@@AAEXQAUst_charquest@CClient@@II@Z 00434770 f i Client.obj
 0001:00033850       ?_Change_array@?$vector@V?$basic_string@DU?$char_traits@D@std@@V?$allocator@D@2@@std@@V?$allocator@V?$basic_string@DU?$char_traits@D@std@@V?$allocator@D@2@@std@@@2@@std@@AAEXQAV?$basic_string@DU?$char_traits@D@std@@V?$allocator@D@2@@2@II@Z 00434850 f i Client.obj
 0001:00033930       ?_Check_offset@?$_String_val@U?$_Simple_types@D@std@@@std@@QBEXI@Z 00434930 f i Client.obj
 0001:00033960       ?_Clamp_suffix_size@?$_String_val@U?$_Simple_types@D@std@@@std@@QBEIII@Z 00434960 f i Client.obj
 0001:000339a0       ?_Construct_empty@?$basic_string@DU?$char_traits@D@std@@V?$allocator@D@2@@std@@AAEXXZ 004349a0 f i Client.obj
 0001:00033a30       ?_Endwrite@?$basic_filebuf@DU?$char_traits@D@std@@@std@@IAE_NXZ 00434a30 f i Client.obj
 0001:00033b90       ?_Eos@?$basic_string@DU?$char_traits@D@std@@V?$allocator@D@2@@std@@AAEXI@Z 00434b90 f i Client.obj
 0001:00033be0       ?_Equal@?$basic_string@DU?$char_traits@D@std@@V?$allocator@D@2@@std@@QBE_NQBD@Z 00434be0 f i Client.obj
 0001:00033c30       ?_Erase_noexcept@?$basic_string@DU?$char_traits@D@std@@V?$allocator@D@2@@std@@AAEAAV12@II@Z 00434c30 f i Client.obj
 0001:00033cd0       ?_Ffmt@?$num_put@DV?$ostreambuf_iterator@DU?$char_traits@D@std@@@std@@@std@@ABAPADPADDH@Z 00434cd0 f i Client.obj
 0001:00033e60       ?_Get_first@?$_Compressed_pair@V?$allocator@Ust_charquest@CClient@@@std@@V?$_Vector_val@U?$_Simple_types@Ust_charquest@CClient@@@std@@@2@$00@std@@QAEAAV?$allocator@Ust_charquest@CClient@@@2@XZ 00434e60 f i Client.obj
 0001:00033e80       ?_Get_first@?$_Compressed_pair@V?$allocator@Ust_charquest@CClient@@@std@@V?$_Vector_val@U?$_Simple_types@Ust_charquest@CClient@@@std@@@2@$00@std@@QBEABV?$allocator@Ust_charquest@CClient@@@2@XZ 00434e80 f i Client.obj
 0001:00033ea0       ?_Get_first@?$_Compressed_pair@V?$allocator@V?$basic_string@DU?$char_traits@D@std@@V?$allocator@D@2@@std@@@std@@V?$_Vector_val@U?$_Simple_types@V?$basic_string@DU?$char_traits@D@std@@V?$allocator@D@2@@std@@@std@@@2@$00@std@@QAEAAV?$allocator@V?$basic_string@DU?$char_traits@D@std@@V?$allocator@D@2@@std@@@2@XZ 00434ea0 f i Client.obj
 0001:00033ec0       ?_Get_first@?$_Compressed_pair@V?$allocator@V?$basic_string@DU?$char_traits@D@std@@V?$allocator@D@2@@std@@@std@@V?$_Vector_val@U?$_Simple_types@V?$basic_string@DU?$char_traits@D@std@@V?$allocator@D@2@@std@@@std@@@2@$00@std@@QBEABV?$allocator@V?$basic_string@DU?$char_traits@D@std@@V?$allocator@D@2@@std@@@2@XZ 00434ec0 f i Client.obj
 0001:00033ee0       ?_Getal@?$vector@Ust_charquest@CClient@@V?$allocator@Ust_charquest@CClient@@@std@@@std@@AAEAAV?$allocator@Ust_charquest@CClient@@@2@XZ 00434ee0 f i Client.obj
 0001:00033f10       ?_Getal@?$vector@Ust_charquest@CClient@@V?$allocator@Ust_charquest@CClient@@@std@@@std@@ABEABV?$allocator@Ust_charquest@CClient@@@2@XZ 00434f10 f i Client.obj
 0001:00033f40       ?_Getal@?$vector@V?$basic_string@DU?$char_traits@D@std@@V?$allocator@D@2@@std@@V?$allocator@V?$basic_string@DU?$char_traits@D@std@@V?$allocator@D@2@@std@@@2@@std@@AAEAAV?$allocator@V?$basic_string@DU?$char_traits@D@std@@V?$allocator@D@2@@std@@@2@XZ 00434f40 f i Client.obj
 0001:00033f70       ?_Getal@?$vector@V?$basic_string@DU?$char_traits@D@std@@V?$allocator@D@2@@std@@V?$allocator@V?$basic_string@DU?$char_traits@D@std@@V?$allocator@D@2@@std@@@2@@std@@ABEABV?$allocator@V?$basic_string@DU?$char_traits@D@std@@V?$allocator@D@2@@std@@@2@XZ 00434f70 f i Client.obj
 0001:00033fa0       ?_Getcat@?$codecvt@DDU_Mbstatet@@@std@@SAIPAPBVfacet@locale@2@PBV42@@Z 00434fa0 f i Client.obj
 0001:00034100       ?_Getcat@?$num_put@DV?$ostreambuf_iterator@DU?$char_traits@D@std@@@std@@@std@@SAIPAPBVfacet@locale@2@PBV42@@Z 00435100 f i Client.obj
 0001:00034260       ?_Getcat@?$numpunct@D@std@@SAIPAPBVfacet@locale@2@PBV42@@Z 00435260 f i Client.obj
 0001:000343c0       ?_Getcont@_Iterator_base12@std@@QBEPBU_Container_base12@2@XZ 004353c0 f i Client.obj
 0001:00034400       ?_Getcvt@_Locinfo@std@@QBE?AU_Cvtvec@@XZ 00435400 f i Client.obj
 0001:00034470       ?_Getfalse@_Locinfo@std@@QBEPBDXZ 00435470 f i Client.obj
 0001:00034490       ?_Getlconv@_Locinfo@std@@QBEPBUlconv@@XZ 00435490 f i Client.obj
 0001:000344b0       ?_Gettrue@_Locinfo@std@@QBEPBDXZ 004354b0 f i Client.obj
 0001:000344d0       ?_Gnavail@?$basic_streambuf@DU?$char_traits@D@std@@@std@@IBE_JXZ 004354d0 f i Client.obj
 0001:00034520       ?_Gndec@?$basic_streambuf@DU?$char_traits@D@std@@@std@@IAEPADXZ 00435520 f i Client.obj
 0001:00034580       ?_Gninc@?$basic_streambuf@DU?$char_traits@D@std@@@std@@IAEPADXZ 00435580 f i Client.obj
 0001:000345e0       ?_Gnpreinc@?$basic_streambuf@DU?$char_traits@D@std@@@std@@IAEPADXZ 004355e0 f i Client.obj
 0001:00034640       ?_Ifmt@?$num_put@DV?$ostreambuf_iterator@DU?$char_traits@D@std@@@std@@@std@@ABAPADPADPBDH@Z 00435640 f i Client.obj
 0001:000347b0       ?_Init@?$basic_filebuf@DU?$char_traits@D@std@@@std@@IAEXPAU_iobuf@@W4_Initfl@12@@Z 004357b0 f i Client.obj
 0001:000348c0       ?_Init@?$basic_streambuf@DU?$char_traits@D@std@@@std@@IAEXPAPAD0PAH001@Z 004358c0 f i Client.obj
 0001:00034920       ?_Init@?$basic_streambuf@DU?$char_traits@D@std@@@std@@IAEXXZ 00435920 f i Client.obj
 0001:000349c0       ?_Init@?$codecvt@DDU_Mbstatet@@@std@@IAEXABV_Locinfo@2@@Z 004359c0 f i Client.obj
 0001:000349e0       ?_Init@?$num_put@DV?$ostreambuf_iterator@DU?$char_traits@D@std@@@std@@@std@@IAEXABV_Locinfo@2@@Z 004359e0 f i Client.obj
 0001:00034a00       ?_Init@?$numpunct@D@std@@IAEXABV_Locinfo@2@_N@Z 00435a00 f i Client.obj
 0001:00034c10       ?_Init@ios_base@std@@IAEXXZ 00435c10 f i Client.obj
 0001:00034ce0       ?_Initcvt@?$basic_filebuf@DU?$char_traits@D@std@@@std@@IAEXABV?$codecvt@DDU_Mbstatet@@@2@@Z 00435ce0 f i Client.obj
 0001:00034d40       ?_Ipfx@?$basic_istream@DU?$char_traits@D@std@@@std@@QAE_N_N@Z 00435d40 f i Client.obj
 0001:00034fd0       ?_Iput@?$num_put@DV?$ostreambuf_iterator@DU?$char_traits@D@std@@@std@@@std@@ABA?AV?$ostreambuf_iterator@DU?$char_traits@D@std@@@2@V32@AAVios_base@2@DPADI@Z 00435fd0 f i Client.obj
 0001:00035550       ?_Is_constant_evaluated@std@@YA_NXZ 00436550 f i Client.obj
 0001:00035570       ?_Lock@?$basic_filebuf@DU?$char_traits@D@std@@@std@@UAEXXZ 00436570 f i Client.obj
 0001:000355b0       ?_Lock@?$basic_streambuf@DU?$char_traits@D@std@@@std@@UAEXXZ 004365b0 f i Client.obj
 0001:000355d0       ?_Orphan_me_locked_v3@_Iterator_base12@std@@AAEXXZ 004365d0 f i Client.obj
 0001:00035610       ?_Orphan_me_unlocked_v3@_Iterator_base12@std@@AAEXXZ 00436610 f i Client.obj
 0001:000356d0       ?_Orphan_range@?$vector@Ust_charquest@CClient@@V?$allocator@Ust_charquest@CClient@@@std@@@std@@ABEXPAUst_charquest@CClient@@0@Z 004366d0 f i Client.obj
 0001:00035700       ?_Orphan_range@?$vector@V?$basic_string@DU?$char_traits@D@std@@V?$allocator@D@2@@std@@V?$allocator@V?$basic_string@DU?$char_traits@D@std@@V?$allocator@D@2@@std@@@2@@std@@ABEXPAV?$basic_string@DU?$char_traits@D@std@@V?$allocator@D@2@@2@0@Z 00436700 f i Client.obj
 0001:00035730       ?_Orphan_range_locked@?$vector@Ust_charquest@CClient@@V?$allocator@Ust_charquest@CClient@@@std@@@std@@ABEXPAUst_charquest@CClient@@0@Z 00436730 f i Client.obj
 0001:000357c0       ?_Orphan_range_locked@?$vector@V?$basic_string@DU?$char_traits@D@std@@V?$allocator@D@2@@std@@V?$allocator@V?$basic_string@DU?$char_traits@D@std@@V?$allocator@D@2@@std@@@2@@std@@ABEXPAV?$basic_string@DU?$char_traits@D@std@@V?$allocator@D@2@@2@0@Z 004367c0 f i Client.obj
 0001:00035850       ?_Orphan_range_unlocked@?$vector@Ust_charquest@CClient@@V?$allocator@Ust_charquest@CClient@@@std@@@std@@ABEXPAUst_charquest@CClient@@0@Z 00436850 f i Client.obj
 0001:000358e0       ?_Orphan_range_unlocked@?$vector@V?$basic_string@DU?$char_traits@D@std@@V?$allocator@D@2@@std@@V?$allocator@V?$basic_string@DU?$char_traits@D@std@@V?$allocator@D@2@@std@@@2@@std@@ABEXPAV?$basic_string@DU?$char_traits@D@std@@V?$allocator@D@2@@2@0@Z 004368e0 f i Client.obj
 0001:00035970       ?_Put@?$num_put@DV?$ostreambuf_iterator@DU?$char_traits@D@std@@@std@@@std@@ABA?AV?$ostreambuf_iterator@DU?$char_traits@D@std@@@2@V32@PBDI@Z 00436970 f i Client.obj
 0001:000359f0       ?_Release@?$_Uninitialized_backout_al@V?$allocator@Ust_charquest@CClient@@@std@@@std@@QAEPAUst_charquest@CClient@@XZ 004369f0 f i Client.obj
 0001:00035a20       ?_Release@?$_Uninitialized_backout_al@V?$allocator@V?$basic_string@DU?$char_traits@D@std@@V?$allocator@D@2@@std@@@std@@@std@@QAEPAV?$basic_string@DU?$char_traits@D@std@@V?$allocator@D@2@@2@XZ 00436a20 f i Client.obj
 0001:00035a50       ?_Rep@?$num_put@DV?$ostreambuf_iterator@DU?$char_traits@D@std@@@std@@@std@@ABA?AV?$ostreambuf_iterator@DU?$char_traits@D@std@@@2@V32@DI@Z 00436a50 f i Client.obj
 0001:00035ac0       ?_Reset_back@?$basic_filebuf@DU?$char_traits@D@std@@@std@@AAEXXZ 00436ac0 f i Client.obj
 0001:00035b20       ?_Set_back@?$basic_filebuf@DU?$char_traits@D@std@@@std@@AAEXXZ 00436b20 f i Client.obj
 0001:00035ba0       ?_Tidy@?$numpunct@D@std@@AAEXXZ 00436ba0 f i Client.obj
 0001:00035bf0       ?_Tidy@?$vector@Ust_charquest@CClient@@V?$allocator@Ust_charquest@CClient@@@std@@@std@@AAEXXZ 00436bf0 f i Client.obj
 0001:00035cc0       ?_Tidy@?$vector@V?$basic_string@DU?$char_traits@D@std@@V?$allocator@D@2@@std@@V?$allocator@V?$basic_string@DU?$char_traits@D@std@@V?$allocator@D@2@@std@@@2@@std@@AAEXXZ 00436cc0 f i Client.obj
 0001:00035d90       ?_Unchecked_begin@?$vector@V?$basic_string@DU?$char_traits@D@std@@V?$allocator@D@2@@std@@V?$allocator@V?$basic_string@DU?$char_traits@D@std@@V?$allocator@D@2@@std@@@2@@std@@QAEPAV?$basic_string@DU?$char_traits@D@std@@V?$allocator@D@2@@2@XZ 00436d90 f i Client.obj
 0001:00035dc0       ?_Unchecked_end@?$vector@V?$basic_string@DU?$char_traits@D@std@@V?$allocator@D@2@@std@@V?$allocator@V?$basic_string@DU?$char_traits@D@std@@V?$allocator@D@2@@std@@@2@@std@@QAEPAV?$basic_string@DU?$char_traits@D@std@@V?$allocator@D@2@@2@XZ 00436dc0 f i Client.obj
 0001:00035df0       ?_Unlock@?$basic_filebuf@DU?$char_traits@D@std@@@std@@UAEXXZ 00436df0 f i Client.obj
 0001:00035e30       ?_Unlock@?$basic_streambuf@DU?$char_traits@D@std@@@std@@UAEXXZ 00436e30 f i Client.obj
 0001:00035e50       ?_Verify_offset@?$_Vector_const_iterator@V?$_Vector_val@U?$_Simple_types@Ust_charquest@CClient@@@std@@@std@@@std@@QBEXH@Z 00436e50 f i Client.obj
 0001:00035ff0       ?_Xlength@?$vector@Ust_charquest@CClient@@V?$allocator@Ust_charquest@CClient@@@std@@@std@@CAXXZ 00436ff0 f i Client.obj
 0001:00036020       ?_Xlength@?$vector@V?$basic_string@DU?$char_traits@D@std@@V?$allocator@D@2@@std@@V?$allocator@V?$basic_string@DU?$char_traits@D@std@@V?$allocator@D@2@@std@@@2@@std@@CAXXZ 00437020 f i Client.obj
 0001:00036050       ?_Xran@?$_String_val@U?$_Simple_types@D@std@@@std@@SAXXZ 00437050 f i Client.obj
 0001:00036080       ?active_quest@CClient@@QAEXH@Z 00437080 f   Client.obj
 0001:000361a0       ?allocate@?$allocator@Ust_charquest@CClient@@@std@@QAEPAUst_charquest@CClient@@I@Z 004371a0 f i Client.obj
 0001:000361e0       ?allocate@?$allocator@V?$basic_string@DU?$char_traits@D@std@@V?$allocator@D@2@@std@@@std@@QAEPAV?$basic_string@DU?$char_traits@D@std@@V?$allocator@D@2@@2@I@Z 004371e0 f i Client.obj
 0001:00036220       ?always_noconv@codecvt_base@std@@QBE_NXZ 00437220 f i Client.obj
 0001:00036250       ?append@?$basic_string@DU?$char_traits@D@std@@V?$allocator@D@2@@std@@QAEAAV12@ID@Z 00437250 f i Client.obj
 0001:00036310       ?assign@?$_Narrow_char_traits@DH@std@@SAPADQADID@Z 00437310 f i Client.obj
 0001:00036340       ?assign@?$basic_string@DU?$char_traits@D@std@@V?$allocator@D@2@@std@@QAEAAV12@$$QAV12@@Z 00437340 f i Client.obj
 0001:00036380       ?bCreateNewParty@CClient@@QAEHXZ 00437380 f   Client.obj
 0001:00036460       ?begin@?$vector@Ust_charquest@CClient@@V?$allocator@Ust_charquest@CClient@@@std@@@std@@QAE?AV?$_Vector_iterator@V?$_Vector_val@U?$_Simple_types@Ust_charquest@CClient@@@std@@@std@@@2@XZ 00437460 f i Client.obj
 0001:000364b0       ?bindSocket@CClient@@QAEXH@Z 004374b0 f   Client.obj
 0001:00036630       ?capacity@?$vector@Ust_charquest@CClient@@V?$allocator@Ust_charquest@CClient@@@std@@@std@@QBEIXZ 00437630 f i Client.obj
 0001:00036670       ?capacity@?$vector@V?$basic_string@DU?$char_traits@D@std@@V?$allocator@D@2@@std@@V?$allocator@V?$basic_string@DU?$char_traits@D@std@@V?$allocator@D@2@@std@@@2@@std@@QBEIXZ 00437670 f i Client.obj
 0001:000366b0       ?clear@?$vector@Ust_charquest@CClient@@V?$allocator@Ust_charquest@CClient@@@std@@@std@@QAEXXZ 004376b0 f i Client.obj
 0001:00036740       ?clear@ios_base@std@@QAEXH@Z 00437740 f i Client.obj
 0001:00036770       ?close@?$basic_filebuf@DU?$char_traits@D@std@@@std@@QAEPAV12@XZ 00437770 f i Client.obj
 0001:00036810       ?compare@?$_Narrow_char_traits@DH@std@@SAHQBD0I@Z 00437810 f i Client.obj
 0001:00036840       ?data@?$basic_string@DU?$char_traits@D@std@@V?$allocator@D@2@@std@@QBEPBDXZ 00437840 f i Client.obj
 0001:00036870       ?deallocate@?$allocator@Ust_charquest@CClient@@@std@@QAEXQAUst_charquest@CClient@@I@Z 00437870 f i Client.obj
 0001:00036900       ?deallocate@?$allocator@V?$basic_string@DU?$char_traits@D@std@@V?$allocator@D@2@@std@@@std@@QAEXQAV?$basic_string@DU?$char_traits@D@std@@V?$allocator@D@2@@2@I@Z 00437900 f i Client.obj
 0001:00036990       ?decimal_point@?$numpunct@D@std@@QBEDXZ 00437990 f i Client.obj
 0001:00036a10       ?detach@thread@std@@QAEXXZ 00437a10 f i Client.obj
 0001:00036a90       ?do_always_noconv@?$codecvt@DDU_Mbstatet@@@std@@MBE_NXZ 00437a90 f i Client.obj
 0001:00036ab0       ?do_always_noconv@codecvt_base@std@@MBE_NXZ 00437ab0 f i Client.obj
 0001:00036ad0       ?do_decimal_point@?$numpunct@D@std@@MBEDXZ 00437ad0 f i Client.obj
 0001:00036af0       ?do_encoding@codecvt_base@std@@MBEHXZ 00437af0 f i Client.obj
 0001:00036b10       ?do_falsename@?$numpunct@D@std@@MBE?AV?$basic_string@DU?$char_traits@D@std@@V?$allocator@D@2@@2@XZ 00437b10 f i Client.obj
 0001:00036b60       ?do_grouping@?$numpunct@D@std@@MBE?AV?$basic_string@DU?$char_traits@D@std@@V?$allocator@D@2@@2@XZ 00437b60 f i Client.obj
 0001:00036bb0       ?do_in@?$codecvt@DDU_Mbstatet@@@std@@MBEHAAU_Mbstatet@@PBD1AAPBDPAD3AAPAD@Z 00437bb0 f i Client.obj
 0001:00036bf0       ?do_length@?$codecvt@DDU_Mbstatet@@@std@@MBEHAAU_Mbstatet@@PBD1I@Z 00437bf0 f i Client.obj
 0001:00036c50       ?do_max_length@codecvt_base@std@@MBEHXZ 00437c50 f i Client.obj
 0001:00036c70       ?do_out@?$codecvt@DDU_Mbstatet@@@std@@MBEHAAU_Mbstatet@@PBD1AAPBDPAD3AAPAD@Z 00437c70 f i Client.obj
 0001:00036cb0       ?do_put@?$num_put@DV?$ostreambuf_iterator@DU?$char_traits@D@std@@@std@@@std@@MBE?AV?$ostreambuf_iterator@DU?$char_traits@D@std@@@2@V32@AAVios_base@2@DJ@Z 00437cb0 f i Client.obj
 0001:00036d60       ?do_put@?$num_put@DV?$ostreambuf_iterator@DU?$char_traits@D@std@@@std@@@std@@MBE?AV?$ostreambuf_iterator@DU?$char_traits@D@std@@@2@V32@AAVios_base@2@DK@Z 00437d60 f i Client.obj
 0001:00036e10       ?do_put@?$num_put@DV?$ostreambuf_iterator@DU?$char_traits@D@std@@@std@@@std@@MBE?AV?$ostreambuf_iterator@DU?$char_traits@D@std@@@2@V32@AAVios_base@2@DN@Z 00437e10 f i Client.obj
 0001:00037110       ?do_put@?$num_put@DV?$ostreambuf_iterator@DU?$char_traits@D@std@@@std@@@std@@MBE?AV?$ostreambuf_iterator@DU?$char_traits@D@std@@@2@V32@AAVios_base@2@DO@Z 00438110 f i Client.obj
 0001:00037410       ?do_put@?$num_put@DV?$ostreambuf_iterator@DU?$char_traits@D@std@@@std@@@std@@MBE?AV?$ostreambuf_iterator@DU?$char_traits@D@std@@@2@V32@AAVios_base@2@DPBX@Z 00438410 f i Client.obj
 0001:000374a0       ?do_put@?$num_put@DV?$ostreambuf_iterator@DU?$char_traits@D@std@@@std@@@std@@MBE?AV?$ostreambuf_iterator@DU?$char_traits@D@std@@@2@V32@AAVios_base@2@D_J@Z 004384a0 f i Client.obj
 0001:00037550       ?do_put@?$num_put@DV?$ostreambuf_iterator@DU?$char_traits@D@std@@@std@@@std@@MBE?AV?$ostreambuf_iterator@DU?$char_traits@D@std@@@2@V32@AAVios_base@2@D_K@Z 00438550 f i Client.obj
 0001:00037600       ?do_put@?$num_put@DV?$ostreambuf_iterator@DU?$char_traits@D@std@@@std@@@std@@MBE?AV?$ostreambuf_iterator@DU?$char_traits@D@std@@@2@V32@AAVios_base@2@D_N@Z 00438600 f i Client.obj
 0001:00037910       ?do_thousands_sep@?$numpunct@D@std@@MBEDXZ 00438910 f i Client.obj
 0001:00037930       ?do_truename@?$numpunct@D@std@@MBE?AV?$basic_string@DU?$char_traits@D@std@@V?$allocator@D@2@@2@XZ 00438930 f i Client.obj
 0001:00037980       ?do_unshift@?$codecvt@DDU_Mbstatet@@@std@@MBEHAAU_Mbstatet@@PAD1AAPAD@Z 00438980 f i Client.obj
 0001:000379b0       ?eback@?$basic_streambuf@DU?$char_traits@D@std@@@std@@IBEPADXZ 004389b0 f i Client.obj
 0001:000379e0       ?egptr@?$basic_streambuf@DU?$char_traits@D@std@@@std@@IBEPADXZ 004389e0 f i Client.obj
 0001:00037a10       ?epptr@?$basic_streambuf@DU?$char_traits@D@std@@@std@@IBEPADXZ 00438a10 f i Client.obj
 0001:00037a40       ?eq@?$_Narrow_char_traits@DH@std@@SA_NDD@Z 00438a40 f i Client.obj
 0001:00037a80       ?erase@?$basic_string@DU?$char_traits@D@std@@V?$allocator@D@2@@std@@QAEAAV12@I@Z 00438a80 f i Client.obj
 0001:00037ac0       ?erase@?$basic_string@DU?$char_traits@D@std@@V?$allocator@D@2@@std@@QAEAAV12@II@Z 00438ac0 f i Client.obj
 0001:00037b00       ?erase@?$vector@Ust_charquest@CClient@@V?$allocator@Ust_charquest@CClient@@@std@@@std@@QAE?AV?$_Vector_iterator@V?$_Vector_val@U?$_Simple_types@Ust_charquest@CClient@@@std@@@std@@@2@V?$_Vector_const_iterator@V?$_Vector_val@U?$_Simple_types@Ust_charquest@CClient@@@std@@@std@@@2@@Z 00438b00 f i Client.obj
 0001:00037ca0       ?fail@ios_base@std@@QBE_NXZ 00438ca0 f i Client.obj
 0001:00037ce0       ?failed@?$ostreambuf_iterator@DU?$char_traits@D@std@@@std@@QBE_NXZ 00438ce0 f i Client.obj
 0001:00037d00       ?falsename@?$numpunct@D@std@@QBE?AV?$basic_string@DU?$char_traits@D@std@@V?$allocator@D@2@@2@XZ 00438d00 f i Client.obj
 0001:00037d50       ?find@?$_Narrow_char_traits@DH@std@@SAPBDQBDIABD@Z 00438d50 f i Client.obj
 0001:00037d80       ?find@?$basic_string@DU?$char_traits@D@std@@V?$allocator@D@2@@std@@QBEIABV12@I@Z 00438d80 f i Client.obj
 0001:00037de0       ?fpclassify@@YAHN@Z        00438de0 f i Client.obj
 0001:00037e10       ?fpclassify@@YAHO@Z        00438e10 f i Client.obj
 0001:00037e40       ?front@?$basic_string@DU?$char_traits@D@std@@V?$allocator@D@2@@std@@QAEAADXZ 00438e40 f i Client.obj
 0001:00037ec0       ?gbump@?$basic_streambuf@DU?$char_traits@D@std@@@std@@IAEXH@Z 00438ec0 f i Client.obj
 0001:00037f30       ?getRebirthStats@CClient@@QAEHXZ 00438f30 f   Client.obj
 0001:000381d0       ?getloc@?$basic_streambuf@DU?$char_traits@D@std@@@std@@QBE?AVlocale@2@XZ 004391d0 f i Client.obj
 0001:000385f0       ?gptr@?$basic_streambuf@DU?$char_traits@D@std@@@std@@IBEPADXZ 004395f0 f i Client.obj
 0001:00038620       ?grouping@?$numpunct@D@std@@QBE?AV?$basic_string@DU?$char_traits@D@std@@V?$allocator@D@2@@2@XZ 00439620 f i Client.obj
 0001:00038670       ?imbue@?$basic_filebuf@DU?$char_traits@D@std@@@std@@MAEXABVlocale@2@@Z 00439670 f i Client.obj
 0001:000386b0       ?imbue@?$basic_streambuf@DU?$char_traits@D@std@@@std@@MAEXABVlocale@2@@Z 004396b0 f i Client.obj
 0001:000386d0       ?in@?$codecvt@DDU_Mbstatet@@@std@@QBEHAAU_Mbstatet@@PBD1AAPBDPAD3AAPAD@Z 004396d0 f i Client.obj
 0001:00038720       ?init@?$basic_ios@DU?$char_traits@D@std@@@std@@IAEXPAV?$basic_streambuf@DU?$char_traits@D@std@@@2@_N@Z 00439720 f i Client.obj
 0001:000387b0       ?initializeWinsock@CClient@@QAEXXZ 004397b0 f   Client.obj
 0001:00038870       ?insert@?$basic_string@DU?$char_traits@D@std@@V?$allocator@D@2@@std@@QAEAAV12@IID@Z 00439870 f i Client.obj
 0001:00038950       ?is@?$ctype@D@std@@QBE_NFD@Z 00439950 f i Client.obj
 0001:00038a00       ?joinable@thread@std@@QBE_NXZ 00439a00 f i Client.obj
 0001:00038a40       ?length@?$basic_string@DU?$char_traits@D@std@@V?$allocator@D@2@@std@@QBEIXZ 00439a40 f i Client.obj
 0001:00038a60       ?max_size@?$_Default_allocator_traits@V?$allocator@Ust_charquest@CClient@@@std@@@std@@SAIABV?$allocator@Ust_charquest@CClient@@@2@@Z 00439a60 f i Client.obj
 0001:00038a80       ?max_size@?$_Default_allocator_traits@V?$allocator@V?$basic_string@DU?$char_traits@D@std@@V?$allocator@D@2@@std@@@std@@@std@@SAIABV?$allocator@V?$basic_string@DU?$char_traits@D@std@@V?$allocator@D@2@@std@@@2@@Z 00439a80 f i Client.obj
 0001:00038aa0       ?max_size@?$vector@Ust_charquest@CClient@@V?$allocator@Ust_charquest@CClient@@@std@@@std@@QBEIXZ 00439aa0 f i Client.obj
 0001:00038b00       ?max_size@?$vector@V?$basic_string@DU?$char_traits@D@std@@V?$allocator@D@2@@std@@V?$allocator@V?$basic_string@DU?$char_traits@D@std@@V?$allocator@D@2@@std@@@2@@std@@QBEIXZ 00439b00 f i Client.obj
 0001:00038b60       ?not_eof@?$_Narrow_char_traits@DH@std@@SAHH@Z 00439b60 f i Client.obj
 0001:00038bc0       ?open@?$basic_filebuf@DU?$char_traits@D@std@@@std@@QAEPAV12@PBDHH@Z 00439bc0 f i Client.obj
 0001:00038cb0       ?out@?$codecvt@DDU_Mbstatet@@@std@@QBEHAAU_Mbstatet@@PBD1AAPBDPAD3AAPAD@Z 00439cb0 f i Client.obj
 0001:00038d00       ?overflow@?$basic_filebuf@DU?$char_traits@D@std@@@std@@MAEHH@Z 00439d00 f i Client.obj
 0001:00038f80       ?overflow@?$basic_streambuf@DU?$char_traits@D@std@@@std@@MAEHH@Z 00439f80 f i Client.obj
 0001:00038fa0       ?pause_quest@CClient@@QAEXH@Z 00439fa0 f   Client.obj
 0001:00039050       ?pbackfail@?$basic_filebuf@DU?$char_traits@D@std@@@std@@MAEHH@Z 0043a050 f i Client.obj
 0001:000391f0       ?pbackfail@?$basic_streambuf@DU?$char_traits@D@std@@@std@@MAEHH@Z 0043a1f0 f i Client.obj
 0001:00039210       ?pbump@?$basic_streambuf@DU?$char_traits@D@std@@@std@@IAEXH@Z 0043a210 f i Client.obj
 0001:00039260       ?pptr@?$basic_streambuf@DU?$char_traits@D@std@@@std@@IBEPADXZ 0043a260 f i Client.obj
 0001:00039290       ?precision@ios_base@std@@QBE_JXZ 0043a290 f i Client.obj
 0001:000392c0       ?push_back@?$basic_string@DU?$char_traits@D@std@@V?$allocator@D@2@@std@@QAEXD@Z 0043a2c0 f i Client.obj
 0001:00039370       ?push_back@?$vector@Ust_charquest@CClient@@V?$allocator@Ust_charquest@CClient@@@std@@@std@@QAEXABUst_charquest@CClient@@@Z 0043a370 f i Client.obj
 0001:000393a0       ?push_back@?$vector@V?$basic_string@DU?$char_traits@D@std@@V?$allocator@D@2@@std@@V?$allocator@V?$basic_string@DU?$char_traits@D@std@@V?$allocator@D@2@@std@@@2@@std@@QAEX$$QAV?$basic_string@DU?$char_traits@D@std@@V?$allocator@D@2@@2@@Z 0043a3a0 f i Client.obj
 0001:000393e0       ?put@?$num_put@DV?$ostreambuf_iterator@DU?$char_traits@D@std@@@std@@@std@@QBE?AV?$ostreambuf_iterator@DU?$char_traits@D@std@@@2@V32@AAVios_base@2@DJ@Z 0043a3e0 f i Client.obj
 0001:00039430       ?read_quest_data@CClient@@QAEXXZ 0043a430 f   Client.obj
 0001:000399d0       ?receiveMessageFromClient@CClient@@QAEXPADH@Z 0043a9d0 f   Client.obj
 0001:00039b20       ?remove_quest@CClient@@QAEXH@Z 0043ab20 f   Client.obj
 0001:00039be0       ?req_active_quest@CClient@@QAEXPAD@Z 0043abe0 f   Client.obj
 0001:00039c50       ?req_dismiss_quest@CClient@@QAEXPAD@Z 0043ac50 f   Client.obj
 0001:00039d00       ?req_pause_quest@CClient@@QAEXPAD@Z 0043ad00 f   Client.obj
 0001:00039d90       ?req_reward_quest@CClient@@QAEXPAD@Z 0043ad90 f   Client.obj
 0001:00039e10       ?resize@?$basic_string@DU?$char_traits@D@std@@V?$allocator@D@2@@std@@QAEXID@Z 0043ae10 f i Client.obj
 0001:00039e70       ?reward_quest@CClient@@QAEXHF@Z 0043ae70 f   Client.obj
 0001:0003a490       ?rfind@?$basic_string@DU?$char_traits@D@std@@V?$allocator@D@2@@std@@QBEIABV12@I@Z 0043b490 f i Client.obj
 0001:0003a4f0       ?run@CClient@@QAEXXZ       0043b4f0 f   Client.obj
 0001:0003a660       ?save_quest_data@CClient@@QAEXXZ 0043b660 f   Client.obj
 0001:0003ad90       ?sbumpc@?$basic_streambuf@DU?$char_traits@D@std@@@std@@QAEHXZ 0043bd90 f i Client.obj
 0001:0003ae10       ?seekoff@?$basic_filebuf@DU?$char_traits@D@std@@@std@@MAE?AV?$fpos@U_Mbstatet@@@2@_JHH@Z 0043be10 f i Client.obj
 0001:0003af30       ?seekoff@?$basic_streambuf@DU?$char_traits@D@std@@@std@@MAE?AV?$fpos@U_Mbstatet@@@2@_JHH@Z 0043bf30 f i Client.obj
 0001:0003af60       ?seekpos@?$basic_filebuf@DU?$char_traits@D@std@@@std@@MAE?AV?$fpos@U_Mbstatet@@@2@V32@H@Z 0043bf60 f i Client.obj
 0001:0003b030       ?seekpos@?$basic_streambuf@DU?$char_traits@D@std@@@std@@MAE?AV?$fpos@U_Mbstatet@@@2@V32@H@Z 0043c030 f i Client.obj
 0001:0003b060       ?send_charquest_data@CClient@@QAEXXZ 0043c060 f   Client.obj
 0001:0003b450       ?send_charquest_data_byindex@CClient@@QAEXH@Z 0043c450 f   Client.obj
 0001:0003b5f0       ?setbuf@?$basic_filebuf@DU?$char_traits@D@std@@@std@@MAEPAV?$basic_streambuf@DU?$char_traits@D@std@@@2@PAD_J@Z 0043c5f0 f i Client.obj
 0001:0003b690       ?setbuf@?$basic_streambuf@DU?$char_traits@D@std@@@std@@MAEPAV12@PAD_J@Z 0043c690 f i Client.obj
 0001:0003b6b0       ?setg@?$basic_streambuf@DU?$char_traits@D@std@@@std@@IAEXPAD00@Z 0043c6b0 f i Client.obj
 0001:0003b700       ?setp@?$basic_streambuf@DU?$char_traits@D@std@@@std@@IAEXPAD0@Z 0043c700 f i Client.obj
 0001:0003b750       ?sgetc@?$basic_streambuf@DU?$char_traits@D@std@@@std@@QAEHXZ 0043c750 f i Client.obj
 0001:0003b7d0       ?showmanyc@?$basic_streambuf@DU?$char_traits@D@std@@@std@@MAE_JXZ 0043c7d0 f i Client.obj
 0001:0003b7f0       ?size@?$basic_string@DU?$char_traits@D@std@@V?$allocator@D@2@@std@@QBEIXZ 0043c7f0 f i Client.obj
 0001:0003b810       ?size@?$vector@Ust_charquest@CClient@@V?$allocator@Ust_charquest@CClient@@@std@@@std@@QBEIXZ 0043c810 f i Client.obj
 0001:0003b850       ?snextc@?$basic_streambuf@DU?$char_traits@D@std@@@std@@QAEHXZ 0043c850 f i Client.obj
 0001:0003b900       ?startServer@CClient@@QAEXH@Z 0043c900 f   Client.obj
 0001:0003ba00       ?state@?$fpos@U_Mbstatet@@@std@@QBE?AU_Mbstatet@@XZ 0043ca00 f i Client.obj
 0001:0003ba40       ?stop@CClient@@QAEXXZ      0043ca40 f   Client.obj
 0001:0003bab0       ?stoull@std@@YA_KABV?$basic_string@DU?$char_traits@D@std@@V?$allocator@D@2@@1@PAIH@Z 0043cab0 f i Client.obj
 0001:0003bb60       ?sync@?$basic_filebuf@DU?$char_traits@D@std@@@std@@MAEHXZ 0043cb60 f i Client.obj
 0001:0003bbe0       ?sync@?$basic_streambuf@DU?$char_traits@D@std@@@std@@MAEHXZ 0043cbe0 f i Client.obj
 0001:0003bc00       ?thousands_sep@?$numpunct@D@std@@QBEDXZ 0043cc00 f i Client.obj
 0001:0003bc30       ?to_char_type@?$_Narrow_char_traits@DH@std@@SADH@Z 0043cc30 f i Client.obj
 0001:0003bc50       ?to_string@std@@YA?AV?$basic_string@DU?$char_traits@D@std@@V?$allocator@D@2@@1@H@Z 0043cc50 f i Client.obj
 0001:0003bd70       ?truename@?$numpunct@D@std@@QBE?AV?$basic_string@DU?$char_traits@D@std@@V?$allocator@D@2@@2@XZ 0043cd70 f i Client.obj
 0001:0003bdc0       ?uflow@?$basic_filebuf@DU?$char_traits@D@std@@@std@@MAEHXZ 0043cdc0 f i Client.obj
 0001:0003c120       ?uflow@?$basic_streambuf@DU?$char_traits@D@std@@@std@@MAEHXZ 0043d120 f i Client.obj
 0001:0003c1a0       ?underflow@?$basic_filebuf@DU?$char_traits@D@std@@@std@@MAEHXZ 0043d1a0 f i Client.obj
 0001:0003c260       ?underflow@?$basic_streambuf@DU?$char_traits@D@std@@@std@@MAEHXZ 0043d260 f i Client.obj
 0001:0003c280       ?unshift@?$codecvt@DDU_Mbstatet@@@std@@QBEHAAU_Mbstatet@@PAD1AAPAD@Z 0043d280 f i Client.obj
 0001:0003c2c0       ?widen@?$ctype@D@std@@QBEPBDPBD0PAD@Z 0043d2c0 f i Client.obj
 0001:0003c300       ?xsgetn@?$basic_filebuf@DU?$char_traits@D@std@@@std@@MAE_JPAD_J@Z 0043d300 f i Client.obj
 0001:0003c4c0       ?xsgetn@?$basic_streambuf@DU?$char_traits@D@std@@@std@@MAE_JPAD_J@Z 0043d4c0 f i Client.obj
 0001:0003c630       ?xsputn@?$basic_filebuf@DU?$char_traits@D@std@@@std@@MAE_JPBD_J@Z 0043d630 f i Client.obj
 0001:0003c790       ?xsputn@?$basic_streambuf@DU?$char_traits@D@std@@@std@@MAE_JPBD_J@Z 0043d790 f i Client.obj
 0001:0003c8f0       __vsprintf_s_l             0043d8f0 f i Client.obj
 0001:0003c960       _fabsl                     0043d960 f i Client.obj
 0001:0003c990       _frexpl                    0043d990 f i Client.obj
 0001:0003c9d0       _sprintf_s                 0043d9d0 f i Client.obj
 0001:0003ca20       ??$?0$$V@?$_Compressed_pair@V?$allocator@Ust_fighters@CDeathmatch@@@std@@V?$_Vector_val@U?$_Simple_types@Ust_fighters@CDeathmatch@@@std@@@2@$00@std@@QAE@U_Zero_then_variadic_args_t@1@@Z 0043da20 f i deathmatch.obj
 0001:0003ca60       ??$?0AAPAUst_fighters@CDeathmatch@@AAPAU01@$0A@@?$pair@PAUst_fighters@CDeathmatch@@PAU12@@std@@QAE@AAPAUst_fighters@CDeathmatch@@0@Z 0043da60 f i deathmatch.obj
 0001:0003cab0       ??$?0Ust_fighters@CDeathmatch@@@?$allocator@U_Container_proxy@std@@@std@@QAE@ABV?$allocator@Ust_fighters@CDeathmatch@@@1@@Z 0043dab0 f i deathmatch.obj
 0001:0003cbd0       ??$_Adl_verify_range@V?$_Vector_iterator@V?$_Vector_val@U?$_Simple_types@Ust_fighters@CDeathmatch@@@std@@@std@@@std@@V12@@std@@YAXABV?$_Vector_iterator@V?$_Vector_val@U?$_Simple_types@Ust_fighters@CDeathmatch@@@std@@@std@@@0@0@Z 0043dbd0 f i deathmatch.obj
 0001:0003cc00       ??$_Allocate_at_least_helper@V?$allocator@Ust_fighters@CDeathmatch@@@std@@@std@@YAPAUst_fighters@CDeathmatch@@AAV?$allocator@Ust_fighters@CDeathmatch@@@0@AAI@Z 0043dc00 f i deathmatch.obj
 0001:0003cc30       ??$_Construct_in_place@Ust_fighters@CDeathmatch@@ABU12@@std@@YAXAAUst_fighters@CDeathmatch@@ABU12@@Z 0043dc30 f i deathmatch.obj
 0001:0003cca0       ??$_Copy_backward_memmove@PAUst_fighters@CDeathmatch@@PAU12@@std@@YAPAUst_fighters@CDeathmatch@@PAU12@00@Z 0043dca0 f i deathmatch.obj
 0001:0003cd40       ??$_Copy_memmove@PAUst_fighters@CDeathmatch@@PAU12@@std@@YAPAUst_fighters@CDeathmatch@@PAU12@00@Z 0043dd40 f i deathmatch.obj
 0001:0003cde0       ??$_Copy_memmove_tail@PAUst_fighters@CDeathmatch@@@std@@YAPAUst_fighters@CDeathmatch@@QBDQAU12@II@Z 0043dde0 f i deathmatch.obj
 0001:0003cf70       ??$_Destroy_range@V?$allocator@Ust_fighters@CDeathmatch@@@std@@@std@@YAXPAUst_fighters@CDeathmatch@@QAU12@AAV?$allocator@Ust_fighters@CDeathmatch@@@0@@Z 0043df70 f i deathmatch.obj
 0001:0003cf90       ??$_Emplace_back@Ust_fighters@CDeathmatch@@@?$_Uninitialized_backout_al@V?$allocator@Ust_fighters@CDeathmatch@@@std@@@std@@QAEX$$QAUst_fighters@CDeathmatch@@@Z 0043df90 f i deathmatch.obj
 0001:0003d000       ??$_Emplace_back_with_unused_capacity@ABUst_fighters@CDeathmatch@@@?$vector@Ust_fighters@CDeathmatch@@V?$allocator@Ust_fighters@CDeathmatch@@@std@@@std@@AAEAAUst_fighters@CDeathmatch@@ABU23@@Z 0043e000 f i deathmatch.obj
 0001:0003d090       ??$_Emplace_one_at_back@ABUst_fighters@CDeathmatch@@@?$vector@Ust_fighters@CDeathmatch@@V?$allocator@Ust_fighters@CDeathmatch@@@std@@@std@@AAEAAUst_fighters@CDeathmatch@@ABU23@@Z 0043e090 f i deathmatch.obj
 0001:0003d110       ??$_Emplace_reallocate@ABUst_fighters@CDeathmatch@@@?$vector@Ust_fighters@CDeathmatch@@V?$allocator@Ust_fighters@CDeathmatch@@@std@@@std@@AAEPAUst_fighters@CDeathmatch@@QAU23@ABU23@@Z 0043e110 f i deathmatch.obj
 0001:0003d370       ??$_Get_size_of_n@$0BE@@std@@YAII@Z 0043e370 f i deathmatch.obj
 0001:0003d3b0       ??$_Get_unwrapped@ABQAUst_fighters@CDeathmatch@@@std@@YA?A_TABQAUst_fighters@CDeathmatch@@@Z 0043e3b0 f i deathmatch.obj
 0001:0003d3d0       ??$_Get_unwrapped@ABV?$_Vector_iterator@V?$_Vector_val@U?$_Simple_types@Ust_fighters@CDeathmatch@@@std@@@std@@@std@@@std@@YA?A_TABV?$_Vector_iterator@V?$_Vector_val@U?$_Simple_types@Ust_fighters@CDeathmatch@@@std@@@std@@@0@@Z 0043e3d0 f i deathmatch.obj
 0001:0003d880       ??$_Move_backward_unchecked@PAUst_fighters@CDeathmatch@@PAU12@@std@@YAPAUst_fighters@CDeathmatch@@PAU12@00@Z 0043e880 f i deathmatch.obj
 0001:0003d910       ??$_Move_unchecked@PAUst_fighters@CDeathmatch@@PAU12@@std@@YAPAUst_fighters@CDeathmatch@@PAU12@00@Z 0043e910 f i deathmatch.obj
 0001:0003d9a0       ??$_Next_iter@PAUst_fighters@CDeathmatch@@@std@@YAPAUst_fighters@CDeathmatch@@PAU12@@Z 0043e9a0 f i deathmatch.obj
 0001:0003e1c0       ??$_Prev_iter@PAUst_fighters@CDeathmatch@@@std@@YAPAUst_fighters@CDeathmatch@@PAU12@@Z 0043f1c0 f i deathmatch.obj
 0001:0003e490       ??$_To_address@PAUst_fighters@CDeathmatch@@@std@@YA?A_PABQAUst_fighters@CDeathmatch@@@Z 0043f490 f i deathmatch.obj
 0001:0003e4b0       ??$_Unfancy@Ust_fighters@CDeathmatch@@@std@@YAPAUst_fighters@CDeathmatch@@PAU12@@Z 0043f4b0 f i deathmatch.obj
 0001:0003e4d0       ??$_Unfancy_maybe_null@Ust_fighters@CDeathmatch@@@std@@YAPAUst_fighters@CDeathmatch@@PAU12@@Z 0043f4d0 f i deathmatch.obj
 0001:0003e4f0       ??$_Uninitialized_move@PAUst_fighters@CDeathmatch@@V?$allocator@Ust_fighters@CDeathmatch@@@std@@@std@@YAPAUst_fighters@CDeathmatch@@QAU12@0PAU12@AAV?$allocator@Ust_fighters@CDeathmatch@@@0@@Z 0043f4f0 f i deathmatch.obj
 0001:0003e620       ??$addressof@Ust_fighters@CDeathmatch@@@std@@YAPAUst_fighters@CDeathmatch@@AAU12@@Z 0043f620 f i deathmatch.obj
 0001:0003e640       ??$addressof@V?$_Vector_val@U?$_Simple_types@Ust_fighters@CDeathmatch@@@std@@@std@@@std@@YAPAV?$_Vector_val@U?$_Simple_types@Ust_fighters@CDeathmatch@@@std@@@0@AAV10@@Z 0043f640 f i deathmatch.obj
 0001:0003e660       ??$construct@Ust_fighters@CDeathmatch@@ABU12@@?$_Default_allocator_traits@V?$allocator@Ust_fighters@CDeathmatch@@@std@@@std@@SAXAAV?$allocator@Ust_fighters@CDeathmatch@@@1@QAUst_fighters@CDeathmatch@@ABU34@@Z 0043f660 f i deathmatch.obj
 0001:0003e6c0       ??$construct@Ust_fighters@CDeathmatch@@U12@@?$_Default_allocator_traits@V?$allocator@Ust_fighters@CDeathmatch@@@std@@@std@@SAXAAV?$allocator@Ust_fighters@CDeathmatch@@@1@QAUst_fighters@CDeathmatch@@$$QAU34@@Z 0043f6c0 f i deathmatch.obj
 0001:0003e720       ??$destroy@Ust_fighters@CDeathmatch@@@?$_Default_allocator_traits@V?$allocator@Ust_fighters@CDeathmatch@@@std@@@std@@SAXAAV?$allocator@Ust_fighters@CDeathmatch@@@1@QAUst_fighters@CDeathmatch@@@Z 0043f720 f i deathmatch.obj
 0001:0003e740       ??$forward@AAPAUst_fighters@CDeathmatch@@@std@@YAAAPAUst_fighters@CDeathmatch@@AAPAU12@@Z 0043f740 f i deathmatch.obj
 0001:0003e760       ??$forward@ABUst_fighters@CDeathmatch@@@std@@YAABUst_fighters@CDeathmatch@@ABU12@@Z 0043f760 f i deathmatch.obj
 0001:0003e780       ??$forward@Ust_fighters@CDeathmatch@@@std@@YA$$QAUst_fighters@CDeathmatch@@AAU12@@Z 0043f780 f i deathmatch.obj
 0001:0003e7a0       ??$move@AAPAUst_fighters@CDeathmatch@@@std@@YA$$QAPAUst_fighters@CDeathmatch@@AAPAU12@@Z 0043f7a0 f i deathmatch.obj
 0001:0003e7c0       ??$move@AAUst_fighters@CDeathmatch@@@std@@YA$$QAUst_fighters@CDeathmatch@@AAU12@@Z 0043f7c0 f i deathmatch.obj
 0001:0003e8d0       ??$swap@Ust_fighters@CDeathmatch@@$0A@@std@@YAXAAUst_fighters@CDeathmatch@@0@Z 0043f8d0 f i deathmatch.obj
 0001:0003e9a0       ??0?$_Uninitialized_backout_al@V?$allocator@Ust_fighters@CDeathmatch@@@std@@@std@@QAE@PAUst_fighters@CDeathmatch@@AAV?$allocator@Ust_fighters@CDeathmatch@@@1@@Z 0043f9a0 f i deathmatch.obj
 0001:0003e9e0       ??0?$_Vector_const_iterator@V?$_Vector_val@U?$_Simple_types@Ust_fighters@CDeathmatch@@@std@@@std@@@std@@QAE@$$QAV01@@Z 0043f9e0 f i deathmatch.obj
 0001:0003ea20       ??0?$_Vector_const_iterator@V?$_Vector_val@U?$_Simple_types@Ust_fighters@CDeathmatch@@@std@@@std@@@std@@QAE@ABV01@@Z 0043fa20 f i deathmatch.obj
 0001:0003ea60       ??0?$_Vector_const_iterator@V?$_Vector_val@U?$_Simple_types@Ust_fighters@CDeathmatch@@@std@@@std@@@std@@QAE@PAUst_fighters@CDeathmatch@@PBU_Container_base12@1@@Z 0043fa60 f i deathmatch.obj
 0001:0003eab0       ??0?$_Vector_iterator@V?$_Vector_val@U?$_Simple_types@Ust_fighters@CDeathmatch@@@std@@@std@@@std@@QAE@$$QAV01@@Z 0043fab0 f i deathmatch.obj
 0001:0003eae0       ??0?$_Vector_iterator@V?$_Vector_val@U?$_Simple_types@Ust_fighters@CDeathmatch@@@std@@@std@@@std@@QAE@ABV01@@Z 0043fae0 f i deathmatch.obj
 0001:0003eb10       ??0?$_Vector_iterator@V?$_Vector_val@U?$_Simple_types@Ust_fighters@CDeathmatch@@@std@@@std@@@std@@QAE@PAUst_fighters@CDeathmatch@@PBU_Container_base12@1@@Z 0043fb10 f i deathmatch.obj
 0001:0003eb50       ??0?$_Vector_val@U?$_Simple_types@Ust_fighters@CDeathmatch@@@std@@@std@@QAE@XZ 0043fb50 f i deathmatch.obj
 0001:0003eba0       ??0?$allocator@Ust_fighters@CDeathmatch@@@std@@QAE@XZ 0043fba0 f i deathmatch.obj
 0001:0003ebc0       ??0?$vector@Ust_fighters@CDeathmatch@@V?$allocator@Ust_fighters@CDeathmatch@@@std@@@std@@QAE@XZ 0043fbc0 f i deathmatch.obj
 0001:0003ec50       ??0CDeathmatch@@QAE@XZ     0043fc50 f   deathmatch.obj
 0001:0003ec90       ??0st_fighters@CDeathmatch@@QAE@XZ 0043fc90 f i deathmatch.obj
 0001:0003ecb0       ??1?$_Uninitialized_backout_al@V?$allocator@Ust_fighters@CDeathmatch@@@std@@@std@@QAE@XZ 0043fcb0 f i deathmatch.obj
 0001:0003ecf0       ??1?$_Vector_const_iterator@V?$_Vector_val@U?$_Simple_types@Ust_fighters@CDeathmatch@@@std@@@std@@@std@@QAE@XZ 0043fcf0 f i deathmatch.obj
 0001:0003ed20       ??1?$_Vector_iterator@V?$_Vector_val@U?$_Simple_types@Ust_fighters@CDeathmatch@@@std@@@std@@@std@@QAE@XZ 0043fd20 f i deathmatch.obj
 0001:0003ed50       ??1?$vector@Ust_fighters@CDeathmatch@@V?$allocator@Ust_fighters@CDeathmatch@@@std@@@std@@QAE@XZ 0043fd50 f i deathmatch.obj
 0001:0003edc0       ??1CDeathmatch@@QAE@XZ     0043fdc0 f   deathmatch.obj
 0001:0003edf0       ??1_Reallocation_guard@?$vector@Ust_fighters@CDeathmatch@@V?$allocator@Ust_fighters@CDeathmatch@@@std@@@std@@QAE@XZ 0043fdf0 f i deathmatch.obj
 0001:0003ee60       ??A?$vector@Ust_fighters@CDeathmatch@@V?$allocator@Ust_fighters@CDeathmatch@@@std@@@std@@QAEAAUst_fighters@CDeathmatch@@I@Z 0043fe60 f i deathmatch.obj
 0001:0003ef00       ??H?$_Vector_iterator@V?$_Vector_val@U?$_Simple_types@Ust_fighters@CDeathmatch@@@std@@@std@@@std@@QBE?AV01@H@Z 0043ff00 f i deathmatch.obj
 0001:0003efa0       ??Y?$_Vector_const_iterator@V?$_Vector_val@U?$_Simple_types@Ust_fighters@CDeathmatch@@@std@@@std@@@std@@QAEAAV01@H@Z 0043ffa0 f i deathmatch.obj
 0001:0003eff0       ??Y?$_Vector_iterator@V?$_Vector_val@U?$_Simple_types@Ust_fighters@CDeathmatch@@@std@@@std@@@std@@QAEAAV01@H@Z 0043fff0 f i deathmatch.obj
 0001:0003f020       ?End@CDeathmatch@@QAEXH@Z  00440020 f   deathmatch.obj
 0001:0003f170       ?WinnerReward@CDeathmatch@@QAEXH@Z 00440170 f   deathmatch.obj
 0001:0003f230       ?_Calculate_growth@?$vector@Ust_fighters@CDeathmatch@@V?$allocator@Ust_fighters@CDeathmatch@@@std@@@std@@ABEII@Z 00440230 f i deathmatch.obj
 0001:0003f2a0       ?_Change_array@?$vector@Ust_fighters@CDeathmatch@@V?$allocator@Ust_fighters@CDeathmatch@@@std@@@std@@AAEXQAUst_fighters@CDeathmatch@@II@Z 004402a0 f i deathmatch.obj
 0001:0003f380       ?_Get_first@?$_Compressed_pair@V?$allocator@Ust_fighters@CDeathmatch@@@std@@V?$_Vector_val@U?$_Simple_types@Ust_fighters@CDeathmatch@@@std@@@2@$00@std@@QAEAAV?$allocator@Ust_fighters@CDeathmatch@@@2@XZ 00440380 f i deathmatch.obj
 0001:0003f3a0       ?_Get_first@?$_Compressed_pair@V?$allocator@Ust_fighters@CDeathmatch@@@std@@V?$_Vector_val@U?$_Simple_types@Ust_fighters@CDeathmatch@@@std@@@2@$00@std@@QBEABV?$allocator@Ust_fighters@CDeathmatch@@@2@XZ 004403a0 f i deathmatch.obj
 0001:0003f3c0       ?_Getal@?$vector@Ust_fighters@CDeathmatch@@V?$allocator@Ust_fighters@CDeathmatch@@@std@@@std@@AAEAAV?$allocator@Ust_fighters@CDeathmatch@@@2@XZ 004403c0 f i deathmatch.obj
 0001:0003f3f0       ?_Getal@?$vector@Ust_fighters@CDeathmatch@@V?$allocator@Ust_fighters@CDeathmatch@@@std@@@std@@ABEABV?$allocator@Ust_fighters@CDeathmatch@@@2@XZ 004403f0 f i deathmatch.obj
 0001:0003f420       ?_Orphan_range@?$vector@Ust_fighters@CDeathmatch@@V?$allocator@Ust_fighters@CDeathmatch@@@std@@@std@@ABEXPAUst_fighters@CDeathmatch@@0@Z 00440420 f i deathmatch.obj
 0001:0003f450       ?_Orphan_range_locked@?$vector@Ust_fighters@CDeathmatch@@V?$allocator@Ust_fighters@CDeathmatch@@@std@@@std@@ABEXPAUst_fighters@CDeathmatch@@0@Z 00440450 f i deathmatch.obj
 0001:0003f4e0       ?_Orphan_range_unlocked@?$vector@Ust_fighters@CDeathmatch@@V?$allocator@Ust_fighters@CDeathmatch@@@std@@@std@@ABEXPAUst_fighters@CDeathmatch@@0@Z 004404e0 f i deathmatch.obj
 0001:0003f570       ?_Release@?$_Uninitialized_backout_al@V?$allocator@Ust_fighters@CDeathmatch@@@std@@@std@@QAEPAUst_fighters@CDeathmatch@@XZ 00440570 f i deathmatch.obj
 0001:0003f5a0       ?_Tidy@?$vector@Ust_fighters@CDeathmatch@@V?$allocator@Ust_fighters@CDeathmatch@@@std@@@std@@AAEXXZ 004405a0 f i deathmatch.obj
 0001:0003f670       ?_Unwrapped@?$_Vector_iterator@V?$_Vector_val@U?$_Simple_types@Ust_fighters@CDeathmatch@@@std@@@std@@@std@@QBEPAUst_fighters@CDeathmatch@@XZ 00440670 f i deathmatch.obj
 0001:0003f6a0       ?_Verify_offset@?$_Vector_const_iterator@V?$_Vector_val@U?$_Simple_types@Ust_fighters@CDeathmatch@@@std@@@std@@@std@@QBEXH@Z 004406a0 f i deathmatch.obj
 0001:0003f840       ?_Verify_range@std@@YAXABV?$_Vector_const_iterator@V?$_Vector_val@U?$_Simple_types@Ust_fighters@CDeathmatch@@@std@@@std@@@1@0@Z 00440840 f i deathmatch.obj
 0001:0003f910       ?_Xlength@?$vector@Ust_fighters@CDeathmatch@@V?$allocator@Ust_fighters@CDeathmatch@@@std@@@std@@CAXXZ 00440910 f i deathmatch.obj
 0001:0003f940       ?add_deaths@CDeathmatch@@QAEXPADH@Z 00440940 f   deathmatch.obj
 0001:0003f9e0       ?add_fighter@CDeathmatch@@QAEXPAD@Z 004409e0 f   deathmatch.obj
 0001:0003fa90       ?add_kills@CDeathmatch@@QAEXPADH@Z 00440a90 f   deathmatch.obj
 0001:0003fb30       ?allocate@?$allocator@Ust_fighters@CDeathmatch@@@std@@QAEPAUst_fighters@CDeathmatch@@I@Z 00440b30 f i deathmatch.obj
 0001:0003fb70       ?begin@?$vector@Ust_fighters@CDeathmatch@@V?$allocator@Ust_fighters@CDeathmatch@@@std@@@std@@QAE?AV?$_Vector_iterator@V?$_Vector_val@U?$_Simple_types@Ust_fighters@CDeathmatch@@@std@@@std@@@2@XZ 00440b70 f i deathmatch.obj
 0001:0003fbc0       ?capacity@?$vector@Ust_fighters@CDeathmatch@@V?$allocator@Ust_fighters@CDeathmatch@@@std@@@std@@QBEIXZ 00440bc0 f i deathmatch.obj
 0001:0003fc00       ?clear@?$vector@Ust_fighters@CDeathmatch@@V?$allocator@Ust_fighters@CDeathmatch@@@std@@@std@@QAEXXZ 00440c00 f i deathmatch.obj
 0001:0003fc90       ?deallocate@?$allocator@Ust_fighters@CDeathmatch@@@std@@QAEXQAUst_fighters@CDeathmatch@@I@Z 00440c90 f i deathmatch.obj
 0001:0003fd20       ?disable@CDeathmatch@@QAEXXZ 00440d20 f   deathmatch.obj
 0001:0003fd70       ?enable@CDeathmatch@@QAEXXZ 00440d70 f   deathmatch.obj
 0001:0003fdf0       ?end@?$vector@Ust_fighters@CDeathmatch@@V?$allocator@Ust_fighters@CDeathmatch@@@std@@@std@@QAE?AV?$_Vector_iterator@V?$_Vector_val@U?$_Simple_types@Ust_fighters@CDeathmatch@@@std@@@std@@@2@XZ 00440df0 f i deathmatch.obj
 0001:0003fe40       ?erase@?$vector@Ust_fighters@CDeathmatch@@V?$allocator@Ust_fighters@CDeathmatch@@@std@@@std@@QAE?AV?$_Vector_iterator@V?$_Vector_val@U?$_Simple_types@Ust_fighters@CDeathmatch@@@std@@@std@@@2@V?$_Vector_const_iterator@V?$_Vector_val@U?$_Simple_types@Ust_fighters@CDeathmatch@@@std@@@std@@@2@@Z 00440e40 f i deathmatch.obj
 0001:0003ffd0       ?get_deaths@CDeathmatch@@QAEHPAD@Z 00440fd0 f   deathmatch.obj
 0001:00040050       ?get_kills@CDeathmatch@@QAEHPAD@Z 00441050 f   deathmatch.obj
 0001:000400d0       ?getranking@CDeathmatch@@QAEXH@Z 004410d0 f   deathmatch.obj
 0001:00040130       ?is_fighter@CDeathmatch@@QAE_NPAD@Z 00441130 f   deathmatch.obj
 0001:000401a0       ?join_event@CDeathmatch@@QAEXH@Z 004411a0 f   deathmatch.obj
 0001:00040320       ?kill_enemy@CDeathmatch@@QAEXHH@Z 00441320 f   deathmatch.obj
 0001:00040430       ?max_size@?$_Default_allocator_traits@V?$allocator@Ust_fighters@CDeathmatch@@@std@@@std@@SAIABV?$allocator@Ust_fighters@CDeathmatch@@@2@@Z 00441430 f i deathmatch.obj
 0001:00040450       ?max_size@?$vector@Ust_fighters@CDeathmatch@@V?$allocator@Ust_fighters@CDeathmatch@@@std@@@std@@QBEIXZ 00441450 f i deathmatch.obj
 0001:000404b0       ?not_revive@CDeathmatch@@QAEXH@Z 004414b0 f   deathmatch.obj
 0001:00040710       ?notify@CDeathmatch@@QAEXHH@Z 00441710 f   deathmatch.obj
 0001:00040860       ?notify_points@CDeathmatch@@QAEXHHH@Z 00441860 f   deathmatch.obj
 0001:00040970       ?push_back@?$vector@Ust_fighters@CDeathmatch@@V?$allocator@Ust_fighters@CDeathmatch@@@std@@@std@@QAEXABUst_fighters@CDeathmatch@@@Z 00441970 f i deathmatch.obj
 0001:000409a0       ?remove_fighter@CDeathmatch@@QAEXPAD@Z 004419a0 f   deathmatch.obj
 0001:00040a80       ?request_revive@CDeathmatch@@QAEXH@Z 00441a80 f   deathmatch.obj
 0001:00040b00       ?revive@CDeathmatch@@QAEXH@Z 00441b00 f   deathmatch.obj
 0001:00040d30       ?send_top10@CDeathmatch@@QAEXH@Z 00441d30 f   deathmatch.obj
 0001:00040f50       ?size@?$vector@Ust_fighters@CDeathmatch@@V?$allocator@Ust_fighters@CDeathmatch@@@std@@@std@@QBEIXZ 00441f50 f i deathmatch.obj
 0001:00040f90       ?sort_fighters@CDeathmatch@@QAEXXZ 00441f90 f   deathmatch.obj
 0001:00040ff0       ??0CDelayEvent@@QAE@XZ     00441ff0 f   DelayEvent.obj
 0001:00041020       ??1CDelayEvent@@UAE@XZ     00442020 f   DelayEvent.obj
 0001:00041050       ??_ECDelayEvent@@UAEPAXI@Z 00442050 f i DelayEvent.obj
 0001:00041050       ??_GCDelayEvent@@UAEPAXI@Z 00442050 f i DelayEvent.obj
 0001:000410a0       ??0CDynamicObject@@QAE@FDFDFFKKH@Z 004420a0 f   DynamicObject.obj
 0001:00041150       ??1CDynamicObject@@UAE@XZ  00442150 f   DynamicObject.obj
 0001:00041180       ??_ECDynamicObject@@UAEPAXI@Z 00442180 f i DynamicObject.obj
 0001:00041180       ??_GCDynamicObject@@UAEPAXI@Z 00442180 f i DynamicObject.obj
 0001:000411d0       ??0?$basic_ofstream@DU?$char_traits@D@std@@@std@@QAE@XZ 004421d0 f i Event.obj
 0001:000412e0       ??0?$basic_ostream@DU?$char_traits@D@std@@@std@@QAE@PAV?$basic_streambuf@DU?$char_traits@D@std@@@1@_N@Z 004422e0 f i Event.obj
 0001:000413d0       ??0Event@@QAE@XZ           004423d0 f   Event.obj
 0001:00041400       ??1?$basic_ofstream@DU?$char_traits@D@std@@@std@@UAE@XZ 00442400 f i Event.obj
 0001:00041470       ??1?$basic_ostream@DU?$char_traits@D@std@@@std@@UAE@XZ 00442470 f i Event.obj
 0001:000414d0       ??1Event@@UAE@XZ           004424d0 f   Event.obj
 0001:00041500       ??_D?$basic_ofstream@DU?$char_traits@D@std@@@std@@QAEXXZ 00442500 f i Event.obj
 0001:00041540       ??_D?$basic_ostream@DU?$char_traits@D@std@@@std@@QAEXXZ 00442540 f i Event.obj
 0001:00041575       ??_E?$basic_ofstream@DU?$char_traits@D@std@@@std@@$4PPPPPPPM@A@AEPAXI@Z 00442575 f i Event.obj
 0001:0004157f       ??_E?$basic_ostream@DU?$char_traits@D@std@@@std@@$4PPPPPPPM@A@AEPAXI@Z 0044257f f i Event.obj
 0001:00041590       ??_E?$basic_ofstream@DU?$char_traits@D@std@@@std@@UAEPAXI@Z 00442590 f i Event.obj
 0001:00041590       ??_G?$basic_ofstream@DU?$char_traits@D@std@@@std@@UAEPAXI@Z 00442590 f i Event.obj
 0001:000415f0       ??_E?$basic_ostream@DU?$char_traits@D@std@@@std@@UAEPAXI@Z 004425f0 f i Event.obj
 0001:000415f0       ??_G?$basic_ostream@DU?$char_traits@D@std@@@std@@UAEPAXI@Z 004425f0 f i Event.obj
 0001:00041640       ??_EEvent@@UAEPAXI@Z       00442640 f i Event.obj
 0001:00041640       ??_GEvent@@UAEPAXI@Z       00442640 f i Event.obj
 0001:00041690       ?Activate@Handler@Event@@QAEXW4EventID@@@Z 00442690 f   Event.obj
 0001:000418e0       ?Deactivate@Handler@Event@@QAEXW4EventID@@@Z 004428e0 f   Event.obj
 0001:00041a80       ?JoinEvent@Event@@UAEXH@Z  00442a80 f i Event.obj
 0001:00041aa0       ?LoginNotify@Handler@Event@@QAEXH@Z 00442aa0 f   Event.obj
 0001:00041b50       ?NotifyStatus@Handler@Event@@QAEXW4EventID@@@Z 00442b50 f   Event.obj
 0001:00041c10       ?Teleport@Handler@Event@@QAEXW4EventID@@PAVCClient@@@Z 00442c10 f   Event.obj
 0001:00041cb0       ?Toggle@Handler@Event@@QAEXW4EventID@@@Z 00442cb0 f   Event.obj
 0001:00041d10       ??0CFish@@QAE@DFFFPAVCItem@@H@Z 00442d10 f   Fish.obj
 0001:00041db0       ??1CFish@@UAE@XZ           00442db0 f   Fish.obj
 0001:00041e20       ??_ECFish@@UAEPAXI@Z       00442e20 f i Fish.obj
 0001:00041e20       ??_GCFish@@UAEPAXI@Z       00442e20 f i Fish.obj
 0001:00041e70       ??$?0$$V@?$_Compressed_pair@V?$allocator@U?$_Tree_node@U?$pair@$$CBFH@std@@PAX@std@@@std@@V?$_Tree_val@U?$_Tree_simple_types@U?$pair@$$CBFH@std@@@std@@@2@$00@std@@QAE@U_Zero_then_variadic_args_t@1@@Z 00442e70 f i MapServer.obj
 0001:00041ef0       ??$?0$$V@?$_Compressed_pair@V?$allocator@URebirthLevelSettings@CMapServer@@@std@@V?$_Vector_val@U?$_Simple_types@URebirthLevelSettings@CMapServer@@@std@@@2@$00@std@@QAE@U_Zero_then_variadic_args_t@1@@Z 00442ef0 f i MapServer.obj
 0001:00041f30       ??$?0$$V@?$_Compressed_pair@V?$allocator@Ust_objects@CMapServer@@@std@@V?$_Vector_val@U?$_Simple_types@Ust_objects@CMapServer@@@std@@@2@$00@std@@QAE@U_Zero_then_variadic_args_t@1@@Z 00442f30 f i MapServer.obj
 0001:00041fb0       ??$?0ABF$$Z$$V@?$pair@$$CBFH@std@@QAE@Upiecewise_construct_t@1@V?$tuple@ABF@1@V?$tuple@$$V@1@@Z 00442fb0 f i MapServer.obj
 0001:00042000       ??$?0ABF$0A@@?$tuple@ABF@std@@QAE@ABF@Z 00443000 f i MapServer.obj
 0001:00042070       ??$?0ABF@?$_Tuple_val@ABF@std@@QAE@ABF@Z 00443070 f i MapServer.obj
 0001:000420b0       ??$?0ABQAU?$_Tree_node@U?$pair@$$CBFH@std@@PAX@std@@_N$0A@@?$pair@PAU?$_Tree_node@U?$pair@$$CBFH@std@@PAX@std@@_N@std@@QAE@ABQAU?$_Tree_node@U?$pair@$$CBFH@std@@PAX@1@$$QA_N@Z 004430b0 f i MapServer.obj
 0001:00042100       ??$?0ABU?$less@F@std@@U_Zero_then_variadic_args_t@1@@?$_Compressed_pair@U?$less@F@std@@V?$_Compressed_pair@V?$allocator@U?$_Tree_node@U?$pair@$$CBFH@std@@PAX@std@@@std@@V?$_Tree_val@U?$_Tree_simple_types@U?$pair@$$CBFH@std@@@std@@@2@$00@2@$00@std@@QAE@U_One_then_variadic_args_t@1@ABU?$less@F@1@$$QAU_Zero_then_variadic_args_t@1@@Z 00443100 f i MapServer.obj
 0001:00042150       ??$?0ABUpiecewise_construct_t@std@@V?$tuple@ABF@1@V?$tuple@$$V@1@@?$_Tree_temp_node@V?$allocator@U?$_Tree_node@U?$pair@$$CBFH@std@@PAX@std@@@std@@@std@@QAE@AAV?$allocator@U?$_Tree_node@U?$pair@$$CBFH@std@@PAX@std@@@1@PAU?$_Tree_node@U?$pair@$$CBFH@std@@PAX@1@ABUpiecewise_construct_t@1@$$QAV?$tuple@ABF@1@$$QAV?$tuple@$$V@1@@Z 00443150 f i MapServer.obj
 0001:00042290       ??$?0H$0A@@?$duration@_JU?$ratio@$00$00@std@@@chrono@std@@QAE@ABH@Z 00443290 f i MapServer.obj
 0001:000422c0       ??$?0PAU?$_Tree_node@U?$pair@$$CBFH@std@@PAX@std@@_N$0A@@?$pair@PAU?$_Tree_node@U?$pair@$$CBFH@std@@PAX@std@@_N@std@@QAE@$$QAPAU?$_Tree_node@U?$pair@$$CBFH@std@@PAX@1@$$QA_N@Z 004432c0 f i MapServer.obj
 0001:00042310       ??$?0U?$_Tree_node@U?$pair@$$CBFH@std@@PAX@std@@@?$allocator@U_Container_proxy@std@@@std@@QAE@ABV?$allocator@U?$_Tree_node@U?$pair@$$CBFH@std@@PAX@std@@@1@@Z 00443310 f i MapServer.obj
 0001:00042440       ??$?0URebirthLevelSettings@CMapServer@@@?$allocator@U_Container_proxy@std@@@std@@QAE@ABV?$allocator@URebirthLevelSettings@CMapServer@@@1@@Z 00443440 f i MapServer.obj
 0001:00042460       ??$?0U_Exact_args_t@std@@ABF$$V$0A@@?$tuple@ABF@std@@QAE@U_Exact_args_t@1@ABF@Z 00443460 f i MapServer.obj
 0001:00042500       ??$?0Ust_objects@CMapServer@@@?$allocator@U_Container_proxy@std@@@std@@QAE@ABV?$allocator@Ust_objects@CMapServer@@@1@@Z 00443500 f i MapServer.obj
 0001:00042620       ??$?0V?$tuple@ABF@std@@V?$tuple@$$V@1@$0A@$$Z$S@?$pair@$$CBFH@std@@AAE@AAV?$tuple@ABF@1@AAV?$tuple@$$V@1@U?$integer_sequence@I$0A@@1@U?$integer_sequence@I$S@1@@Z 00443620 f i MapServer.obj
 0001:00042670       ??$?0_J$0A@@?$duration@_JU?$ratio@$00$0DLJKMKAA@@std@@@chrono@std@@QAE@AB_J@Z 00443670 f i MapServer.obj
 0001:000426b0       ??$?0_J$0A@@?$duration@_JU?$ratio@$00$0DOI@@std@@@chrono@std@@QAE@AB_J@Z 004436b0 f i MapServer.obj
 0001:000426f0       ??$?0_JU?$ratio@$00$00@std@@$0A@@?$duration@_JU?$ratio@$00$0DLJKMKAA@@std@@@chrono@std@@QAE@ABV?$duration@_JU?$ratio@$00$00@std@@@12@@Z 004436f0 f i MapServer.obj
 0001:00042740       ??$?0_JU?$ratio@$00$0DOI@@std@@$0A@@?$duration@_JU?$ratio@$00$0DLJKMKAA@@std@@@chrono@std@@QAE@ABV?$duration@_JU?$ratio@$00$0DOI@@std@@@12@@Z 00443740 f i MapServer.obj
 0001:00042790       ??$?6DU?$char_traits@D@std@@V?$allocator@D@1@@std@@YAAAV?$basic_ostream@DU?$char_traits@D@std@@@0@AAV10@ABV?$basic_string@DU?$char_traits@D@std@@V?$allocator@D@2@@0@@Z 00443790 f i MapServer.obj
 0001:000427d0       ??$?8DU?$char_traits@D@std@@V?$allocator@D@1@@std@@YA_NQBDABV?$basic_string@DU?$char_traits@D@std@@V?$allocator@D@2@@0@@Z 004437d0 f i MapServer.obj
 0001:00042800       ??$?9DU?$char_traits@D@std@@V?$allocator@D@1@@std@@YA_NABV?$basic_string@DU?$char_traits@D@std@@V?$allocator@D@2@@0@QBD@Z 00443800 f i MapServer.obj
 0001:00042850       ??$?GUsteady_clock@chrono@std@@V?$duration@_JU?$ratio@$00$0DLJKMKAA@@std@@@12@V312@@chrono@std@@YA?AV?$duration@_JU?$ratio@$00$0DLJKMKAA@@std@@@01@ABV?$time_point@Usteady_clock@chrono@std@@V?$duration@_JU?$ratio@$00$0DLJKMKAA@@std@@@23@@01@0@Z 00443850 f i MapServer.obj
 0001:000428a0       ??$?GUsteady_clock@chrono@std@@V?$duration@_JU?$ratio@$00$0DLJKMKAA@@std@@@12@_JU?$ratio@$00$00@2@@chrono@std@@YA?AV?$time_point@Usteady_clock@chrono@std@@V?$duration@_JU?$ratio@$00$0DLJKMKAA@@std@@@23@@01@ABV201@ABV?$duration@_JU?$ratio@$00$00@std@@@01@@Z 004438a0 f i MapServer.obj
 0001:000428f0       ??$?G_JU?$ratio@$00$0DLJKMKAA@@std@@_JU01@@chrono@std@@YA?AV?$duration@_JU?$ratio@$00$0DLJKMKAA@@std@@@01@ABV201@0@Z 004438f0 f i MapServer.obj
 0001:00042960       ??$?G_JU?$ratio@$00$0DLJKMKAA@@std@@_JU?$ratio@$00$00@1@@chrono@std@@YA?AV?$duration@_JU?$ratio@$00$0DLJKMKAA@@std@@@01@ABV201@ABV?$duration@_JU?$ratio@$00$00@std@@@01@@Z 00443960 f i MapServer.obj
 0001:000429d0       ??$?HDU?$char_traits@D@std@@V?$allocator@D@1@@std@@YA?AV?$basic_string@DU?$char_traits@D@std@@V?$allocator@D@2@@0@$$QAV10@QBD@Z 004439d0 f i MapServer.obj
 0001:00042a30       ??$?MUsteady_clock@chrono@std@@V?$duration@_JU?$ratio@$00$0DLJKMKAA@@std@@@12@V312@@chrono@std@@YA_NABV?$time_point@Usteady_clock@chrono@std@@V?$duration@_JU?$ratio@$00$0DLJKMKAA@@std@@@23@@01@0@Z 00443a30 f i MapServer.obj
 0001:00042a70       ??$?M_JU?$ratio@$00$00@std@@_JU01@@chrono@std@@YA_NABV?$duration@_JU?$ratio@$00$00@std@@@01@0@Z 00443a70 f i MapServer.obj
 0001:00042b00       ??$?M_JU?$ratio@$00$0DLJKMKAA@@std@@_JU01@@chrono@std@@YA_NABV?$duration@_JU?$ratio@$00$0DLJKMKAA@@std@@@01@0@Z 00443b00 f i MapServer.obj
 0001:00042b90       ??$?M_JU?$ratio@$00$0DOI@@std@@_JU?$ratio@$00$0DLJKMKAA@@1@@chrono@std@@YA_NABV?$duration@_JU?$ratio@$00$0DOI@@std@@@01@ABV?$duration@_JU?$ratio@$00$0DLJKMKAA@@std@@@01@@Z 00443b90 f i MapServer.obj
 0001:00042c20       ??$?NUsteady_clock@chrono@std@@V?$duration@_JU?$ratio@$00$0DLJKMKAA@@std@@@12@V312@@chrono@std@@YA_NABV?$time_point@Usteady_clock@chrono@std@@V?$duration@_JU?$ratio@$00$0DLJKMKAA@@std@@@23@@01@0@Z 00443c20 f i MapServer.obj
 0001:00042c70       ??$?O_JU?$ratio@$00$00@std@@_JU01@@chrono@std@@YA_NABV?$duration@_JU?$ratio@$00$00@std@@@01@0@Z 00443c70 f i MapServer.obj
 0001:00042ca0       ??$?O_JU?$ratio@$00$0DLJKMKAA@@std@@_JU?$ratio@$00$0DOI@@1@@chrono@std@@YA_NABV?$duration@_JU?$ratio@$00$0DLJKMKAA@@std@@@01@ABV?$duration@_JU?$ratio@$00$0DOI@@std@@@01@@Z 00443ca0 f i MapServer.obj
 0001:00042fc0       ??$_Allocate_at_least_helper@V?$allocator@Ust_objects@CMapServer@@@std@@@std@@YAPAUst_objects@CMapServer@@AAV?$allocator@Ust_objects@CMapServer@@@0@AAI@Z 00443fc0 f i MapServer.obj
 0001:00042ff0       ??$_Buyheadnode@V?$allocator@U?$_Tree_node@U?$pair@$$CBFH@std@@PAX@std@@@std@@@?$_Tree_node@U?$pair@$$CBFH@std@@PAX@std@@SAPAU01@AAV?$allocator@U?$_Tree_node@U?$pair@$$CBFH@std@@PAX@std@@@1@@Z 00443ff0 f i MapServer.obj
 0001:00043070       ??$_Clamped_rel_time_ms_count@V?$duration@_JU?$ratio@$00$0DLJKMKAA@@std@@@chrono@std@@@std@@YA?AU_Clamped_rel_time_ms_count_result@0@ABV?$duration@_JU?$ratio@$00$0DLJKMKAA@@std@@@chrono@0@@Z 00444070 f i MapServer.obj
 0001:00043100       ??$_Construct_in_place@PAU?$_Tree_node@U?$pair@$$CBFH@std@@PAX@std@@AAPAU12@@std@@YAXAAPAU?$_Tree_node@U?$pair@$$CBFH@std@@PAX@0@0@Z 00444100 f i MapServer.obj
 0001:00043150       ??$_Construct_in_place@PAU?$_Tree_node@U?$pair@$$CBFH@std@@PAX@std@@ABQAU12@@std@@YAXAAPAU?$_Tree_node@U?$pair@$$CBFH@std@@PAX@0@ABQAU10@@Z 00444150 f i MapServer.obj
 0001:00043200       ??$_Construct_in_place@Ust_objects@CMapServer@@ABU12@@std@@YAXAAUst_objects@CMapServer@@ABU12@@Z 00444200 f i MapServer.obj
 0001:000432f0       ??$_Copy_memmove@PAUst_objects@CMapServer@@PAU12@@std@@YAPAUst_objects@CMapServer@@PAU12@00@Z 004442f0 f i MapServer.obj
 0001:000433e0       ??$_Copy_memmove_tail@PAUst_objects@CMapServer@@@std@@YAPAUst_objects@CMapServer@@QBDQAU12@II@Z 004443e0 f i MapServer.obj
 0001:00043430       ??$_Debug_lt_pred@ABU?$less@F@std@@ABFABF@std@@YA_NABU?$less@F@0@ABF1@Z 00444430 f i MapServer.obj
 0001:000434d0       ??$_Destroy_in_place@PAU?$_Tree_node@U?$pair@$$CBFH@std@@PAX@std@@@std@@YAXAAPAU?$_Tree_node@U?$pair@$$CBFH@std@@PAX@0@@Z 004444d0 f i MapServer.obj
 0001:00043510       ??$_Destroy_range@V?$allocator@URebirthLevelSettings@CMapServer@@@std@@@std@@YAXPAURebirthLevelSettings@CMapServer@@QAU12@AAV?$allocator@URebirthLevelSettings@CMapServer@@@0@@Z 00444510 f i MapServer.obj
 0001:00043530       ??$_Destroy_range@V?$allocator@Ust_objects@CMapServer@@@std@@@std@@YAXPAUst_objects@CMapServer@@QAU12@AAV?$allocator@Ust_objects@CMapServer@@@0@@Z 00444530 f i MapServer.obj
 0001:000435c0       ??$_Emplace_back@Ust_objects@CMapServer@@@?$_Uninitialized_backout_al@V?$allocator@Ust_objects@CMapServer@@@std@@@std@@QAEX$$QAUst_objects@CMapServer@@@Z 004445c0 f i MapServer.obj
 0001:00043630       ??$_Emplace_back_with_unused_capacity@ABUst_objects@CMapServer@@@?$vector@Ust_objects@CMapServer@@V?$allocator@Ust_objects@CMapServer@@@std@@@std@@AAEAAUst_objects@CMapServer@@ABU23@@Z 00444630 f i MapServer.obj
 0001:00043750       ??$_Emplace_one_at_back@ABUst_objects@CMapServer@@@?$vector@Ust_objects@CMapServer@@V?$allocator@Ust_objects@CMapServer@@@std@@@std@@AAEAAUst_objects@CMapServer@@ABU23@@Z 00444750 f i MapServer.obj
 0001:00043850       ??$_Emplace_reallocate@ABUst_objects@CMapServer@@@?$vector@Ust_objects@CMapServer@@V?$allocator@Ust_objects@CMapServer@@@std@@@std@@AAEPAUst_objects@CMapServer@@QAU23@ABU23@@Z 00444850 f i MapServer.obj
 0001:00043d10       ??$_Erase_head@V?$allocator@U?$_Tree_node@U?$pair@$$CBFH@std@@PAX@std@@@std@@@?$_Tree_val@U?$_Tree_simple_types@U?$pair@$$CBFH@std@@@std@@@std@@QAEXAAV?$allocator@U?$_Tree_node@U?$pair@$$CBFH@std@@PAX@std@@@1@@Z 00444d10 f i MapServer.obj
 0001:00043d70       ??$_Erase_tree@V?$allocator@U?$_Tree_node@U?$pair@$$CBFH@std@@PAX@std@@@std@@@?$_Tree_val@U?$_Tree_simple_types@U?$pair@$$CBFH@std@@@std@@@std@@QAEXAAV?$allocator@U?$_Tree_node@U?$pair@$$CBFH@std@@PAX@std@@@1@PAU?$_Tree_node@U?$pair@$$CBFH@std@@PAX@1@@Z 00444d70 f i MapServer.obj
 0001:00043de0       ??$_Find_last_of_pos_vectorized@DD@std@@YAIQBDI0I@Z 00444de0 f i MapServer.obj
 0001:00043e10       ??$_Find_lower_bound@F@?$_Tree@V?$_Tmap_traits@FHU?$less@F@std@@V?$allocator@U?$pair@$$CBFH@std@@@2@$0A@@std@@@std@@IBE?AU?$_Tree_find_result@PAU?$_Tree_node@U?$pair@$$CBFH@std@@PAX@std@@@1@ABF@Z 00444e10 f i MapServer.obj
 0001:00043f00       ??$_Freenode0@V?$allocator@U?$_Tree_node@U?$pair@$$CBFH@std@@PAX@std@@@std@@@?$_Tree_node@U?$pair@$$CBFH@std@@PAX@std@@SAXAAV?$allocator@U?$_Tree_node@U?$pair@$$CBFH@std@@PAX@std@@@1@PAU01@@Z 00444f00 f i MapServer.obj
 0001:00043f60       ??$_Freenode@V?$allocator@U?$_Tree_node@U?$pair@$$CBFH@std@@PAX@std@@@std@@@?$_Tree_node@U?$pair@$$CBFH@std@@PAX@std@@SAXAAV?$allocator@U?$_Tree_node@U?$pair@$$CBFH@std@@PAX@std@@@1@PAU01@@Z 00444f60 f i MapServer.obj
 0001:00043ff0       ??$_Get_size_of_n@$0BI@@std@@YAII@Z 00444ff0 f i MapServer.obj
 0001:00044030       ??$_Get_size_of_n@$0M@@std@@YAII@Z 00445030 f i MapServer.obj
 0001:00044090       ??$_Get_unwrapped@ABQAUst_objects@CMapServer@@@std@@YA?A_TABQAUst_objects@CMapServer@@@Z 00445090 f i MapServer.obj
 0001:000440b0       ??$_Insert_string@DU?$char_traits@D@std@@I@std@@YAAAV?$basic_ostream@DU?$char_traits@D@std@@@0@AAV10@QBDI@Z 004450b0 f i MapServer.obj
 0001:000443e0       ??$_Integral_to_string@DK@std@@YA?AV?$basic_string@DU?$char_traits@D@std@@V?$allocator@D@2@@0@K@Z 004453e0 f i MapServer.obj
 0001:00044540       ??$_Kfn@$$CBFH@?$_Tmap_traits@FHU?$less@F@std@@V?$allocator@U?$pair@$$CBFH@std@@@2@$0A@@std@@SAABFABU?$pair@$$CBFH@1@@Z 00445540 f i MapServer.obj
 0001:00044560       ??$_Lower_bound_duplicate@F@?$_Tree@V?$_Tmap_traits@FHU?$less@F@std@@V?$allocator@U?$pair@$$CBFH@std@@@2@$0A@@std@@@std@@IBE_NQAU?$_Tree_node@U?$pair@$$CBFH@std@@PAX@1@ABF@Z 00445560 f i MapServer.obj
 0001:000446f0       ??$_To_absolute_time@_JU?$ratio@$00$00@std@@@std@@YA?A_PABV?$duration@_JU?$ratio@$00$00@std@@@chrono@0@@Z 004456f0 f i MapServer.obj
 0001:00044800       ??$_To_address@PAUst_objects@CMapServer@@@std@@YA?A_PABQAUst_objects@CMapServer@@@Z 00445800 f i MapServer.obj
 0001:00044820       ??$_Traits_find_last_of@U?$char_traits@D@std@@@std@@YAIQBDII0I@Z 00445820 f i MapServer.obj
 0001:000449f0       ??$_Try_emplace@ABF$$V@?$map@FHU?$less@F@std@@V?$allocator@U?$pair@$$CBFH@std@@@2@@std@@AAE?AU?$pair@PAU?$_Tree_node@U?$pair@$$CBFH@std@@PAX@std@@_N@1@ABF@Z 004459f0 f i MapServer.obj
 0001:00044b30       ??$_Tuple_get@$0A@ABF@std@@YA$$QA_P$$QAV?$tuple@ABF@0@@Z 00445b30 f i MapServer.obj
 0001:00044b50       ??$_UIntegral_to_buff@DK@std@@YAPADPADK@Z 00445b50 f i MapServer.obj
 0001:00044be0       ??$_Unfancy@Ust_objects@CMapServer@@@std@@YAPAUst_objects@CMapServer@@PAU12@@Z 00445be0 f i MapServer.obj
 0001:00044d40       ??$_Uninitialized_move@PAUst_objects@CMapServer@@V?$allocator@Ust_objects@CMapServer@@@std@@@std@@YAPAUst_objects@CMapServer@@QAU12@0PAU12@AAV?$allocator@Ust_objects@CMapServer@@@0@@Z 00445d40 f i MapServer.obj
 0001:00044e70       ??$addressof@$$CBV?$_Tree_val@U?$_Tree_simple_types@U?$pair@$$CBFH@std@@@std@@@std@@@std@@YAPBV?$_Tree_val@U?$_Tree_simple_types@U?$pair@$$CBFH@std@@@std@@@0@ABV10@@Z 00445e70 f i MapServer.obj
 0001:00044e90       ??$addressof@PAU?$_Tree_node@U?$pair@$$CBFH@std@@PAX@std@@@std@@YAPAPAU?$_Tree_node@U?$pair@$$CBFH@std@@PAX@0@AAPAU10@@Z 00445e90 f i MapServer.obj
 0001:00044eb0       ??$addressof@U?$pair@$$CBFH@std@@@std@@YAPAU?$pair@$$CBFH@0@AAU10@@Z 00445eb0 f i MapServer.obj
 0001:00044ef0       ??$addressof@Ust_objects@CMapServer@@@std@@YAPAUst_objects@CMapServer@@AAU12@@Z 00445ef0 f i MapServer.obj
 0001:00044f10       ??$addressof@V?$_Tree_val@U?$_Tree_simple_types@U?$pair@$$CBFH@std@@@std@@@std@@@std@@YAPAV?$_Tree_val@U?$_Tree_simple_types@U?$pair@$$CBFH@std@@@std@@@0@AAV10@@Z 00445f10 f i MapServer.obj
 0001:00044f30       ??$ceil@V?$duration@_JU?$ratio@$00$0DOI@@std@@@chrono@std@@_JU?$ratio@$00$0DLJKMKAA@@3@$0A@@chrono@std@@YA?AV?$duration@_JU?$ratio@$00$0DOI@@std@@@01@ABV?$duration@_JU?$ratio@$00$0DLJKMKAA@@std@@@01@@Z 00445f30 f i MapServer.obj
 0001:00044fc0       ??$construct@U?$pair@$$CBFH@std@@ABUpiecewise_construct_t@2@V?$tuple@ABF@2@V?$tuple@$$V@2@@?$_Default_allocator_traits@V?$allocator@U?$_Tree_node@U?$pair@$$CBFH@std@@PAX@std@@@std@@@std@@SAXAAV?$allocator@U?$_Tree_node@U?$pair@$$CBFH@std@@PAX@std@@@1@QAU?$pair@$$CBFH@1@ABUpiecewise_construct_t@1@$$QAV?$tuple@ABF@1@$$QAV?$tuple@$$V@1@@Z 00445fc0 f i MapServer.obj
 0001:000450a0       ??$construct@Ust_objects@CMapServer@@ABU12@@?$_Default_allocator_traits@V?$allocator@Ust_objects@CMapServer@@@std@@@std@@SAXAAV?$allocator@Ust_objects@CMapServer@@@1@QAUst_objects@CMapServer@@ABU34@@Z 004460a0 f i MapServer.obj
 0001:000450f0       ??$construct@Ust_objects@CMapServer@@U12@@?$_Default_allocator_traits@V?$allocator@Ust_objects@CMapServer@@@std@@@std@@SAXAAV?$allocator@Ust_objects@CMapServer@@@1@QAUst_objects@CMapServer@@$$QAU34@@Z 004460f0 f i MapServer.obj
 0001:00045140       ??$destroy@U?$pair@$$CBFH@std@@@?$_Default_allocator_traits@V?$allocator@U?$_Tree_node@U?$pair@$$CBFH@std@@PAX@std@@@std@@@std@@SAXAAV?$allocator@U?$_Tree_node@U?$pair@$$CBFH@std@@PAX@std@@@1@QAU?$pair@$$CBFH@1@@Z 00446140 f i MapServer.obj
 0001:00045160       ??$duration_cast@V?$duration@_JU?$ratio@$00$0DLJKMKAA@@std@@@chrono@std@@_JU?$ratio@$00$00@3@$0A@@chrono@std@@YA?AV?$duration@_JU?$ratio@$00$0DLJKMKAA@@std@@@01@ABV?$duration@_JU?$ratio@$00$00@std@@@01@@Z 00446160 f i MapServer.obj
 0001:000451c0       ??$duration_cast@V?$duration@_JU?$ratio@$00$0DLJKMKAA@@std@@@chrono@std@@_JU?$ratio@$00$0DOI@@3@$0A@@chrono@std@@YA?AV?$duration@_JU?$ratio@$00$0DLJKMKAA@@std@@@01@ABV?$duration@_JU?$ratio@$00$0DOI@@std@@@01@@Z 004461c0 f i MapServer.obj
 0001:00045220       ??$duration_cast@V?$duration@_JU?$ratio@$00$0DOI@@std@@@chrono@std@@_JU?$ratio@$00$0DLJKMKAA@@3@$0A@@chrono@std@@YA?AV?$duration@_JU?$ratio@$00$0DOI@@std@@@01@ABV?$duration@_JU?$ratio@$00$0DLJKMKAA@@std@@@01@@Z 00446220 f i MapServer.obj
 0001:00045280       ??$exchange@PAU?$_Tree_node@U?$pair@$$CBFH@std@@PAX@std@@$$T@std@@YAPAU?$_Tree_node@U?$pair@$$CBFH@std@@PAX@0@AAPAU10@$$QA$$T@Z 00446280 f i MapServer.obj
 0001:000452b0       ??$exchange@PAU?$_Tree_node@U?$pair@$$CBFH@std@@PAX@std@@AAPAU12@@std@@YAPAU?$_Tree_node@U?$pair@$$CBFH@std@@PAX@0@AAPAU10@0@Z 004462b0 f i MapServer.obj
 0001:00045310       ??$forward@AAPAU?$_Tree_node@U?$pair@$$CBFH@std@@PAX@std@@@std@@YAAAPAU?$_Tree_node@U?$pair@$$CBFH@std@@PAX@0@AAPAU10@@Z 00446310 f i MapServer.obj
 0001:00045350       ??$forward@ABF@std@@YAABFABF@Z 00446350 f i MapServer.obj
 0001:00045370       ??$forward@ABQAU?$_Tree_node@U?$pair@$$CBFH@std@@PAX@std@@@std@@YAABQAU?$_Tree_node@U?$pair@$$CBFH@std@@PAX@0@ABQAU10@@Z 00446370 f i MapServer.obj
 0001:00045390       ??$forward@ABU?$less@F@std@@@std@@YAABU?$less@F@0@ABU10@@Z 00446390 f i MapServer.obj
 0001:000453b0       ??$forward@ABUpiecewise_construct_t@std@@@std@@YAABUpiecewise_construct_t@0@ABU10@@Z 004463b0 f i MapServer.obj
 0001:000453d0       ??$forward@ABUst_objects@CMapServer@@@std@@YAABUst_objects@CMapServer@@ABU12@@Z 004463d0 f i MapServer.obj
 0001:000453f0       ??$forward@PAU?$_Tree_node@U?$pair@$$CBFH@std@@PAX@std@@@std@@YA$$QAPAU?$_Tree_node@U?$pair@$$CBFH@std@@PAX@0@AAPAU10@@Z 004463f0 f i MapServer.obj
 0001:00045470       ??$forward@U_Zero_then_variadic_args_t@std@@@std@@YA$$QAU_Zero_then_variadic_args_t@0@AAU10@@Z 00446470 f i MapServer.obj
 0001:00045490       ??$forward@Ust_objects@CMapServer@@@std@@YA$$QAUst_objects@CMapServer@@AAU12@@Z 00446490 f i MapServer.obj
 0001:000454d0       ??$forward@V?$tuple@$$V@std@@@std@@YA$$QAV?$tuple@$$V@0@AAV10@@Z 004464d0 f i MapServer.obj
 0001:000454f0       ??$forward@V?$tuple@ABF@std@@@std@@YA$$QAV?$tuple@ABF@0@AAV10@@Z 004464f0 f i MapServer.obj
 0001:00045510       ??$forward@_N@std@@YA$$QA_NAA_N@Z 00446510 f i MapServer.obj
 0001:00045530       ??$forward_as_tuple@$$V@std@@YA?AV?$tuple@$$V@0@XZ 00446530 f i MapServer.obj
 0001:00045550       ??$forward_as_tuple@ABF@std@@YA?AV?$tuple@ABF@0@ABF@Z 00446550 f i MapServer.obj
 0001:00045690       ??$move@AAPAUst_objects@CMapServer@@@std@@YA$$QAPAUst_objects@CMapServer@@AAPAU12@@Z 00446690 f i MapServer.obj
 0001:000456d0       ??$move@AAUst_objects@CMapServer@@@std@@YA$$QAUst_objects@CMapServer@@AAU12@@Z 004466d0 f i MapServer.obj
 0001:00045710       ??$move@AAV?$tuple@ABF@std@@@std@@YA$$QAV?$tuple@ABF@0@AAV10@@Z 00446710 f i MapServer.obj
 0001:00045730       ??$pow@MH$0A@@@YANMH@Z     00446730 f i MapServer.obj
 0001:00045770       ??$sleep_for@_JU?$ratio@$00$00@std@@@this_thread@std@@YAXABV?$duration@_JU?$ratio@$00$00@std@@@chrono@1@@Z 00446770 f i MapServer.obj
 0001:000457b0       ??$sleep_until@Usteady_clock@chrono@std@@V?$duration@_JU?$ratio@$00$0DLJKMKAA@@std@@@23@@this_thread@std@@YAXABV?$time_point@Usteady_clock@chrono@std@@V?$duration@_JU?$ratio@$00$0DLJKMKAA@@std@@@23@@chrono@1@@Z 004467b0 f i MapServer.obj
 0001:00045870       ??0?$_Alloc_construct_ptr@V?$allocator@U?$_Tree_node@U?$pair@$$CBFH@std@@PAX@std@@@std@@@std@@QAE@AAV?$allocator@U?$_Tree_node@U?$pair@$$CBFH@std@@PAX@std@@@1@@Z 00446870 f i MapServer.obj
 0001:000458b0       ??0?$_String_bitmap@D$00@std@@QAE@XZ 004468b0 f i MapServer.obj
 0001:000458f0       ??0?$_Tree@V?$_Tmap_traits@FHU?$less@F@std@@V?$allocator@U?$pair@$$CBFH@std@@@2@$0A@@std@@@std@@QAE@ABU?$less@F@1@@Z 004468f0 f i MapServer.obj
 0001:00045940       ??0?$_Tree_temp_node_alloc@V?$allocator@U?$_Tree_node@U?$pair@$$CBFH@std@@PAX@std@@@std@@@std@@QAE@AAV?$allocator@U?$_Tree_node@U?$pair@$$CBFH@std@@PAX@std@@@1@@Z 00446940 f i MapServer.obj
 0001:000459c0       ??0?$_Tree_unchecked_const_iterator@V?$_Tree_val@U?$_Tree_simple_types@U?$pair@$$CBFH@std@@@std@@@std@@U_Iterator_base0@2@@std@@QAE@PAU?$_Tree_node@U?$pair@$$CBFH@std@@PAX@1@PBV?$_Tree_val@U?$_Tree_simple_types@U?$pair@$$CBFH@std@@@std@@@1@@Z 004469c0 f i MapServer.obj
 0001:00045a00       ??0?$_Tree_unchecked_iterator@V?$_Tree_val@U?$_Tree_simple_types@U?$pair@$$CBFH@std@@@std@@@std@@@std@@QAE@PAU?$_Tree_node@U?$pair@$$CBFH@std@@PAX@1@PBV?$_Tree_val@U?$_Tree_simple_types@U?$pair@$$CBFH@std@@@std@@@1@@Z 00446a00 f i MapServer.obj
 0001:00045a40       ??0?$_Tree_val@U?$_Tree_simple_types@U?$pair@$$CBFH@std@@@std@@@std@@QAE@XZ 00446a40 f i MapServer.obj
 0001:00045ac0       ??0?$_Uninitialized_backout_al@V?$allocator@Ust_objects@CMapServer@@@std@@@std@@QAE@PAUst_objects@CMapServer@@AAV?$allocator@Ust_objects@CMapServer@@@1@@Z 00446ac0 f i MapServer.obj
 0001:00045b50       ??0?$_Vector_val@U?$_Simple_types@URebirthLevelSettings@CMapServer@@@std@@@std@@QAE@XZ 00446b50 f i MapServer.obj
 0001:00045ba0       ??0?$_Vector_val@U?$_Simple_types@Ust_objects@CMapServer@@@std@@@std@@QAE@XZ 00446ba0 f i MapServer.obj
 0001:00045bf0       ??0?$allocator@U?$_Tree_node@U?$pair@$$CBFH@std@@PAX@std@@@std@@QAE@XZ 00446bf0 f i MapServer.obj
 0001:00045c30       ??0?$allocator@URebirthLevelSettings@CMapServer@@@std@@QAE@XZ 00446c30 f i MapServer.obj
 0001:00045c50       ??0?$allocator@Ust_objects@CMapServer@@@std@@QAE@XZ 00446c50 f i MapServer.obj
 0001:00045c70       ??0?$basic_ofstream@DU?$char_traits@D@std@@@std@@QAE@ABV?$basic_string@DU?$char_traits@D@std@@V?$allocator@D@2@@1@HH@Z 00446c70 f i MapServer.obj
 0001:00045cf0       ??0?$basic_ofstream@DU?$char_traits@D@std@@@std@@QAE@PBDHH@Z 00446cf0 f i MapServer.obj
 0001:00045e40       ??0?$basic_string@DU?$char_traits@D@std@@V?$allocator@D@2@@std@@QAE@ABV01@IIABV?$allocator@D@1@@Z 00446e40 f i MapServer.obj
 0001:00045f00       ??0?$map@FHU?$less@F@std@@V?$allocator@U?$pair@$$CBFH@std@@@2@@std@@QAE@XZ 00446f00 f i MapServer.obj
 0001:00045f30       ??0?$time_point@Usteady_clock@chrono@std@@V?$duration@_JU?$ratio@$00$0DLJKMKAA@@std@@@23@@chrono@std@@QAE@ABV?$duration@_JU?$ratio@$00$0DLJKMKAA@@std@@@12@@Z 00446f30 f i MapServer.obj
 0001:00045f70       ??0?$tuple@$$V@std@@QAE@ABV01@@Z 00446f70 f i MapServer.obj
 0001:00045f90       ??0?$tuple@ABF@std@@QAE@$$QAV01@@Z 00446f90 f i MapServer.obj
 0001:00046060       ??0?$vector@URebirthLevelSettings@CMapServer@@V?$allocator@URebirthLevelSettings@CMapServer@@@std@@@std@@QAE@XZ 00447060 f i MapServer.obj
 0001:000460f0       ??0?$vector@Ust_objects@CMapServer@@V?$allocator@Ust_objects@CMapServer@@@std@@@std@@QAE@XZ 004470f0 f i MapServer.obj
 0001:00046180       ??0CMapServer@@QAE@PAUHWND__@@@Z 00447180 f   MapServer.obj
 0001:000471f0       ??0st_objects@CMapServer@@QAE@XZ 004481f0 f i MapServer.obj
 0001:00047210       ??1?$_Alloc_construct_ptr@V?$allocator@U?$_Tree_node@U?$pair@$$CBFH@std@@PAX@std@@@std@@@std@@QAE@XZ 00448210 f i MapServer.obj
 0001:00047250       ??1?$_Tree@V?$_Tmap_traits@FHU?$less@F@std@@V?$allocator@U?$pair@$$CBFH@std@@@2@$0A@@std@@@std@@QAE@XZ 00448250 f i MapServer.obj
 0001:000472c0       ??1?$_Tree_temp_node@V?$allocator@U?$_Tree_node@U?$pair@$$CBFH@std@@PAX@std@@@std@@@std@@QAE@XZ 004482c0 f i MapServer.obj
 0001:000473a0       ??1?$_Tree_temp_node_alloc@V?$allocator@U?$_Tree_node@U?$pair@$$CBFH@std@@PAX@std@@@std@@@std@@QAE@XZ 004483a0 f i MapServer.obj
 0001:00047410       ??1?$_Uninitialized_backout_al@V?$allocator@Ust_objects@CMapServer@@@std@@@std@@QAE@XZ 00448410 f i MapServer.obj
 0001:00047450       ??1?$map@FHU?$less@F@std@@V?$allocator@U?$pair@$$CBFH@std@@@2@@std@@QAE@XZ 00448450 f i MapServer.obj
 0001:00047530       ??1?$vector@URebirthLevelSettings@CMapServer@@V?$allocator@URebirthLevelSettings@CMapServer@@@std@@@std@@QAE@XZ 00448530 f i MapServer.obj
 0001:000475a0       ??1?$vector@Ust_objects@CMapServer@@V?$allocator@Ust_objects@CMapServer@@@std@@@std@@QAE@XZ 004485a0 f i MapServer.obj
 0001:00047610       ??1CMapServer@@UAE@XZ      00448610 f   MapServer.obj
 0001:00047740       ??1_Reallocation_guard@?$vector@Ust_objects@CMapServer@@V?$allocator@Ust_objects@CMapServer@@@std@@@std@@QAE@XZ 00448740 f i MapServer.obj
 0001:000477b0       ??6?$basic_ostream@DU?$char_traits@D@std@@@std@@QAEAAV01@F@Z 004487b0 f i MapServer.obj
 0001:00047a00       ??6?$basic_ostream@DU?$char_traits@D@std@@@std@@QAEAAV01@K@Z 00448a00 f i MapServer.obj
 0001:00047bf0       ??7ios_base@std@@QBE_NXZ   00448bf0 f i MapServer.obj
 0001:00047c20       ??9?$_Tree_unchecked_const_iterator@V?$_Tree_val@U?$_Tree_simple_types@U?$pair@$$CBFH@std@@@std@@@std@@U_Iterator_base0@2@@std@@QBE_NU_Default_sentinel@1@@Z 00448c20 f i MapServer.obj
 0001:00047c70       ??A?$map@FHU?$less@F@std@@V?$allocator@U?$pair@$$CBFH@std@@@2@@std@@QAEAAHABF@Z 00448c70 f i MapServer.obj
 0001:00047cb0       ??A?$vector@Ust_objects@CMapServer@@V?$allocator@Ust_objects@CMapServer@@@std@@@std@@QAEAAUst_objects@CMapServer@@I@Z 00448cb0 f i MapServer.obj
 0001:00047d50       ??D?$_Tree_unchecked_const_iterator@V?$_Tree_val@U?$_Tree_simple_types@U?$pair@$$CBFH@std@@@std@@@std@@U_Iterator_base0@2@@std@@QBEABU?$pair@$$CBFH@1@XZ 00448d50 f i MapServer.obj
 0001:00047d80       ??D?$_Tree_unchecked_iterator@V?$_Tree_val@U?$_Tree_simple_types@U?$pair@$$CBFH@std@@@std@@@std@@@std@@QBEAAU?$pair@$$CBFH@1@XZ 00448d80 f i MapServer.obj
 0001:00047db0       ??E?$_Tree_unchecked_const_iterator@V?$_Tree_val@U?$_Tree_simple_types@U?$pair@$$CBFH@std@@@std@@@std@@U_Iterator_base0@2@@std@@QAEAAV01@XZ 00448db0 f i MapServer.obj
 0001:00047e40       ??E?$_Tree_unchecked_iterator@V?$_Tree_val@U?$_Tree_simple_types@U?$pair@$$CBFH@std@@@std@@@std@@@std@@QAEAAV01@XZ 00448e40 f i MapServer.obj
 0001:00047f00       ??R?$less@F@std@@QBE_NABF0@Z 00448f00 f i MapServer.obj
 0001:00047f50       ??Y?$duration@_JU?$ratio@$00$0DLJKMKAA@@std@@@chrono@std@@QAEAAV012@ABV012@@Z 00448f50 f i MapServer.obj
 0001:00047f90       ??Y?$time_point@Usteady_clock@chrono@std@@V?$duration@_JU?$ratio@$00$0DLJKMKAA@@std@@@23@@chrono@std@@QAEAAV012@ABV?$duration@_JU?$ratio@$00$0DLJKMKAA@@std@@@12@@Z 00448f90 f i MapServer.obj
 0001:00047fc0       ??_ECMapServer@@UAEPAXI@Z  00448fc0 f i MapServer.obj
 0001:00047fc0       ??_GCMapServer@@UAEPAXI@Z  00448fc0 f i MapServer.obj
 0001:00048010       ?AbrirPortales@CMapServer@@QAEXF@Z 00449010 f   MapServer.obj
 0001:0004a820       ?ActivateSpecialAbilityHandler@CMapServer@@QAEXH@Z 0044b820 f   MapServer.obj
 0001:0004ab60       ?ActualizarContador@CMapServer@@QAEXXZ 0044bb60 f   MapServer.obj
 0001:0004adc0       ?ActualizarCountFlag@CMapServer@@QAEXFH@Z 0044bdc0 f   MapServer.obj
 0001:0004b0b0       ?ActualizarSellingList@CMapServer@@QAEXHH@Z 0044c0b0 f   MapServer.obj
 0001:0004b3c0       ?ActualizarStructures@CMapServer@@QAEXXZ 0044c3c0 f   MapServer.obj
 0001:0004b750       ?ActualizarWWContador@CMapServer@@QAEXXZ 0044c750 f   MapServer.obj
 0001:0004b920       ?ActualizarWWIIContador@CMapServer@@QAEXXZ 0044c920 f   MapServer.obj
 0001:0004baf0       ?AddCandys@CMapServer@@QAEXH@Z 0044caf0 f   MapServer.obj
 0001:0004bdd0       ?AddFragment@CMapServer@@QAEXHFH@Z 0044cdd0 f   MapServer.obj
 0001:0004c2d0       ?AddShard@CMapServer@@QAEXHFH@Z 0044d2d0 f   MapServer.obj
 0001:0004c440       ?AdminCommand_Event@CMapServer@@QAEXHPADK@Z 0044d440 f   MapServer.obj
 0001:0004c760       ?AdminOrder_Assasain@CMapServer@@QAEXHPADK@Z 0044d760 f   MapServer.obj
 0001:0004cb30       ?AdminOrder_BanIP@CMapServer@@QAEXHPADK@Z 0044db30 f   MapServer.obj
 0001:0004d090       ?AdminOrder_CallGuard@CMapServer@@QAEXHPADK@Z 0044e090 f   MapServer.obj
 0001:0004d7a0       ?AdminOrder_ChangeCity@CMapServer@@QAEXHPADK@Z 0044e7a0 f   MapServer.obj
 0001:0004dd00       ?AdminOrder_CheckIP@CMapServer@@QAEXHPADK@Z 0044ed00 f   MapServer.obj
 0001:0004e180       ?AdminOrder_CheckRep@CMapServer@@QAEXHPADK@Z 0044f180 f   MapServer.obj
 0001:0004e300       ?AdminOrder_CleanMap@CMapServer@@QAEXHPADK@Z 0044f300 f   MapServer.obj
 0001:0004e790       ?AdminOrder_ClearNpc@CMapServer@@QAEXH@Z 0044f790 f   MapServer.obj
 0001:0004e980       ?AdminOrder_CloseConn@CMapServer@@QAEXHPADK@Z 0044f980 f   MapServer.obj
 0001:0004eee0       ?AdminOrder_CreateFish@CMapServer@@QAEXHPADK@Z 0044fee0 f   MapServer.obj
 0001:0004f450       ?AdminOrder_CreateItem@CMapServer@@QAEXHPADK@Z 00450450 f   MapServer.obj
 0001:00050380       ?AdminOrder_DisconnectAll@CMapServer@@QAEXHPADK@Z 00451380 f   MapServer.obj
 0001:000503d0       ?AdminOrder_GetFightzoneTicket@CMapServer@@QAEXH@Z 004513d0 f   MapServer.obj
 0001:00050840       ?AdminOrder_GetNpcStatus@CMapServer@@QAEXHPADK@Z 00451840 f   MapServer.obj
 0001:00050b90       ?AdminOrder_GoTo@CMapServer@@QAEXHPADK@Z 00451b90 f   MapServer.obj
 0001:000511a0       ?AdminOrder_Kill@CMapServer@@QAEXHPADK@Z 004521a0 f   MapServer.obj
 0001:000518b0       ?AdminOrder_MonsterCount@CMapServer@@QAEXHPADK@Z 004528b0 f   MapServer.obj
 0001:000519d0       ?AdminOrder_Polymorph@CMapServer@@QAEXHPADK@Z 004529d0 f   MapServer.obj
 0001:00051cb0       ?AdminOrder_Portal@CMapServer@@QAEXHPADK@Z 00452cb0 f   MapServer.obj
 0001:00052450       ?AdminOrder_Pushplayer@CMapServer@@QAEXHPADK@Z 00453450 f   MapServer.obj
 0001:00052aa0       ?AdminOrder_ReserveFightzone@CMapServer@@QAEXHPADK@Z 00453aa0 f   MapServer.obj
 0001:00052f50       ?AdminOrder_Revive@CMapServer@@QAEXHPADK@Z 00453f50 f   MapServer.obj
 0001:000536b0       ?AdminOrder_SetAttackMode@CMapServer@@QAEXHPADK@Z 004546b0 f   MapServer.obj
 0001:00053be0       ?AdminOrder_SetForceRecallTime@CMapServer@@QAEXHPADK@Z 00454be0 f   MapServer.obj
 0001:00053ea0       ?AdminOrder_SetInvi@CMapServer@@QAEXHPADK@Z 00454ea0 f   MapServer.obj
 0001:00054140       ?AdminOrder_SetObserverMode@CMapServer@@QAEXH@Z 00455140 f   MapServer.obj
 0001:000543e0       ?AdminOrder_SetPoints@CMapServer@@QAEXHPADKF@Z 004553e0 f   MapServer.obj
 0001:00054de0       ?AdminOrder_SetStatus@CMapServer@@QAEXHPADK@Z 00455de0 f   MapServer.obj
 0001:00055370       ?AdminOrder_SetZerk@CMapServer@@QAEXHPADK@Z 00456370 f   MapServer.obj
 0001:00055650       ?AdminOrder_Summon@CMapServer@@QAEXHPADK@Z 00456650 f   MapServer.obj
 0001:00055e50       ?AdminOrder_SummonAll@CMapServer@@QAEXHPADK@Z 00456e50 f   MapServer.obj
 0001:000562c0       ?AdminOrder_SummonDemon@CMapServer@@QAEXH@Z 004572c0 f   MapServer.obj
 0001:000565b0       ?AdminOrder_SummonGuild@CMapServer@@QAEXHPADK@Z 004575b0 f   MapServer.obj
 0001:00056960       ?AdminOrder_SummonPlayer@CMapServer@@QAEXHPADK@Z 00457960 f   MapServer.obj
 0001:00056e10       ?AdminOrder_Teleport@CMapServer@@QAEXHPADK@Z 00457e10 f   MapServer.obj
 0001:000572b0       ?AdminOrder_Time@CMapServer@@QAEXHPADK@Z 004582b0 f   MapServer.obj
 0001:000576c0       ?AdminOrder_UnLimbo@CMapServer@@QAEXHPADK@Z 004586c0 f   MapServer.obj
 0001:00057a10       ?AdminOrder_UnsummonAll@CMapServer@@QAEXH@Z 00458a10 f   MapServer.obj
 0001:00057b50       ?AdminOrder_UnsummonBoss@CMapServer@@QAEXH@Z 00458b50 f   MapServer.obj
 0001:00057da0       ?AdminOrder_Weather@CMapServer@@QAEXHPADK@Z 00458da0 f   MapServer.obj
 0001:000583a0       ?AdminOrder_ban@CMapServer@@QAEXHPADK@Z 004593a0 f   MapServer.obj
 0001:000589e0       ?AdminOrder_banjail@CMapServer@@QAEXHPADK@Z 004599e0 f   MapServer.obj
 0001:00059040       ?AdminOrder_deslogpull@CMapServer@@QAEXHPADK@Z 0045a040 f   MapServer.obj
 0001:000594f0       ?AgingMapSectorInfo@CMapServer@@QAEXXZ 0045a4f0 f   MapServer.obj
 0001:000599c0       ?AllClosePortals@CMapServer@@QAEXXZ 0045a9c0 f   MapServer.obj
 0001:00059b40       ?Anuncios@CMapServer@@QAEXXZ 0045ab40 f   MapServer.obj
 0001:00059d80       ?ApplyCombatKilledPenalty@CMapServer@@QAEXHDHH@Z 0045ad80 f   MapServer.obj
 0001:0005a200       ?ApplyPKpenalty@CMapServer@@QAEXFF@Z 0045b200 f   MapServer.obj
 0001:0005a9e0       ?ApplyPkPoint@CMapServer@@QAEXHHH@Z 0045b9e0 f   MapServer.obj
 0001:0005b870       ?ApplyResolution@CMapServer@@QAEXH@Z 0045c870 f   MapServer.obj
 0001:0005ba60       ?ArmarEventTop@CMapServer@@QAEXXZ 0045ca60 f   MapServer.obj
 0001:0005c650       ?ArmorLifeDecrement@CMapServer@@QAEXHHDH@Z 0045d650 f   MapServer.obj
 0001:00060190       ?AutoClearMap@CMapServer@@QAEXXZ 00461190 f   MapServer.obj
 0001:00060360       ?AutoSkill@CMapServer@@QAEXH@Z 00461360 f   MapServer.obj
 0001:00060bf0       ?BlockedTeleport@CMapServer@@QAE_NH@Z 00461bf0 f   MapServer.obj
 0001:00061f90       ?BuildItemHandler@CMapServer@@QAEXHPAD@Z 00462f90 f   MapServer.obj
 0001:00063150       ?CalcExpStock@CMapServer@@QAEXH@Z 00464150 f   MapServer.obj
 0001:000635f0       ?CalcMeteorStrikeEffectHandler@CMapServer@@QAEXH@Z 004645f0 f   MapServer.obj
 0001:000639f0       ?CalcNextWayPointDestination@CMapServer@@QAEXH@Z 004649f0 f   MapServer.obj
 0001:00064070       ?CalcTotalBagExchange@CMapServer@@QAEHHH@Z 00465070 f   MapServer.obj
 0001:000642f0       ?CalcTotalItemEffect@CMapServer@@QAEXHHH@Z 004652f0 f   MapServer.obj
 0001:0006ad60       ?CalcWeightExchange@CMapServer@@QAEHHH@Z 0046bd60 f   MapServer.obj
 0001:0006b0b0       ?CalculateSSN_ItemIndex@CMapServer@@QAEXHFH@Z 0046c0b0 f   MapServer.obj
 0001:0006bba0       ?CalculateSSN_SkillIndex@CMapServer@@QAEXHFH@Z 0046cba0 f   MapServer.obj
 0001:0006bf90       ?CallMercenary@CMapServer@@QAEXF@Z 0046cf90 f   MapServer.obj
 0001:0006c710       ?CancelExchangeItem@CMapServer@@QAEXH@Z 0046d710 f   MapServer.obj
 0001:0006c890       ?CancelQuestHandler@CMapServer@@QAEXHF@Z 0046d890 f   MapServer.obj
 0001:0006c990       ?ChangeHeroSide@CMapServer@@QAEXH@Z 0046d990 f   MapServer.obj
 0001:0006f010       ?ChangeLocation@CMapServer@@QAEXHK@Z 00470010 f   MapServer.obj
 0001:0006f260       ?ChangePkToEk@CMapServer@@QAEXHH@Z 00470260 f   MapServer.obj
 0001:0006f530       ?ChangeToAssasain@CMapServer@@QAEXH@Z 00470530 f   MapServer.obj
 0001:0006f760       ?CharacterRankingReset@CMapServer@@QAEXH@Z 00470760 f   MapServer.obj
 0001:0006f990       ?ChatMsgHandler@CMapServer@@QAEXHPADK@Z 00470990 f   MapServer.obj
 0001:00075b70       ?CheckActiveMaps@CMapServer@@QAEHPAD@Z 00476b70 f   MapServer.obj
 0001:00075ce0       ?CheckAndNotifyPlayerConnection@CMapServer@@QAEXHPADK@Z 00476ce0 f   MapServer.obj
 0001:00076210       ?CheckClientResponseTime@CMapServer@@QAEXXZ 00477210 f   MapServer.obj
 0001:00079830       ?CheckCommanderConstructionPoint@CMapServer@@QAEXH@Z 0047a830 f   MapServer.obj
 0001:00079be0       ?CheckCompleteAchivement@CMapServer@@QAEXHFHH@Z 0047abe0 f   MapServer.obj
 0001:0007c540       ?CheckConnectionHandler@CMapServer@@QAEXHPAD@Z 0047d540 f   MapServer.obj
 0001:0007c730       ?CheckCrusadeResultCalculation@CMapServer@@QAEXH@Z 0047d730 f   MapServer.obj
 0001:0007ce20       ?CheckDayOrNightMode@CMapServer@@QAEXXZ 0047de20 f   MapServer.obj
 0001:0007d070       ?CheckDynamicObjectList@CMapServer@@QAEXXZ 0047e070 f   MapServer.obj
 0001:0007d4e0       ?CheckFireBluring@CMapServer@@QAEXDHH@Z 0047e4e0 f   MapServer.obj
 0001:0007d710       ?CheckHability@CMapServer@@QAEXHPADK@Z 0047e710 f   MapServer.obj
 0001:0007db50       ?CheckHeroData@CMapServer@@QAEXHFH@Z 0047eb50 f   MapServer.obj
 0001:0007e120       ?CheckHeroItemEquipHandler@CMapServer@@QAEHH@Z 0047f120 f   MapServer.obj
 0001:0007fae0       ?CheckItemStatedEquipment@CMapServer@@QAEXH@Z 00480ae0 f   MapServer.obj
 0001:00081570       ?CheckNewNivel@CMapServer@@QAEXHH@Z 00482570 f   MapServer.obj
 0001:00081740       ?CheckProcess@CMapServer@@QAEXH@Z 00482740 f   MapServer.obj
 0001:00081840       ?CheckProcessClients@CMapServer@@QAEXXZ 00482840 f   MapServer.obj
 0001:00081960       ?CheckUniqueItemEquipment@CMapServer@@QAEXH@Z 00482960 f   MapServer.obj
 0001:00081c70       ?CheckUsersIP@CMapServer@@QAEXHPADK@Z 00482c70 f   MapServer.obj
 0001:000822b0       ?ChequearAllVsAll@CMapServer@@QAEXXZ 004832b0 f   MapServer.obj
 0001:00082590       ?ChequearPartido@CMapServer@@QAEXXZ 00483590 f   MapServer.obj
 0001:000827b0       ?ClearSkillUsingStatus@CMapServer@@QAEXH@Z 004837b0 f   MapServer.obj
 0001:00082ce0       ?ClientCommonHandler@CMapServer@@QAEXHPAD@Z 00483ce0 f   MapServer.obj
 0001:00083a80       ?ClientFakeMove@CMapServer@@QAEXH@Z 00484a80 f   MapServer.obj
 0001:00083c10       ?ClientFakeMoveTimmer@CMapServer@@QAEXXZ 00484c10 f   MapServer.obj
 0001:00084120       ?ClientKilledHandler@CMapServer@@QAEXHHDF@Z 00485120 f   MapServer.obj
 0001:00085e00       ?ClientMotionHandler@CMapServer@@QAEXHPAD@Z 00486e00 f   MapServer.obj
 0001:00086af0       ?CloseAbaddonEvent@CMapServer@@QAEXXZ 00487af0 f   MapServer.obj
 0001:00086d40       ?CloseArenaEvent@CMapServer@@QAEXXZ 00487d40 f   MapServer.obj
 0001:00087100       ?CloseEventMap@CMapServer@@QAEXXZ 00488100 f   MapServer.obj
 0001:00087480       ?CloseHODMap@CMapServer@@QAEXXZ 00488480 f   MapServer.obj
 0001:00087690       ?ClosePortal@CMapServer@@QAEXH@Z 00488690 f   MapServer.obj
 0001:00087840       ?CloseWWEventMap@CMapServer@@QAEXXZ 00488840 f   MapServer.obj
 0001:00087b90       ?CloseWWEventMapII@CMapServer@@QAEXXZ 00488b90 f   MapServer.obj
 0001:00087ef0       ?Close_FinalFight@CMapServer@@QAEXXZ 00488ef0 f   MapServer.obj
 0001:00087ff0       ?CollectedManaHandler@CMapServer@@QAEXGG@Z 00488ff0 f   MapServer.obj
 0001:00088160       ?CompleteAchivementList@CMapServer@@QAEXH@Z 00489160 f   MapServer.obj
 0001:00088390       ?ConfirmExchangeItem@CMapServer@@QAEXH@Z 00489390 f   MapServer.obj
 0001:00089940       ?CreateCVCStructures@CMapServer@@QAEXXZ 0048a940 f   MapServer.obj
 0001:00089d20       ?CreateCrusadeStructures@CMapServer@@QAEXXZ 0048ad20 f   MapServer.obj
 0001:0008a5e0       ?CreateEnergy@CMapServer@@QAEXXZ 0048b5e0 f   MapServer.obj
 0001:0008a900       ?CreateEventResults@CMapServer@@QAEXHF@Z 0048b900 f   MapServer.obj
 0001:0008ae10       ?CreateFinalFightID@CMapServer@@QAEXXZ 0048be10 f   MapServer.obj
 0001:0008b000       ?CreateHellOfDeathStructures@CMapServer@@QAEXXZ 0048c000 f   MapServer.obj
 0001:0008b590       ?CreateItemDrop@CMapServer@@QAEXHV?$basic_string@DU?$char_traits@D@std@@V?$allocator@D@2@@std@@HHH@Z 0048c590 f   MapServer.obj
 0001:0008b6f0       ?CreateMSStructures@CMapServer@@QAEXXZ 0048c6f0 f   MapServer.obj
 0001:0008bc30       ?CreateRushStructures@CMapServer@@QAEXXZ 0048cc30 f   MapServer.obj
 0001:0008c450       ?CreateTowerAresden@CMapServer@@QAEXXZ 0048d450 f   MapServer.obj
 0001:0008c8e0       ?CreateTowerElvine@CMapServer@@QAEXXZ 0048d8e0 f   MapServer.obj
 0001:0008cd70       ?DataProcessReceived@CMapServer@@QAEXHPADK@Z 0048dd70 f   MapServer.obj
 0001:0008d0b0       ?DefineWHPage@CMapServer@@QAEXHF@Z 0048e0b0 f   MapServer.obj
 0001:0008d180       ?DelayEventProcessor@CMapServer@@QAEXXZ 0048e180 f   MapServer.obj
 0001:0008df90       ?DeleteClient@CMapServer@@QAEXHHHHH@Z 0048ef90 f   MapServer.obj
 0001:0008f7a0       ?DeleteCliente@CMapServer@@QAEXHPADK@Z 004907a0 f   MapServer.obj
 0001:0008fbe0       ?DeleteEnergy@CMapServer@@QAEXXZ 00490be0 f   MapServer.obj
 0001:0008fce0       ?DeleteWhItem@CMapServer@@QAEXHF@Z 00490ce0 f   MapServer.obj
 0001:000902b0       ?Desbug@CMapServer@@QAEXHPADK@Z 004912b0 f   MapServer.obj
 0001:00090720       ?DisableBot@CMapServer@@QAEXH@Z 00491720 f   MapServer.obj
 0001:00090780       ?DismissGuildApproveHandler@CMapServer@@QAEXHPAD@Z 00491780 f   MapServer.obj
 0001:00090a40       ?DismissGuildRejectHandler@CMapServer@@QAEXHPAD@Z 00491a40 f   MapServer.obj
 0001:00090bb0       ?DisplayInfo@CMapServer@@QAEXPAUHDC__@@@Z 00491bb0 f   MapServer.obj
 0001:00090d50       ?DkMapUnEquipItems@CMapServer@@QAEXH@Z 00491d50 f   MapServer.obj
 0001:00090fa0       ?DoMeteorStrikeDamageHandler@CMapServer@@QAEXH@Z 00491fa0 f   MapServer.obj
 0001:000914e0       ?DropItemHandler@CMapServer@@QAEXHFHPADH@Z 004924e0 f   MapServer.obj
 0001:000921b0       ?DropItemID@CMapServer@@QAEXHFHHHHHHH@Z 004931b0 f   MapServer.obj
 0001:00092690       ?DynamicObjectEffectProcessor@CMapServer@@QAEXXZ 00493690 f   MapServer.obj
 0001:000952a0       ?Effect_Damage_Spot@CMapServer@@QAEXFDFDFFFHH@Z 004962a0 f   MapServer.obj
 0001:00098520       ?Effect_Damage_Spot_DamageMove@CMapServer@@QAEXFDFDFFFFFHHH@Z 00499520 f   MapServer.obj
 0001:0009bab0       ?Effect_HpUp_Spot@CMapServer@@QAEXFDFDFFF@Z 0049cab0 f   MapServer.obj
 0001:0009bf20       ?Effect_SpDown_Spot@CMapServer@@QAEXFDFDFFF@Z 0049cf20 f   MapServer.obj
 0001:0009c380       ?Effect_SpUp_Spot@CMapServer@@QAEXFDFDFFF@Z 0049d380 f   MapServer.obj
 0001:0009c610       ?EkAnnoucer@CMapServer@@QAEXQAD0H@Z 0049d610 f   MapServer.obj
 0001:0009c690       ?EnableBot@CMapServer@@QAEXH@Z 0049d690 f   MapServer.obj
 0001:0009c710       ?EndAllDkEks@CMapServer@@QAEXXZ 0049d710 f   MapServer.obj
 0001:0009c9d0       ?EndAllEks@CMapServer@@QAEXXZ 0049d9d0 f   MapServer.obj
 0001:0009cc90       ?EndAllVsAll@CMapServer@@QAEXH@Z 0049dc90 f   MapServer.obj
 0001:0009ced0       ?EndCaptureTheFlag@CMapServer@@QAEXF@Z 0049ded0 f   MapServer.obj
 0001:0009d060       ?EndCityVsCity@CMapServer@@QAEXXZ 0049e060 f   MapServer.obj
 0001:0009d6c0       ?EndDkEvent@CMapServer@@QAEXH@Z 0049e6c0 f   MapServer.obj
 0001:0009d7e0       ?EndEvent_EK100@CMapServer@@QAEXXZ 0049e7e0 f   MapServer.obj
 0001:0009da70       ?EndEvent_EK40@CMapServer@@QAEXXZ 0049ea70 f   MapServer.obj
 0001:0009dce0       ?EndEvent_HuntMap@CMapServer@@QAEXXZ 0049ece0 f   MapServer.obj
 0001:0009def0       ?EndEvent_Masacre@CMapServer@@QAEXXZ 0049eef0 f   MapServer.obj
 0001:0009e080       ?EndEvent_Questx2@CMapServer@@QAEXXZ 0049f080 f   MapServer.obj
 0001:0009e510       ?EndEvent_Questx3@CMapServer@@QAEXXZ 0049f510 f   MapServer.obj
 0001:0009e8a0       ?EndEvent_TowerHell@CMapServer@@QAEXXZ 0049f8a0 f   MapServer.obj
 0001:0009eae0       ?EndHellOfDeathMode@CMapServer@@QAEXH@Z 0049fae0 f   MapServer.obj
 0001:0009eeb0       ?EndSummonEvent@CMapServer@@QAEXXZ 0049feb0 f   MapServer.obj
 0001:0009f230       ?EndTowerDefenceMode@CMapServer@@QAEXH@Z 004a0230 f   MapServer.obj
 0001:0009f510       ?EndTowerDefenseTime@CMapServer@@QAEXXZ 004a0510 f   MapServer.obj
 0001:0009f610       ?EndWorldWar@CMapServer@@QAEXXZ 004a0610 f   MapServer.obj
 0001:0009fc60       ?EndWorldWarII@CMapServer@@QAEXXZ 004a0c60 f   MapServer.obj
 0001:000a02b0       ?EnemyKillRewardHandler@CMapServer@@QAEXHH@Z 004a12b0 f   MapServer.obj
 0001:000a0da0       ?EventAllDkEks@CMapServer@@QAEXXZ 004a1da0 f   MapServer.obj
 0001:000a0ea0       ?EventAllEks@CMapServer@@QAEXXZ 004a1ea0 f   MapServer.obj
 0001:000a1100       ?EventDM@CMapServer@@QAEXXZ 004a2100 f   MapServer.obj
 0001:000a1480       ?Event_Abbadon@CMapServer@@QAEXXZ 004a2480 f   MapServer.obj
 0001:000a1510       ?Event_AllVsAll@CMapServer@@QAEXXZ 004a2510 f   MapServer.obj
 0001:000a1610       ?Event_CatptureTheFlag@CMapServer@@QAEXXZ 004a2610 f   MapServer.obj
 0001:000a17c0       ?Event_CityVsCity@CMapServer@@QAEXXZ 004a27c0 f   MapServer.obj
 0001:000a18f0       ?Event_CloseAbbadon@CMapServer@@QAEXXZ 004a28f0 f   MapServer.obj
 0001:000a1980       ?Event_Crusada@CMapServer@@QAEXXZ 004a2980 f   MapServer.obj
 0001:000a1b30       ?Event_EK100@CMapServer@@QAEXXZ 004a2b30 f   MapServer.obj
 0001:000a1dc0       ?Event_EK40@CMapServer@@QAEXXZ 004a2dc0 f   MapServer.obj
 0001:000a2030       ?Event_FinalFight@CMapServer@@QAEXXZ 004a3030 f   MapServer.obj
 0001:000a2130       ?Event_Hod@CMapServer@@QAEXXZ 004a3130 f   MapServer.obj
 0001:000a2230       ?Event_HuntMap@CMapServer@@QAEXXZ 004a3230 f   MapServer.obj
 0001:000a2440       ?Event_Masacre@CMapServer@@QAEXXZ 004a3440 f   MapServer.obj
 0001:000a25d0       ?Event_Questx2@CMapServer@@QAEXXZ 004a35d0 f   MapServer.obj
 0001:000a2a60       ?Event_Questx3@CMapServer@@QAEXXZ 004a3a60 f   MapServer.obj
 0001:000a2df0       ?Event_Rush@CMapServer@@QAEXXZ 004a3df0 f   MapServer.obj
 0001:000a2f60       ?Event_Summon@CMapServer@@QAEXXZ 004a3f60 f   MapServer.obj
 0001:000a31c0       ?Event_TowerDefense@CMapServer@@QAEXXZ 004a41c0 f   MapServer.obj
 0001:000a32f0       ?Event_TowerHell@CMapServer@@QAEXXZ 004a42f0 f   MapServer.obj
 0001:000a3530       ?Event_WorldWar@CMapServer@@QAEXXZ 004a4530 f   MapServer.obj
 0001:000a3630       ?Event_WorldWarII@CMapServer@@QAEXXZ 004a4630 f   MapServer.obj
 0001:000a3730       ?EventosAutomaticos@CMapServer@@QAEXXZ 004a4730 f   MapServer.obj
 0001:000a37f0       ?ExchangeItemHandler@CMapServer@@QAEXHFHFFGPAD@Z 004a47f0 f   MapServer.obj
 0001:000a4710       ?FightzoneReserveHandler@CMapServer@@QAEXHPADK@Z 004a5710 f   MapServer.obj
 0001:000a4cf0       ?FightzoneReserveProcessor@CMapServer@@QAEXXZ 004a5cf0 f   MapServer.obj
 0001:000a4e60       ?FishGenerator@CMapServer@@QAEXXZ 004a5e60 f   MapServer.obj
 0001:000a5750       ?FishProcessor@CMapServer@@QAEXXZ 004a6750 f   MapServer.obj
 0001:000a5af0       ?ForceDisconnectAccount@CMapServer@@QAEXPADG@Z 004a6af0 f   MapServer.obj
 0001:000a5da0       ?GameProcess@CMapServer@@QAEXXZ 004a6da0 f   MapServer.obj
 0001:000a5dd0       ?GetAngelHandler@CMapServer@@QAEXHPADK@Z 004a6dd0 f   MapServer.obj
 0001:000a6870       ?GetAssasainHero@CMapServer@@QAEXHH@Z 004a7870 f   MapServer.obj
 0001:000a7630       ?GetBallValue@CItem@@QAEKXZ 004a8630 f i MapServer.obj
 0001:000a7650       ?GetDkHandler@CMapServer@@QAEXHH@Z 004a8650 f   MapServer.obj
 0001:000a84e0       ?GetExp@CMapServer@@QAEXHHH@Z 004a94e0 f   MapServer.obj
 0001:000a8d20       ?GetFightzoneTicketHandler@CMapServer@@QAEXH@Z 004a9d20 f   MapServer.obj
 0001:000a96d0       ?GetHeroMantleHandler@CMapServer@@QAEXHH@Z 004aa6d0 f   MapServer.obj
 0001:000aa990       ?GetMagicAbilityHandler@CMapServer@@QAEXH@Z 004ab990 f   MapServer.obj
 0001:000aab00       ?GetMajesticsItemsHandler@CMapServer@@QAEXHHPAD@Z 004abb00 f   MapServer.obj
 0001:000ab8c0       ?GetMapInitialPoint@CMapServer@@QAEXHPAF0PAD@Z 004ac8c0 f   MapServer.obj
 0001:000abac0       ?GetPlayerProfile@CMapServer@@QAEXHPADK@Z 004acac0 f   MapServer.obj
 0001:000abf20       ?GetProgramDirectory@CMapServer@@QAE?AV?$basic_string@DU?$char_traits@D@std@@V?$allocator@D@2@@std@@XZ 004acf20 f   MapServer.obj
 0001:000ac040       ?GetRewardMoneyHandler@CMapServer@@QAEXH@Z 004ad040 f   MapServer.obj
 0001:000ac750       ?GiveItemHandler@CMapServer@@QAEXHFHFFGPAD@Z 004ad750 f   MapServer.obj
 0001:000aeff0       ?GoalPoint@CMapServer@@QAEXHF@Z 004afff0 f   MapServer.obj
 0001:000af790       ?GoldPorLevel@CMapServer@@QAEXH@Z 004b0790 f   MapServer.obj
 0001:000afd90       ?GrandMagicResultHandler@CMapServer@@QAEXPADHHHHH0@Z 004b0d90 f   MapServer.obj
 0001:000afeb0       ?HammerStrip@CMapServer@@QAEXHDHH@Z 004b0eb0 f   MapServer.obj
 0001:000b0c30       ?HandleRequestMemoryTops@CMapServer@@QAEXHFHH@Z 004b1c30 f   MapServer.obj
 0001:000b1b50       ?IniciarAllVsAll@CMapServer@@QAEXXZ 004b2b50 f   MapServer.obj
 0001:000b1d20       ?InitAbaddonEvent@CMapServer@@QAEXXZ 004b2d20 f   MapServer.obj
 0001:000b1f20       ?InitAllVsAll@CMapServer@@QAEXXZ 004b2f20 f   MapServer.obj
 0001:000b2160       ?InitArenaEvent@CMapServer@@QAEXXZ 004b3160 f   MapServer.obj
 0001:000b23a0       ?InitHellOfDeath@CMapServer@@QAEXXZ 004b33a0 f   MapServer.obj
 0001:000b25f0       ?InitItemsClient@CMapServer@@QAEXH@Z 004b35f0 f   MapServer.obj
 0001:000b33e0       ?InitPlayerData@CMapServer@@QAEXHPADK@Z 004b43e0 f   MapServer.obj
 0001:000b4a80       ?InitTowerDefence@CMapServer@@QAEXXZ 004b5a80 f   MapServer.obj
 0001:000b4c70       ?ItemDepleteHandler@CMapServer@@QAEXHFHH@Z 004b5c70 f   MapServer.obj
 0001:000b5050       ?JoinGuildApproveHandler@CMapServer@@QAEXHPAD@Z 004b6050 f   MapServer.obj
 0001:000b5440       ?JoinGuildRejectHandler@CMapServer@@QAEXHPAD@Z 004b6440 f   MapServer.obj
 0001:000b55b0       ?JoinPartyHandler@CMapServer@@QAEXHHPAD@Z 004b65b0 f   MapServer.obj
 0001:000b5b90       ?KillCrusadeObjects@CMapServer@@QAEXXZ 004b6b90 f   MapServer.obj
 0001:000b5ce0       ?LaunchSummonEvent@CMapServer@@QAEXXZ 004b6ce0 f   MapServer.obj
 0001:000b6030       ?LevelUpSettingsHandler@CMapServer@@QAEXHPADK@Z 004b7030 f   MapServer.obj
 0001:000b7020       ?LoadBannedList@CMapServer@@QAEXH@Z 004b8020 f   MapServer.obj
 0001:000b71d0       ?LoadPlayerItems@CMapServer@@QAEXH@Z 004b81d0 f   MapServer.obj
 0001:000b80c0       ?LocalEndCrusadeMode@CMapServer@@QAEXH@Z 004b90c0 f   MapServer.obj
 0001:000b8450       ?LocalEndRushNetMode@CMapServer@@QAEXH@Z 004b9450 f   MapServer.obj
 0001:000b8820       ?LocalSavePlayerData@CMapServer@@QAEXH@Z 004b9820 f   MapServer.obj
 0001:000b8c70       ?LocalStarHappyDay@CMapServer@@QAEXH@Z 004b9c70 f   MapServer.obj
 0001:000b8df0       ?LocalStarHappyHour@CMapServer@@QAEXH@Z 004b9df0 f   MapServer.obj
 0001:000b8f70       ?LocalStartCrusadeMode@CMapServer@@QAEXK@Z 004b9f70 f   MapServer.obj
 0001:000b92b0       ?LocalStartRushNetMode@CMapServer@@QAEXXZ 004ba2b0 f   MapServer.obj
 0001:000b94c0       ?ManaMe@CMapServer@@QAEXH@Z 004ba4c0 f   MapServer.obj
 0001:000b96b0       ?ManualEndCrusadeMode@CMapServer@@QAEXH@Z 004ba6b0 f   MapServer.obj
 0001:000b9770       ?ManualStartHappyDay@CMapServer@@QAEXHPADK@Z 004ba770 f   MapServer.obj
 0001:000b9a40       ?ManualStartHappyHour@CMapServer@@QAEXHPADK@Z 004baa40 f   MapServer.obj
 0001:000b9d10       ?MapStatusHandler@CMapServer@@QAEXHHPAD@Z 004bad10 f   MapServer.obj
 0001:000ba710       ?MeteorStrikeHandler@CMapServer@@QAEXH@Z 004bb710 f   MapServer.obj
 0001:000baea0       ?MeteorStrikeMsgHandler@CMapServer@@QAEXD@Z 004bbea0 f   MapServer.obj
 0001:000bb320       ?MineralGenerator@CMapServer@@QAEXXZ 004bc320 f   MapServer.obj
 0001:000bb550       ?MobGenerator@CMapServer@@QAEXXZ 004bc550 f   MapServer.obj
 0001:000c0af0       ?MsgProcess@CMapServer@@QAEXXZ 004c1af0 f   MapServer.obj
 0001:000c1bc0       ?MultiplicadorExp@CMapServer@@QAEXGK@Z 004c2bc0 f   MapServer.obj
 0001:000c1eb0       ?NextRound@CMapServer@@QAEXFFF@Z 004c2eb0 f   MapServer.obj
 0001:000c21b0       ?NivelObteined@CMapServer@@QAEXH@Z 004c31b0 f   MapServer.obj
 0001:000c3f30       ?NotifyCDelete@CMapServer@@QAEXH@Z 004c4f30 f   MapServer.obj
 0001:000c4020       ?NotifyCInsert@CMapServer@@QAEXH@Z 004c5020 f   MapServer.obj
 0001:000c4110       ?NotifyFragments@CMapServer@@QAEXH@Z 004c5110 f   MapServer.obj
 0001:000c4350       ?NotifyNewEndurance@CMapServer@@QAEXHFHH@Z 004c5350 f   MapServer.obj
 0001:000c4490       ?NotifyNewWeight@CMapServer@@QAEXHFG@Z 004c5490 f   MapServer.obj
 0001:000c4590       ?NotifyRankData@CMapServer@@QAEXH@Z 004c5590 f   MapServer.obj
 0001:000c4740       ?NpcBehavior_Attack@CMapServer@@QAEXH@Z 004c5740 f   MapServer.obj
 0001:000c7f30       ?NpcBehavior_Dead@CMapServer@@QAEXHH@Z 004c8f30 f   MapServer.obj
 0001:000c80a0       ?NpcBehavior_Flee@CMapServer@@QAEXH@Z 004c90a0 f   MapServer.obj
 0001:000c88c0       ?NpcBehavior_Move@CMapServer@@QAEXH@Z 004c98c0 f   MapServer.obj
 0001:000c9910       ?NpcBehavior_Stop@CMapServer@@QAEXH@Z 004ca910 f   MapServer.obj
 0001:000c9d50       ?NpcKilledHandler@CMapServer@@QAEXFDHFH@Z 004cad50 f   MapServer.obj
 0001:000cd060       ?NpcMagicHandler@CMapServer@@QAEXHFFF@Z 004ce060 f   MapServer.obj
 0001:000d09f0       ?NpcProcess@CMapServer@@QAEXXZ 004d19f0 f   MapServer.obj
 0001:000d14e0       ?NpcRequestAssistance@CMapServer@@QAEXH@Z 004d24e0 f   MapServer.obj
 0001:000d17d0       ?NpcTalkHandler@CMapServer@@QAEXHHH@Z 004d27d0 f   MapServer.obj
 0001:000d22d0       ?ObteinStarterKit@CMapServer@@QAEXH@Z 004d32d0 f   MapServer.obj
 0001:000d2a10       ?OnClientRead@CMapServer@@QAEXH@Z 004d3a10 f   MapServer.obj
 0001:000d2b30       ?OnClientSocketEvent@CMapServer@@QAEXIIJ@Z 004d3b30 f   MapServer.obj
 0001:000d2df0       ?OnKeyDown@CMapServer@@QAEXIJ@Z 004d3df0 f   MapServer.obj
 0001:000d2e60       ?OnKeyUp@CMapServer@@QAEXIJ@Z 004d3e60 f   MapServer.obj
 0001:000d3010       ?OnMainLogRead@CMapServer@@QAEXXZ 004d4010 f   MapServer.obj
 0001:000d3100       ?OnMainLogSocketEvent@CMapServer@@QAEXIIJ@Z 004d4100 f   MapServer.obj
 0001:000d32e0       ?OnStartGameSignal@CMapServer@@QAEXXZ 004d42e0 f   MapServer.obj
 0001:000d34b0       ?OnSubLogRead@CMapServer@@QAEXH@Z 004d44b0 f   MapServer.obj
 0001:000d35b0       ?OnSubLogSocketEvent@CMapServer@@QAEXIIJ@Z 004d45b0 f   MapServer.obj
 0001:000d3b80       ?OnTimer@CMapServer@@QAEXD@Z 004d4b80 f   MapServer.obj
 0001:000d4fe0       ?PK_KillRewardHandler@CMapServer@@QAEXFF@Z 004d5fe0 f   MapServer.obj
 0001:000d52e0       ?PandoraBox@CMapServer@@QAEXHF@Z 004d62e0 f   MapServer.obj
 0001:000d56b0       ?ParseCommand@CMapServer@@QAEXPAD@Z 004d66b0 f   MapServer.obj
 0001:000d5f70       ?PermitedType1@CMapServer@@QAE_NF@Z 004d6f70 f   MapServer.obj
 0001:000d5fc0       ?PermitedType2@CMapServer@@QAE_NF@Z 004d6fc0 f   MapServer.obj
 0001:000d6050       ?PlayerCommandCheckAdmins@CMapServer@@QAEXH@Z 004d7050 f   MapServer.obj
 0001:000d6250       ?PlayerMagicHandler@CMapServer@@QAEXHHHFHH@Z 004d7250 f   MapServer.obj
 0001:000eb040       ?PlayerOrder_ChangeCity@CMapServer@@QAEXH@Z 004ec040 f   MapServer.obj
 0001:000ebc00       ?PlayerReceivedCoords@CMapServer@@QAEXHHH@Z 004ecc00 f   MapServer.obj
 0001:000ebd50       ?PoisonEffect@CMapServer@@QAEXHH@Z 004ecd50 f   MapServer.obj
 0001:000ec0c0       ?QuestAcceptedHandler@CMapServer@@QAEXH@Z 004ed0c0 f   MapServer.obj
 0001:000ec560       ?Quit@CMapServer@@QAEXXZ   004ed560 f   MapServer.obj
 0001:000eced0       ?Random@CMapServer@@QAEHHH@Z 004eded0 f   MapServer.obj
 0001:000ecf30       ?ReadMapCFGs@CMapServer@@QAEHPAD@Z 004edf30 f   MapServer.obj
 0001:000ed320       ?ReadMarket@CMapServer@@QAEXH@Z 004ee320 f   MapServer.obj
 0001:000ed520       ?ReadProcessAndDllBlockedFile@CMapServer@@QAEHPADH@Z 004ee520 f   MapServer.obj
 0001:000ed780       ?ReadQuestItemsCFG@CMapServer@@QAEHPAD@Z 004ee780 f   MapServer.obj
 0001:000ef0f0       ?ReadTradeItems@CMapServer@@QAEHPAD@Z 004f00f0 f   MapServer.obj
 0001:000ef800       ?RecallHunterPlayer@CMapServer@@QAEXXZ 004f0800 f   MapServer.obj
 0001:000ef940       ?RefreshParty@CMapServer@@QAEXHF@Z 004f0940 f   MapServer.obj
 0001:000f0190       ?ReleaseFollowMode@CMapServer@@QAEXFD@Z 004f1190 f   MapServer.obj
 0001:000f02f0       ?ReleaseItemHandler@CMapServer@@QAEXHFH@Z 004f12f0 f   MapServer.obj
 0001:000f1200       ?ReloadSummonEventConfig@CMapServer@@QAEXXZ 004f2200 f   MapServer.obj
 0001:000f1350       ?RemoveClientShortCut@CMapServer@@QAEXH@Z 004f2350 f   MapServer.obj
 0001:000f14c0       ?RemoveCrusadeStructures@CMapServer@@QAEXXZ 004f24c0 f   MapServer.obj
 0001:000f1610       ?RemoveFromGuild@CMapServer@@QAEXH@Z 004f2610 f   MapServer.obj
 0001:000f1820       ?RemoveFromTarget@CMapServer@@QAEXFDH@Z 004f2820 f   MapServer.obj
 0001:000f1ad0       ?RemoveHODStructures@CMapServer@@QAEXXZ 004f2ad0 f   MapServer.obj
 0001:000f1be0       ?RemoveItemMasterID@CMapServer@@QAEXHFF@Z 004f2be0 f   MapServer.obj
 0001:000f1f10       ?RemoveItemUniqueID@CMapServer@@QAEXHFF@Z 004f2f10 f   MapServer.obj
 0001:000f23f0       ?RemoveOccupyFlags@CMapServer@@QAEXH@Z 004f33f0 f   MapServer.obj
 0001:000f2880       ?RemoveRushNetStructures@CMapServer@@QAEXXZ 004f3880 f   MapServer.obj
 0001:000f29f0       ?RemoveTotalID@CMapServer@@QAEXHFF@Z 004f39f0 f   MapServer.obj
 0001:000f2f70       ?RemoveTowerStructures@CMapServer@@QAEXXZ 004f3f70 f   MapServer.obj
 0001:000f3080       ?ReqCreateCraftingHandler@CMapServer@@QAEXHPAD@Z 004f4080 f   MapServer.obj
 0001:000f4c50       ?ReqCreatePortionHandler@CMapServer@@QAEXHPAD@Z 004f5c50 f   MapServer.obj
 0001:000f6070       ?ReqCreateSlateHandler@CMapServer@@QAEXHPAD@Z 004f7070 f   MapServer.obj
 0001:000f6f60       ?ReqGetFishThisTimeHandler@CMapServer@@QAEXH@Z 004f7f60 f   MapServer.obj
 0001:000f73c0       ?ReqMobHP@CMapServer@@QAEXHH@Z 004f83c0 f   MapServer.obj
 0001:000f7480       ?ReqRepairItemCofirmHandler2@CMapServer@@QAEXHDPAD@Z 004f8480 f   MapServer.obj
 0001:000f75f0       ?ReqRepairItemCofirmHandler@CMapServer@@QAEXHDPAD@Z 004f85f0 f   MapServer.obj
 0001:000f7c40       ?ReqRepairItemHandler@CMapServer@@QAEXHDDPAD@Z 004f8c40 f   MapServer.obj
 0001:000f82d0       ?ReqSellItemConfirmHandler@CMapServer@@QAEXHDHPAD@Z 004f92d0 f   MapServer.obj
 0001:000f9750       ?ReqSellItemHandler@CMapServer@@QAEXHDDHPAD@Z 004fa750 f   MapServer.obj
 0001:000fa540       ?RequestAcceptJoinPartyHandler@CMapServer@@QAEXHH@Z 004fb540 f   MapServer.obj
 0001:000fadc0       ?RequestBuyAssasainPoints@CMapServer@@QAEXHPADK@Z 004fbdc0 f   MapServer.obj
 0001:000fb1a0       ?RequestBuyItem@CMapServer@@QAEXHPADK@Z 004fc1a0 f   MapServer.obj
 0001:000fbb40       ?RequestCancelLogOutHandler@CMapServer@@QAEXH@Z 004fcb40 f   MapServer.obj
 0001:000fbbb0       ?RequestChargedTeleportHandler@CMapServer@@QAEXHPADK@Z 004fcbb0 f   MapServer.obj
 0001:000fc450       ?RequestCheckFlag@CMapServer@@QAEXH@Z 004fd450 f   MapServer.obj
 0001:000fc990       ?RequestCivilRightHandler@CMapServer@@QAEXHPAD@Z 004fd990 f   MapServer.obj
 0001:000fcbf0       ?RequestCreateNewGuildHandler@CMapServer@@QAEXHPADK@Z 004fdbf0 f   MapServer.obj
 0001:000fd460       ?RequestCreatePartyHandler@CMapServer@@QAEXH@Z 004fe460 f   MapServer.obj
 0001:000fd910       ?RequestDefineSellList@CMapServer@@QAEXHPADK@Z 004fe910 f   MapServer.obj
 0001:000fdbe0       ?RequestDisbandGuildHandler@CMapServer@@QAEXHPADK@Z 004febe0 f   MapServer.obj
 0001:000fddb0       ?RequestDismissPartyHandler@CMapServer@@QAEXH@Z 004fedb0 f   MapServer.obj
 0001:000fe4d0       ?RequestFullObjectData@CMapServer@@QAEXHPAD@Z 004ff4d0 f   MapServer.obj
 0001:000fee80       ?RequestGetMarketItem@CMapServer@@QAEXHPAD@Z 004ffe80 f   MapServer.obj
 0001:000ff7e0       ?RequestGuildMembers@CMapServer@@QAEXH@Z 005007e0 f   MapServer.obj
 0001:000ff9d0       ?RequestGuildNameHandler@CMapServer@@QAEXHHH@Z 005009d0 f   MapServer.obj
 0001:000ffb10       ?RequestGuildTeleportHandler@CMapServer@@QAEXH@Z 00500b10 f   MapServer.obj
 0001:000ffdd0       ?RequestHuntmode@CMapServer@@QAEXH@Z 00500dd0 f   MapServer.obj
 0001:001001b0       ?RequestInitDataHandler@CMapServer@@QAEXHPADDH@Z 005011b0 f   MapServer.obj
 0001:001015a0       ?RequestInitPlayerHandler@CMapServer@@QAEXHPADD@Z 005025a0 f   MapServer.obj
 0001:00102180       ?RequestItemUpgradeHandler@CMapServer@@QAEXHH@Z 00503180 f   MapServer.obj
 0001:00105700       ?RequestItemsList@CMapServer@@QAEXHPADK@Z 00506700 f   MapServer.obj
 0001:00105ac0       ?RequestJoinPartyHandler@CMapServer@@QAEXHPADK@Z 00506ac0 f   MapServer.obj
 0001:00105fc0       ?RequestLogOutHandler@CMapServer@@QAEXH@Z 00506fc0 f   MapServer.obj
 0001:00106030       ?RequestMarketItems@CMapServer@@QAEXHPAD@Z 00507030 f   MapServer.obj
 0001:00106650       ?RequestMarketNames@CMapServer@@QAEXH@Z 00507650 f   MapServer.obj
 0001:001069f0       ?RequestNoticementHandler@CMapServer@@QAEXHPAD@Z 005079f0 f   MapServer.obj
 0001:00106d50       ?RequestPurchaseItemHandler@CMapServer@@QAEXHPADH@Z 00507d50 f   MapServer.obj
 0001:00107b90       ?RequestRemoveItemExchange@CMapServer@@QAEXHH@Z 00508b90 f   MapServer.obj
 0001:001080d0       ?RequestRestartHandler@CMapServer@@QAEXH@Z 005090d0 f   MapServer.obj
 0001:00108c30       ?RequestResurrectPlayer@CMapServer@@QAEXHH@Z 00509c30 f   MapServer.obj
 0001:00109110       ?RequestRetrieveItemHandler@CMapServer@@QAEXHPAD@Z 0050a110 f   MapServer.obj
 0001:0010a0b0       ?RequestSellItemListHandler@CMapServer@@QAEXHPAD@Z 0050b0b0 f   MapServer.obj
 0001:0010a2a0       ?RequestSetGuildConstructLocHandler@CMapServer@@QAEXHHHHPAD@Z 0050b2a0 f   MapServer.obj
 0001:0010a760       ?RequestSetGuildTeleportLocHandler@CMapServer@@QAEXHHHHPAD@Z 0050b760 f   MapServer.obj
 0001:0010ac40       ?RequestSetMarketItem@CMapServer@@QAEXHPAD@Z 0050bc40 f   MapServer.obj
 0001:0010afe0       ?RequestStudyMagicHandler@CMapServer@@QAEXHPADH@Z 0050bfe0 f   MapServer.obj
 0001:0010b690       ?RequestSummonWarUnitHandler@CMapServer@@QAEXHHHDDD@Z 0050c690 f   MapServer.obj
 0001:0010c8f0       ?RequestTeleportHandler@CMapServer@@QAEXHPAD0HH@Z 0050d8f0 f   MapServer.obj
 0001:0010fc30       ?RequestTeleportListHandler@CMapServer@@QAEXHPADK@Z 00510c30 f   MapServer.obj
 0001:00110d80       ?RequestTradeItemHandler@CMapServer@@QAEXHPADHF@Z 00511d80 f   MapServer.obj
 0001:00111fe0       ?ResetAssasain@CMapServer@@QAEXHH@Z 00512fe0 f   MapServer.obj
 0001:001123a0       ?ResponseCreateNewGuildHandler@CMapServer@@QAEXPADK@Z 005133a0 f   MapServer.obj
 0001:001128e0       ?ResponseDisbandGuildHandler@CMapServer@@QAEXPADK@Z 005138e0 f   MapServer.obj
 0001:00112db0       ?ResponsePlayerDataHandler@CMapServer@@QAEXPADK@Z 00513db0 f   MapServer.obj
 0001:001130b0       ?ResponseSavePlayerDataReplyHandler@CMapServer@@QAEXPADK@Z 005140b0 f   MapServer.obj
 0001:00113230       ?RestoreItems@CMapServer@@QAEXH@Z 00514230 f   MapServer.obj
 0001:00113a70       ?ResurrectPlayer@CMapServer@@QAEXH@Z 00514a70 f   MapServer.obj
 0001:00113db0       ?RollDice@CMapServer@@QAEHHH@Z 00514db0 f   MapServer.obj
 0001:00113df0       ?SaveAllCharacters@CMapServer@@QAEXXZ 00514df0 f   MapServer.obj
 0001:00113ee0       ?SaveCharacterMarket@CMapServer@@QAEXH@Z 00514ee0 f   MapServer.obj
 0001:001146d0       ?SearchAssasainPosition@CMapServer@@QAEXH@Z 005156d0 f   MapServer.obj
 0001:001149a0       ?SearchStatusFriend@CMapServer@@QAEXHFQAD@Z 005159a0 f   MapServer.obj
 0001:00114b10       ?SelectCrusadeDutyHandler@CMapServer@@QAEXHH@Z 00515b10 f   MapServer.obj
 0001:00114cd0       ?SendAlertMsg@CMapServer@@QAEXHPAD@Z 00515cd0 f   MapServer.obj
 0001:00114da0       ?SendBankItemData@CMapServer@@QAEHHPAVCItem@@FH@Z 00515da0 f   MapServer.obj
 0001:001151c0       ?SendCollectedMana@CMapServer@@QAEXXZ 005161c0 f   MapServer.obj
 0001:00115370       ?SendCommand@CMapServer@@QAEXHPBDHH@Z 00516370 f   MapServer.obj
 0001:001154a0       ?SendContribution@CMapServer@@QAEXH@Z 005164a0 f   MapServer.obj
 0001:00115730       ?SendCriticals@CMapServer@@QAEXH@Z 00516730 f   MapServer.obj
 0001:001159c0       ?SendDataListItems@CMapServer@@QAEXHHFF@Z 005169c0 f   MapServer.obj
 0001:00116170       ?SendDllsBlocked@CMapServer@@QAEXH@Z 00517170 f   MapServer.obj
 0001:001162c0       ?SendEkAnnoucer@CMapServer@@QAEXQADH@Z 005172c0 f   MapServer.obj
 0001:001163d0       ?SendEnemyKills@CMapServer@@QAEXH@Z 005173d0 f   MapServer.obj
 0001:00116660       ?SendEventData@CMapServer@@QAEXH@Z 00517660 f   MapServer.obj
 0001:001167c0       ?SendEventOpenData@CMapServer@@QAEXH@Z 005177c0 f   MapServer.obj
 0001:00117130       ?SendEventToNearClient_TypeA@CMapServer@@QAEXFDKGFFF@Z 00518130 f   MapServer.obj
 0001:00118a70       ?SendEventToNearClient_TypeB@CMapServer@@QAEXKGDFFFFFF@Z 00519a70 f   MapServer.obj
 0001:00118f80       ?SendF5DataCharacter@CMapServer@@QAEXH@Z 00519f80 f   MapServer.obj
 0001:001190f0       ?SendGuildMsg@CMapServer@@QAEXHGFFPAD@Z 0051a0f0 f   MapServer.obj
 0001:00119650       ?SendHPStructures@CMapServer@@QAEXF@Z 0051a650 f   MapServer.obj
 0001:00119800       ?SendHpReliquia@CMapServer@@QAEXXZ 0051a800 f   MapServer.obj
 0001:001199f0       ?SendItemNotifyMsg@CMapServer@@QAEXHGPAVCItem@@H@Z 0051a9f0 f   MapServer.obj
 0001:0011a080       ?SendLasData@CMapServer@@QAEXH@Z 0051b080 f   MapServer.obj
 0001:0011a320       ?SendMessageToClientUDP@CMapServer@@QAEXH@Z 0051b320 f   MapServer.obj
 0001:0011a3d0       ?SendNotifyMsg@CMapServer@@QAEXHHGKKKPADKKKKKK0D@Z 0051b3d0 f   MapServer.obj
 0001:00120d30       ?SendObjectMotionRejectMsg@CMapServer@@QAEXH@Z 00521d30 f   MapServer.obj
 0001:00120f50       ?SendObjectsData@CMapServer@@QAEXH@Z 00521f50 f   MapServer.obj
 0001:00121150       ?SendPlayerData@CMapServer@@QAEXH@Z 00522150 f   MapServer.obj
 0001:00121860       ?SendProcessBlocked@CMapServer@@QAEXH@Z 00522860 f   MapServer.obj
 0001:001219b0       ?SendRestPlayerData@CMapServer@@QAEXH@Z 005229b0 f   MapServer.obj
 0001:001222d0       ?SendUDPCommand@CMapServer@@QAEXHPBDHH@Z 005232d0 f   MapServer.obj
 0001:00122430       ?SetAccountMsg@CMapServer@@QAEXHPADK@Z 00523430 f   MapServer.obj
 0001:00122800       ?SetAfkFlag@CMapServer@@QAEXHPADK@Z 00523800 f   MapServer.obj
 0001:00122b60       ?SetAngelFlag@CMapServer@@QAEXFDHH@Z 00523b60 f   MapServer.obj
 0001:00122fe0       ?SetBerserkFlag@CMapServer@@QAEXFDH@Z 00523fe0 f   MapServer.obj
 0001:00123200       ?SetDefenseShieldFlag@CMapServer@@QAEXFDH@Z 00524200 f   MapServer.obj
 0001:00123420       ?SetDownSkillIndexHandler@CMapServer@@QAEXHH@Z 00524420 f   MapServer.obj
 0001:00123570       ?SetExchangeItem@CMapServer@@QAEXHHH@Z 00524570 f   MapServer.obj
 0001:00124070       ?SetFlagCarrierFlag@CMapServer@@QAEXHH@Z 00525070 f   MapServer.obj
 0001:00124410       ?SetForceRecallTime@CMapServer@@QAEXH@Z 00525410 f   MapServer.obj
 0001:00124770       ?SetFuryWarFlag@CMapServer@@QAEXFDH@Z 00525770 f   MapServer.obj
 0001:001248d0       ?SetHeroFlag@CMapServer@@QAEXFDH@Z 005258d0 f   MapServer.obj
 0001:00124af0       ?SetIceFlag@CMapServer@@QAEXFDH@Z 00525af0 f   MapServer.obj
 0001:00124d10       ?SetIllusionFlag@CMapServer@@QAEXFDH@Z 00525d10 f   MapServer.obj
 0001:00124f30       ?SetIllusionMovementFlag@CMapServer@@QAEXFDH@Z 00525f30 f   MapServer.obj
 0001:00125090       ?SetInhibitionFlag@CMapServer@@QAEXFDH@Z 00526090 f   MapServer.obj
 0001:001251b0       ?SetInvisibilityFlag@CMapServer@@QAEXFDH@Z 005261b0 f   MapServer.obj
 0001:001253d0       ?SetItemCount@CMapServer@@QAEHHHK@Z 005263d0 f   MapServer.obj
 0001:00125570       ?SetItemCount@CMapServer@@QAEHHPADK@Z 00526570 f   MapServer.obj
 0001:001257b0       ?SetLimboAfkFlag@CMapServer@@QAEXHH@Z 005267b0 f   MapServer.obj
 0001:00125af0       ?SetMagicProtectionFlag@CMapServer@@QAEXFDH@Z 00526af0 f   MapServer.obj
 0001:00125d10       ?SetNoHunterMode@CMapServer@@QAEXHH@Z 00526d10 f   MapServer.obj
 0001:00125f60       ?SetPlayerProfile@CMapServer@@QAEXHPADK@Z 00526f60 f   MapServer.obj
 0001:00126160       ?SetPlayerReputation@CMapServer@@QAEXHPADDK@Z 00527160 f   MapServer.obj
 0001:00126880       ?SetPoisonFlag@CMapServer@@QAEXFDH@Z 00527880 f   MapServer.obj
 0001:00126aa0       ?SetProtectionFromArrowFlag@CMapServer@@QAEXFDH@Z 00527aa0 f   MapServer.obj
 0001:00126cc0       ?SetSlateFlag@CMapServer@@QAEXHF_N@Z 00527cc0 f   MapServer.obj
 0001:00127040       ?SetSummonMobAction@CMapServer@@QAEXHHKPAD@Z 00528040 f   MapServer.obj
 0001:00127730       ?ShowClientMsg@CMapServer@@QAEXHPAD@Z 00528730 f   MapServer.obj
 0001:001279e0       ?ShowVersion@CMapServer@@QAEXH@Z 005289e0 f   MapServer.obj
 0001:00127a80       ?ShutUpPlayer@CMapServer@@QAEXHPADK@Z 00528a80 f   MapServer.obj
 0001:00127fe0       ?SpecialEventHandler@CMapServer@@QAEXXZ 00528fe0 f   MapServer.obj
 0001:00128100       ?StartAllDkEks@CMapServer@@QAEXXZ 00529100 f   MapServer.obj
 0001:001282b0       ?StartAllEks@CMapServer@@QAEXXZ 005292b0 f   MapServer.obj
 0001:00128460       ?StartCaptureTheFlag@CMapServer@@QAEXXZ 00529460 f   MapServer.obj
 0001:001285a0       ?StartCityVsCity@CMapServer@@QAEXXZ 005295a0 f   MapServer.obj
 0001:00128770       ?StartDkEvent@CMapServer@@QAEXH@Z 00529770 f   MapServer.obj
 0001:00128920       ?StartWorldWar@CMapServer@@QAEXXZ 00529920 f   MapServer.obj
 0001:00128ac0       ?StartWorldWarII@CMapServer@@QAEXXZ 00529ac0 f   MapServer.obj
 0001:00128c60       ?StateChangeHandler@CMapServer@@QAEXHPADK@Z 00529c60 f   MapServer.obj
 0001:00129820       ?SummonAresden@CMapServer@@QAEXXZ 0052a820 f   MapServer.obj
 0001:00129e70       ?SummonAssasain@CMapServer@@QAEXXZ 0052ae70 f   MapServer.obj
 0001:0012a4c0       ?SummonCelebrate@CMapServer@@QAEXH@Z 0052b4c0 f   MapServer.obj
 0001:0012ab80       ?SummonElvine@CMapServer@@QAEXXZ 0052bb80 f   MapServer.obj
 0001:0012b1d0       ?SyncMiddlelandMapInfo@CMapServer@@QAEXXZ 0052c1d0 f   MapServer.obj
 0001:0012b310       ?TargetSearch@CMapServer@@QAEXHPAFPAD@Z 0052c310 f   MapServer.obj
 0001:0012bcb0       ?TimeHitPointsUp@CMapServer@@QAEXH@Z 0052ccb0 f   MapServer.obj
 0001:0012c0a0       ?TimeManaPointsUp@CMapServer@@QAEXH@Z 0052d0a0 f   MapServer.obj
 0001:0012c450       ?TimeStaminarPointsUp@CMapServer@@QAEXH@Z 0052d450 f   MapServer.obj
 0001:0012c7f0       ?ToggleCombatModeHandler@CMapServer@@QAEXH@Z 0052d7f0 f   MapServer.obj
 0001:0012ca20       ?ToggleSafeAttackModeHandler@CMapServer@@QAEXH@Z 0052da20 f   MapServer.obj
 0001:0012cca0       ?ToggleWhisperPlayer@CMapServer@@QAEXHPADK@Z 0052dca0 f   MapServer.obj
 0001:0012d250       ?TrainSkillResponse@CMapServer@@QAEXHHHH@Z 0052e250 f   MapServer.obj
 0001:0012d540       ?UnEquipItems@CMapServer@@QAEXH@Z 0052e540 f   MapServer.obj
 0001:0012d630       ?UpdateMapSectorInfo@CMapServer@@QAEXXZ 0052e630 f   MapServer.obj
 0001:0012dfb0       ?UpdateProcessClient@CMapServer@@QAEXXZ 0052efb0 f   MapServer.obj
 0001:0012e0d0       ?UpdateRushNet@CMapServer@@QAEXH_N@Z 0052f0d0 f   MapServer.obj
 0001:0012e280       ?UpdateTowerDefence@CMapServer@@QAEXH@Z 0052f280 f   MapServer.obj
 0001:0012e450       ?UseItemHandler@CMapServer@@QAEXHFFFF@Z 0052f450 f   MapServer.obj
 0001:00131ff0       ?UseSkillHandler@CMapServer@@QAEXHHHH@Z 00532ff0 f   MapServer.obj
 0001:00132200       ?UserCommand_BanGuildsman@CMapServer@@QAEXHPADK@Z 00533200 f   MapServer.obj
 0001:001327f0       ?VerificarItem@CMapServer@@QAEHH@Z 005337f0 f   MapServer.obj
 0001:00132f00       ?WhetherProcessor@CMapServer@@QAEXXZ 00533f00 f   MapServer.obj
 0001:00133320       ?WriteTradeLog@CMapServer@@QAEXXZ 00534320 f   MapServer.obj
 0001:00133680       ?ZerkMe@CMapServer@@QAEXH@Z 00534680 f   MapServer.obj
 0001:001338d0       ?_AdjustRareItemValue@CMapServer@@QAEXPAVCItem@@@Z 005348d0 f   MapServer.obj
 0001:00133b20       ?_Adopt@_Iterator_base0@std@@QAEXPBX@Z 00534b20 f i MapServer.obj
 0001:00133b40       ?_Alloc_sentinel_and_proxy@?$_Tree@V?$_Tmap_traits@FHU?$less@F@std@@V?$allocator@U?$pair@$$CBFH@std@@@2@$0A@@std@@@std@@IAEXXZ 00534b40 f i MapServer.obj
 0001:00133c10       ?_Allocate@?$_Alloc_construct_ptr@V?$allocator@U?$_Tree_node@U?$pair@$$CBFH@std@@PAX@std@@@std@@@std@@QAEXXZ 00534c10 f i MapServer.obj
 0001:00133c50       ?_ArmarQuestContens@CMapServer@@QAEXHH@Z 00534c50 f   MapServer.obj
 0001:00133ea0       ?_BWM_Command_Shutup@CMapServer@@QAEXPAD@Z 00534ea0 f   MapServer.obj
 0001:001340f0       ?_Calculate_growth@?$vector@Ust_objects@CMapServer@@V?$allocator@Ust_objects@CMapServer@@@std@@@std@@ABEII@Z 005350f0 f i MapServer.obj
 0001:00134240       ?_Change_array@?$vector@Ust_objects@CMapServer@@V?$allocator@Ust_objects@CMapServer@@@std@@@std@@AAEXQAUst_objects@CMapServer@@II@Z 00535240 f i MapServer.obj
 0001:00134320       ?_CheckAttackType@CMapServer@@QAEXHPAF@Z 00535320 f   MapServer.obj
 0001:00134840       ?_CheckMiningAction@CMapServer@@QAEXHHH@Z 00535840 f   MapServer.obj
 0001:001359f0       ?_CheckQuestEnvironment@CMapServer@@QAEXH@Z 005369f0 f   MapServer.obj
 0001:00135c90       ?_Check_grow_by_1@?$_Tree@V?$_Tmap_traits@FHU?$less@F@std@@V?$allocator@U?$pair@$$CBFH@std@@@2@$0A@@std@@@std@@IAEXXZ 00536c90 f i MapServer.obj
 0001:00135cd0       ?_ClearExchangeStatus@CMapServer@@QAEXH@Z 00536cd0 f   MapServer.obj
 0001:00135f50       ?_ClearQuestStatus@CMapServer@@QAEXHF@Z 00536f50 f   MapServer.obj
 0001:00136210       ?_Get_first@?$_Compressed_pair@U?$less@F@std@@V?$_Compressed_pair@V?$allocator@U?$_Tree_node@U?$pair@$$CBFH@std@@PAX@std@@@std@@V?$_Tree_val@U?$_Tree_simple_types@U?$pair@$$CBFH@std@@@std@@@2@$00@2@$00@std@@QBEABU?$less@F@2@XZ 00537210 f i MapServer.obj
 0001:00136230       ?_Get_first@?$_Compressed_pair@V?$allocator@U?$_Tree_node@U?$pair@$$CBFH@std@@PAX@std@@@std@@V?$_Tree_val@U?$_Tree_simple_types@U?$pair@$$CBFH@std@@@std@@@2@$00@std@@QAEAAV?$allocator@U?$_Tree_node@U?$pair@$$CBFH@std@@PAX@std@@@2@XZ 00537230 f i MapServer.obj
 0001:00136250       ?_Get_first@?$_Compressed_pair@V?$allocator@U?$_Tree_node@U?$pair@$$CBFH@std@@PAX@std@@@std@@V?$_Tree_val@U?$_Tree_simple_types@U?$pair@$$CBFH@std@@@std@@@2@$00@std@@QBEABV?$allocator@U?$_Tree_node@U?$pair@$$CBFH@std@@PAX@std@@@2@XZ 00537250 f i MapServer.obj
 0001:001362b0       ?_Get_first@?$_Compressed_pair@V?$allocator@URebirthLevelSettings@CMapServer@@@std@@V?$_Vector_val@U?$_Simple_types@URebirthLevelSettings@CMapServer@@@std@@@2@$00@std@@QAEAAV?$allocator@URebirthLevelSettings@CMapServer@@@2@XZ 005372b0 f i MapServer.obj
 0001:001362d0       ?_Get_first@?$_Compressed_pair@V?$allocator@Ust_objects@CMapServer@@@std@@V?$_Vector_val@U?$_Simple_types@Ust_objects@CMapServer@@@std@@@2@$00@std@@QAEAAV?$allocator@Ust_objects@CMapServer@@@2@XZ 005372d0 f i MapServer.obj
 0001:001362f0       ?_Get_first@?$_Compressed_pair@V?$allocator@Ust_objects@CMapServer@@@std@@V?$_Vector_val@U?$_Simple_types@Ust_objects@CMapServer@@@std@@@2@$00@std@@QBEABV?$allocator@Ust_objects@CMapServer@@@2@XZ 005372f0 f i MapServer.obj
 0001:00136310       ?_Get_scary@?$_Tree@V?$_Tmap_traits@FHU?$less@F@std@@V?$allocator@U?$pair@$$CBFH@std@@@2@$0A@@std@@@std@@IAEPAV?$_Tree_val@U?$_Tree_simple_types@U?$pair@$$CBFH@std@@@std@@@2@XZ 00537310 f i MapServer.obj
 0001:00136340       ?_Get_scary@?$_Tree@V?$_Tmap_traits@FHU?$less@F@std@@V?$allocator@U?$pair@$$CBFH@std@@@2@$0A@@std@@@std@@IBEPBV?$_Tree_val@U?$_Tree_simple_types@U?$pair@$$CBFH@std@@@std@@@2@XZ 00537340 f i MapServer.obj
 0001:00136370       ?_Getal@?$_Tree@V?$_Tmap_traits@FHU?$less@F@std@@V?$allocator@U?$pair@$$CBFH@std@@@2@$0A@@std@@@std@@IAEAAV?$allocator@U?$_Tree_node@U?$pair@$$CBFH@std@@PAX@std@@@2@XZ 00537370 f i MapServer.obj
 0001:001363a0       ?_Getal@?$_Tree@V?$_Tmap_traits@FHU?$less@F@std@@V?$allocator@U?$pair@$$CBFH@std@@@2@$0A@@std@@@std@@IBEABV?$allocator@U?$_Tree_node@U?$pair@$$CBFH@std@@PAX@std@@@2@XZ 005373a0 f i MapServer.obj
 0001:00136430       ?_Getal@?$vector@URebirthLevelSettings@CMapServer@@V?$allocator@URebirthLevelSettings@CMapServer@@@std@@@std@@AAEAAV?$allocator@URebirthLevelSettings@CMapServer@@@2@XZ 00537430 f i MapServer.obj
 0001:00136460       ?_Getal@?$vector@Ust_objects@CMapServer@@V?$allocator@Ust_objects@CMapServer@@@std@@@std@@AAEAAV?$allocator@Ust_objects@CMapServer@@@2@XZ 00537460 f i MapServer.obj
 0001:00136490       ?_Getal@?$vector@Ust_objects@CMapServer@@V?$allocator@Ust_objects@CMapServer@@@std@@@std@@ABEABV?$allocator@Ust_objects@CMapServer@@@2@XZ 00537490 f i MapServer.obj
 0001:001364c0       ?_Getcomp@?$_Tree@V?$_Tmap_traits@FHU?$less@F@std@@V?$allocator@U?$pair@$$CBFH@std@@@2@$0A@@std@@@std@@IBEABU?$less@F@2@XZ 005374c0 f i MapServer.obj
 0001:001364f0       ?_Insert_node@?$_Tree_val@U?$_Tree_simple_types@U?$pair@$$CBFH@std@@@std@@@std@@QAEPAU?$_Tree_node@U?$pair@$$CBFH@std@@PAX@2@U?$_Tree_id@PAU?$_Tree_node@U?$pair@$$CBFH@std@@PAX@std@@@2@QAU32@@Z 005374f0 f i MapServer.obj
 0001:00136790       ?_LinkStrikePointMapIndex@CMapServer@@QAEXXZ 00537790 f   MapServer.obj
 0001:00136980       ?_Lrotate@?$_Tree_val@U?$_Tree_simple_types@U?$pair@$$CBFH@std@@@std@@@std@@QAEXPAU?$_Tree_node@U?$pair@$$CBFH@std@@PAX@2@@Z 00537980 f i MapServer.obj
 0001:00136a50       ?_Mark@?$_String_bitmap@D$00@std@@QAE_NPBDQBD@Z 00537a50 f i MapServer.obj
 0001:00136aa0       ?_Match@?$_String_bitmap@D$00@std@@QBE_ND@Z 00537aa0 f i MapServer.obj
 0001:00136ad0       ?_Min@?$_Tree_val@U?$_Tree_simple_types@U?$pair@$$CBFH@std@@@std@@@std@@SAPAU?$_Tree_node@U?$pair@$$CBFH@std@@PAX@2@PAU32@@Z 00537ad0 f i MapServer.obj
 0001:00136b10       ?_Mymtx@_Mutex_base@std@@AAEPAU_Mtx_internal_imp_t@@XZ 00537b10 f i MapServer.obj
 0001:00136b30       ?_NpcBehavior_GrandMagicGenerator@CMapServer@@QAEXH@Z 00537b30 f   MapServer.obj
 0001:00136e70       ?_Orphan_range@?$vector@Ust_objects@CMapServer@@V?$allocator@Ust_objects@CMapServer@@@std@@@std@@ABEXPAUst_objects@CMapServer@@0@Z 00537e70 f i MapServer.obj
 0001:00136f30       ?_Orphan_range_locked@?$vector@Ust_objects@CMapServer@@V?$allocator@Ust_objects@CMapServer@@@std@@@std@@ABEXPAUst_objects@CMapServer@@0@Z 00537f30 f i MapServer.obj
 0001:00137050       ?_Orphan_range_unlocked@?$vector@Ust_objects@CMapServer@@V?$allocator@Ust_objects@CMapServer@@@std@@@std@@ABEXPAUst_objects@CMapServer@@0@Z 00538050 f i MapServer.obj
 0001:001370e0       ?_PenaltyItemDrop@CMapServer@@QAEXHHHH@Z 005380e0 f   MapServer.obj
 0001:00137a50       ?_Release@?$_Alloc_construct_ptr@V?$allocator@U?$_Tree_node@U?$pair@$$CBFH@std@@PAX@std@@@std@@@std@@QAEPAU?$_Tree_node@U?$pair@$$CBFH@std@@PAX@2@XZ 00538a50 f i MapServer.obj
 0001:00137ac0       ?_Release@?$_Uninitialized_backout_al@V?$allocator@Ust_objects@CMapServer@@@std@@@std@@QAEPAUst_objects@CMapServer@@XZ 00538ac0 f i MapServer.obj
 0001:00137af0       ?_RevertRareItemValue@CMapServer@@QAEXPAVCItem@@@Z 00538af0 f   MapServer.obj
 0001:00137ca0       ?_Rrotate@?$_Tree_val@U?$_Tree_simple_types@U?$pair@$$CBFH@std@@@std@@@std@@QAEXPAU?$_Tree_node@U?$pair@$$CBFH@std@@PAX@2@@Z 00538ca0 f i MapServer.obj
 0001:00137d70       ?_SendMapStatus@CMapServer@@QAEXH@Z 00538d70 f   MapServer.obj
 0001:00138220       ?_SendQuestContents@CMapServer@@QAEXH@Z 00539220 f   MapServer.obj
 0001:00138a50       ?_SetItemPos@CMapServer@@QAEXHPAD@Z 00539a50 f   MapServer.obj
 0001:00138be0       ?_TamingHandler@CMapServer@@QAEXHHDHH@Z 00539be0 f   MapServer.obj
 0001:00138f80       ?_Throw_tree_length_error@std@@YAXXZ 00539f80 f i MapServer.obj
 0001:00139080       ?_Tidy@?$vector@URebirthLevelSettings@CMapServer@@V?$allocator@URebirthLevelSettings@CMapServer@@@std@@@std@@AAEXXZ 0053a080 f i MapServer.obj
 0001:00139150       ?_Tidy@?$vector@Ust_objects@CMapServer@@V?$allocator@Ust_objects@CMapServer@@@std@@@std@@AAEXXZ 0053a150 f i MapServer.obj
 0001:00139220       ?_Unchecked_begin@?$_Tree@V?$_Tmap_traits@FHU?$less@F@std@@V?$allocator@U?$pair@$$CBFH@std@@@2@$0A@@std@@@std@@QAE?AV?$_Tree_unchecked_iterator@V?$_Tree_val@U?$_Tree_simple_types@U?$pair@$$CBFH@std@@@std@@@std@@@2@XZ 0053a220 f i MapServer.obj
 0001:00139290       ?_Unchecked_end@?$_Tree@V?$_Tmap_traits@FHU?$less@F@std@@V?$allocator@U?$pair@$$CBFH@std@@@2@$0A@@std@@@std@@QBE?AU_Default_sentinel@2@XZ 0053a290 f i MapServer.obj
 0001:001392f0       ?_Verify_ownership_levels@_Mutex_base@std@@IAE_NXZ 0053a2f0 f i MapServer.obj
 0001:00139370       ?_Xlength@?$vector@Ust_objects@CMapServer@@V?$allocator@Ust_objects@CMapServer@@@std@@@std@@CAXXZ 0053a370 f i MapServer.obj
 0001:001393a0       ?___RestorePlayerCharacteristics@CMapServer@@QAEXH@Z 0053a3a0 f   MapServer.obj
 0001:0013acd0       ?___RestorePlayerRating@CMapServer@@QAEXH@Z 0053bcd0 f   MapServer.obj
 0001:0013ae40       ?__bReadMapInfo@CMapServer@@QAEHH@Z 0053be40 f   MapServer.obj
 0001:00143420       ?__bSetAgricultureItem@CMapServer@@QAEHHHHHHH@Z 00544420 f   MapServer.obj
 0001:00143c00       ?__bSetConstructionKit@CMapServer@@QAEHHHHHHH@Z 00544c00 f   MapServer.obj
 0001:001441d0       ?__bSetOccupyFlag@CMapServer@@QAEHDHHHHHH@Z 005451d0 f   MapServer.obj
 0001:001446a0       ?__iSearchForQuest@CMapServer@@QAEHHHPAH0000PAD00000@Z 005456a0 f   MapServer.obj
 0001:00144bf0       ?_bAddClientItemList@CMapServer@@QAEHHPAVCItem@@PAH@Z 00545bf0 f   MapServer.obj
 0001:00144fe0       ?_bCheckGoodItem@CMapServer@@QAEHPAVCItem@@@Z 00545fe0 f   MapServer.obj
 0001:001453a0       ?_bCheckIsQuestCompleted@CMapServer@@QAEHHF@Z 005463a0 f   MapServer.obj
 0001:00145a30       ?_bCheckSubLogSocketIndex@CMapServer@@QAEHXZ 00546a30 f   MapServer.obj
 0001:00145b90       ?_bDecodeBuildItemConfigFileContents@CMapServer@@QAEHPAD@Z 00546b90 f   MapServer.obj
 0001:00147650       ?_bDecodeItemConfigFileContents@CMapServer@@QAEHPAD@Z 00548650 f   MapServer.obj
 0001:001491c0       ?_bDecodeMagicConfigFileContents@CMapServer@@QAEHPAD@Z 0054a1c0 f   MapServer.obj
 0001:0014a720       ?_bDecodeNoticementFileContents@CMapServer@@QAEXPAD@Z 0054b720 f   MapServer.obj
 0001:0014a910       ?_bDecodeNpcConfigFileContents@CMapServer@@QAEHPAD@Z 0054b910 f   MapServer.obj
 0001:0014c510       ?_bDecodePlayerDatafileContents2@CMapServer@@QAEHHPADK@Z 0054d510 f   MapServer.obj
 0001:0014e900       ?_bDecodePlayerDatafileContents@CMapServer@@QAEHHPADK@Z 0054f900 f   MapServer.obj
 0001:0015b5c0       ?_bDecodePortionConfigFileContents@CMapServer@@QAEHPAD@Z 0055c5c0 f   MapServer.obj
 0001:0015c650       ?_bDecodeQuestConfigFileContents@CMapServer@@QAEHPAD@Z 0055d650 f   MapServer.obj
 0001:0015e170       ?_bDecodeSkillConfigFileContents@CMapServer@@QAEHPAD@Z 0055f170 f   MapServer.obj
 0001:0015eda0       ?_bDepleteDestTypeItemUseEffect@CMapServer@@QAEHHHHFF@Z 0055fda0 f   MapServer.obj
 0001:001602a0       ?_bGetIsPlayerHostile@CMapServer@@QAEHHH@Z 005612a0 f   MapServer.obj
 0001:001604e0       ?_bGetIsStringIsNumber@CMapServer@@QAEHPAD@Z 005614e0 f   MapServer.obj
 0001:001605f0       ?_bInitItemAttr@CMapServer@@QAEHPAVCItem@@H@Z 005615f0 f   MapServer.obj
 0001:00160a60       ?_bInitItemAttr@CMapServer@@QAEHPAVCItem@@PAD@Z 00561a60 f   MapServer.obj
 0001:00160ef0       ?_bInitNpcAttr@CMapServer@@QAEHPAVCNpc@@PADFD@Z 00561ef0 f   MapServer.obj
 0001:00161b70       ?_bItemLog@CMapServer@@QAEHHHHPAVCItem@@H@Z 00562b70 f   MapServer.obj
 0001:00162860       ?_bItemLog@CMapServer@@QAEHHHPADPAVCItem@@H@Z 00563860 f   MapServer.obj
 0001:00162dc0       ?_bNpcBehavior_Detector@CMapServer@@QAEHH@Z 00563dc0 f   MapServer.obj
 0001:00163150       ?_bNpcBehavior_ManaCollector@CMapServer@@QAEHH@Z 00564150 f   MapServer.obj
 0001:00163880       ?_bPKLog@CMapServer@@QAEHHHHPADH@Z 00564880 f   MapServer.obj
 0001:001641b0       ?_bReadItemsEventCFG@CMapServer@@QAEHPAD@Z 005651b0 f   MapServer.obj
 0001:001646a0       ?_bReadMapInfoFiles@CMapServer@@QAEHH@Z 005656a0 f   MapServer.obj
 0001:00164760       ?_bRegisterMap@CMapServer@@QAEHPAD@Z 00565760 f   MapServer.obj
 0001:00164b50       ?_cGetSpecialAbility@CMapServer@@QAEDH@Z 00565b50 f   MapServer.obj
 0001:00164f30       ?_iCalcMaxLoad@CMapServer@@QAEHH@Z 00565f30 f   MapServer.obj
 0001:00165060       ?_iCalcPlayerNum@CMapServer@@QAEHDFFD@Z 00566060 f   MapServer.obj
 0001:00165280       ?_iCalcSkillSSNpoint@CMapServer@@QAEHH@Z 00566280 f   MapServer.obj
 0001:00165360       ?_iComposeFlagStatusContents@CMapServer@@QAEHPAD@Z 00566360 f   MapServer.obj
 0001:00165640       ?_iComposePlayerDataFileContents@CMapServer@@QAEHHPAD@Z 00566640 f   MapServer.obj
 0001:00169800       ?_iForcePlayerDisconect@CMapServer@@QAEHXZ 0056a800 f   MapServer.obj
 0001:001699b0       ?_iGetArrowItemIndex@CMapServer@@QAEHH@Z 0056a9b0 f   MapServer.obj
 0001:00169b00       ?_iGetItemSpaceLeft@CMapServer@@QAEHH@Z 0056ab00 f   MapServer.obj
 0001:00169c00       ?_iGetMagicNumber@CMapServer@@QAEHPADPAH1@Z 0056ac00 f   MapServer.obj
 0001:00169d70       ?_iGetPlayerNumberOnSpot@CMapServer@@QAEHFFDD@Z 0056ad70 f   MapServer.obj
 0001:00169ed0       ?_iGetWeaponSkillType@CMapServer@@QAEHH@Z 0056aed0 f   MapServer.obj
 0001:0016a0b0       ?_iTalkToNpcResult_Cityhall@CMapServer@@QAEHHPAH0000PAD00000@Z 0056b0b0 f   MapServer.obj
 0001:0016a9f0       ?_iTalkToNpcResult_Guard@CMapServer@@QAEHHPAH0000PAD00000@Z 0056b9f0 f   MapServer.obj
 0001:0016ae70       ?abs@@YANN@Z               0056be70 f i MapServer.obj
 0001:0016aea0       ?allocate@?$allocator@U?$_Tree_node@U?$pair@$$CBFH@std@@PAX@std@@@std@@QAEPAU?$_Tree_node@U?$pair@$$CBFH@std@@PAX@2@I@Z 0056bea0 f i MapServer.obj
 0001:0016af20       ?allocate@?$allocator@Ust_objects@CMapServer@@@std@@QAEPAUst_objects@CMapServer@@I@Z 0056bf20 f i MapServer.obj
 0001:0016af60       ?bAccept@CMapServer@@QAEHPAVXSocket@@@Z 0056bf60 f   MapServer.obj
 0001:0016bba0       ?bAddClientShortCut@CMapServer@@QAEHH@Z 0056cba0 f   MapServer.obj
 0001:0016bcd0       ?bAddItem@CMapServer@@QAEHHPAVCItem@@D@Z 0056ccd0 f   MapServer.obj
 0001:0016c270       ?bAddMagicAngelInt@CMapServer@@QAEHH@Z 0056d270 f   MapServer.obj
 0001:0016c410       ?bAnalyzeCriminalAction@CMapServer@@QAEHHFFH@Z 0056d410 f   MapServer.obj
 0001:0016c8f0       ?bChangeState@CMapServer@@QAEHDPAD00000@Z 0056d8f0 f   MapServer.obj
 0001:0016ca60       ?bCheckAndConvertPlusWeaponItem@CMapServer@@QAEHHH@Z 0056da60 f   MapServer.obj
 0001:0016cb60       ?bCheckAngelInt@CMapServer@@QAEHH@Z 0056db60 f   MapServer.obj
 0001:0016cce0       ?bCheckClientAttackFrequency@CMapServer@@QAEHHK@Z 0056dce0 f   MapServer.obj
 0001:0016ce80       ?bCheckClientMagicFrequency@CMapServer@@QAEHHK@Z 0056de80 f   MapServer.obj
 0001:0016d020       ?bCheckClientStatLvl@CMapServer@@QAEHH@Z 0056e020 f   MapServer.obj
 0001:0016d310       ?bCheckEnergySphereDestination@CMapServer@@QAEHHFD@Z 0056e310 f   MapServer.obj
 0001:0016d520       ?bCheckIfIsFlagCarrier@CMapServer@@QAEHH@Z 0056e520 f   MapServer.obj
 0001:0016d620       ?bCheckIsItemUpgradeSuccess@CMapServer@@QAEHHHHH@Z 0056e620 f   MapServer.obj
 0001:0016d990       ?bCheckLevelUp@CMapServer@@QAEHH@Z 0056e990 f   MapServer.obj
 0001:0016e4b0       ?bCheckLimitedUser@CMapServer@@QAEHH@Z 0056f4b0 f   MapServer.obj
 0001:0016e610       ?bCheckMagicInt@CMapServer@@QAEHH@Z 0056f610 f   MapServer.obj
 0001:0016e730       ?bCheckResistingIceSuccess@CMapServer@@QAEHDFDH@Z 0056f730 f   MapServer.obj
 0001:0016e980       ?bCheckResistingMagicSuccess@CMapServer@@QAEHDFDHD@Z 0056f980 f   MapServer.obj
 0001:0016edc0       ?bCheckResistingPoisonSuccess@CMapServer@@QAEHFD@Z 0056fdc0 f   MapServer.obj
 0001:0016ef50       ?bCheckTotalSkillMasteryPoints@CMapServer@@QAEHHH@Z 0056ff50 f   MapServer.obj
 0001:0016f510       ?bCopyItemContents@CMapServer@@QAEHPAVCItem@@0@Z 00570510 f   MapServer.obj
 0001:0016f820       ?bCreateNewNpc@CMapServer@@QAEHPAD00FDDPAH10PAUtagRECT@@HDHHHHH@Z 00570820 f   MapServer.obj
 0001:00171560       ?bCropsItemDrop@CMapServer@@QAEHHFH@Z 00572560 f   MapServer.obj
 0001:00171c90       ?bDecodePlayerMarketItemContents@CMapServer@@QAEXHPADK@Z 00572c90 f   MapServer.obj
 0001:00173340       ?bDecodeTeleportList@CMapServer@@QAEHPAD@Z 00574340 f   MapServer.obj
 0001:00174570       ?bDeleteFish@CMapServer@@QAEHHH@Z 00575570 f   MapServer.obj
 0001:00174900       ?bDeleteMineral@CMapServer@@QAEHH@Z 00575900 f   MapServer.obj
 0001:00174be0       ?bEquipItemHandler@CMapServer@@QAEHHFH@Z 00575be0 f   MapServer.obj
 0001:00177f20       ?bGetEmptyArea@CMapServer@@QAEHFDFFD@Z 00578f20 f   MapServer.obj
 0001:001780d0       ?bGetEmptyPosition@CMapServer@@QAEHPAF0D@Z 005790d0 f   MapServer.obj
 0001:001782d0       ?bGetMsgQuene@CMapServer@@QAIHPAD0PAKPAH0@Z 005792d0 f   MapServer.obj
 0001:00178480       ?bGetNpcMovementArea@CMapServer@@QAEHFFFDD@Z 00579480 f   MapServer.obj
 0001:001786b0       ?bInit@CMapServer@@QAEHXZ  005796b0 f   MapServer.obj
 0001:0017ad60       ?bOnClose@CMapServer@@QAEHXZ 0057bd60 f   MapServer.obj
 0001:0017add0       ?bProbabilityTable@CMapServer@@QAEHHHH@Z 0057bdd0 f   MapServer.obj
 0001:0017af60       ?bPutMsgQuene@CMapServer@@QAIHDPADKHD@Z 0057bf60 f   MapServer.obj
 0001:0017b150       ?bReadCVCStructureConfigFile@CMapServer@@QAEHPAD@Z 0057c150 f   MapServer.obj
 0001:0017b8b0       ?bReadCrusadeStructureConfigFile@CMapServer@@QAEHPAD@Z 0057c8b0 f   MapServer.obj
 0001:0017c010       ?bReadDupeConfigFile@CMapServer@@QAEHPAD@Z 0057d010 f   MapServer.obj
 0001:0017c780       ?bReadEventResults@CMapServer@@QAEHPADF@Z 0057d780 f   MapServer.obj
 0001:0017cb90       ?bReadFinalFightConfigFile@CMapServer@@QAEHPAD@Z 0057db90 f   MapServer.obj
 0001:0017ce00       ?bReadHellOfDeathConfigFile@CMapServer@@QAEHPAD@Z 0057de00 f   MapServer.obj
 0001:0017d8b0       ?bReadMessageConfigFile@CMapServer@@QAEHPAD@Z 0057e8b0 f   MapServer.obj
 0001:0017dc30       ?bReadProgramConfigFile@CMapServer@@QAEHPAD@Z 0057ec30 f   MapServer.obj
 0001:0017e440       ?bReadRoundSummonConfigFile@CMapServer@@QAEHPADF@Z 0057f440 f   MapServer.obj
 0001:0017eb20       ?bReadRushStructureConfigFile@CMapServer@@QAEHPAD@Z 0057fb20 f   MapServer.obj
 0001:0017f280       ?bReadSummonStructureConfigFile@CMapServer@@QAEHPAD@Z 00580280 f   MapServer.obj
 0001:0017f9d0       ?bReadTDStructureConfigFile@CMapServer@@QAEHPAD@Z 005809d0 f   MapServer.obj
 0001:00180480       ?bRegisterDelayEvent@CMapServer@@QAEHHHKHDDHHHHH@Z 00581480 f   MapServer.obj
 0001:001806d0       ?bRemoveFromDelayEventList@CMapServer@@QAEHHDH@Z 005816d0 f   MapServer.obj
 0001:001808f0       ?bSendMsgToLS@CMapServer@@QAEHKHHPAD@Z 005818f0 f   MapServer.obj
 0001:001823c0       ?bSetItemToBankItem@CMapServer@@QAEHHF@Z 005833c0 f   MapServer.obj
 0001:001826f0       ?bSetItemToBankItem@CMapServer@@QAEHHPAVCItem@@@Z 005836f0 f   MapServer.obj
 0001:00182970       ?bSetItemToSellList@CMapServer@@QAEXHPADK@Z 00583970 f   MapServer.obj
 0001:00182d30       ?bSetNpcAttackMode@CMapServer@@QAEXPADHDH@Z 00583d30 f   MapServer.obj
 0001:00182f10       ?bSetNpcFollowMode@CMapServer@@QAEHPAD0D@Z 00583f10 f   MapServer.obj
 0001:001832b0       ?cGetNextMoveDir@CMapServer@@QAEDFFFFDDPAHDF@Z 005842b0 f   MapServer.obj
 0001:00183670       ?calcStatsPoints@CMapServer@@QAEXH@Z 00584670 f   MapServer.obj
 0001:00183820       ?calculatePoints@CMapServer@@QAEXH@Z 00584820 f   MapServer.obj
 0001:001838e0       ?capacity@?$vector@Ust_objects@CMapServer@@V?$allocator@Ust_objects@CMapServer@@@std@@@std@@QBEIXZ 005848e0 f i MapServer.obj
 0001:00183920       ?clear@?$vector@Ust_objects@CMapServer@@V?$allocator@Ust_objects@CMapServer@@@std@@@std@@QAEXXZ 00584920 f i MapServer.obj
 0001:001839b0       ?close@?$basic_ofstream@DU?$char_traits@D@std@@@std@@QAEXXZ 005849b0 f i MapServer.obj
 0001:00183a00       ?copyExp@CMapServer@@QAEXH@Z 00584a00 f   MapServer.obj
 0001:00183a50       ?copyLevel@CMapServer@@QAEXH@Z 00584a50 f   MapServer.obj
 0001:00183aa0       ?copyRebirthLevel@CMapServer@@QAEXH@Z 00584aa0 f   MapServer.obj
 0001:00183af0       ?copyStats@CMapServer@@QAEXH@Z 00584af0 f   MapServer.obj
 0001:00183bc0       ?copyStatsPoints@CMapServer@@QAEXH@Z 00584bc0 f   MapServer.obj
 0001:00183c10       ?count@?$duration@_JU?$ratio@$00$00@std@@@chrono@std@@QBE_JXZ 00584c10 f i MapServer.obj
 0001:00183c40       ?count@?$duration@_JU?$ratio@$00$0DLJKMKAA@@std@@@chrono@std@@QBE_JXZ 00584c40 f i MapServer.obj
 0001:00183c70       ?count@?$duration@_JU?$ratio@$00$0DOI@@std@@@chrono@std@@QBE_JXZ 00584c70 f i MapServer.obj
 0001:00183ca0       ?deallocate@?$_Default_allocator_traits@V?$allocator@U?$_Tree_node@U?$pair@$$CBFH@std@@PAX@std@@@std@@@std@@SAXAAV?$allocator@U?$_Tree_node@U?$pair@$$CBFH@std@@PAX@std@@@2@QAU?$_Tree_node@U?$pair@$$CBFH@std@@PAX@2@I@Z 00584ca0 f i MapServer.obj
 0001:00183cd0       ?deallocate@?$allocator@U?$_Tree_node@U?$pair@$$CBFH@std@@PAX@std@@@std@@QAEXQAU?$_Tree_node@U?$pair@$$CBFH@std@@PAX@2@I@Z 00584cd0 f i MapServer.obj
 0001:00183df0       ?deallocate@?$allocator@URebirthLevelSettings@CMapServer@@@std@@QAEXQAURebirthLevelSettings@CMapServer@@I@Z 00584df0 f i MapServer.obj
 0001:00183e80       ?deallocate@?$allocator@Ust_objects@CMapServer@@@std@@QAEXQAUst_objects@CMapServer@@I@Z 00584e80 f i MapServer.obj
 0001:00183f10       ?disableRebirth@CMapServer@@QAEXH@Z 00584f10 f   MapServer.obj
 0001:00183f90       ?disableRebirthStatus@CMapServer@@QAEXH@Z 00584f90 f   MapServer.obj
 0001:00184010       ?dropitem@CMapServer@@QAEXHHHHHHH@Z 00585010 f   MapServer.obj
 0001:001842a0       ?dwGetItemCount@CMapServer@@QAEKHPAD@Z 005852a0 f   MapServer.obj
 0001:00184430       ?enableRebirth@CMapServer@@QAEXH@Z 00585430 f   MapServer.obj
 0001:001844b0       ?enableRebirthStatus@CMapServer@@QAEXH@Z 005854b0 f   MapServer.obj
 0001:00184530       ?find_last_of@?$basic_string@DU?$char_traits@D@std@@V?$allocator@D@2@@std@@QBEIQBDI@Z 00585530 f i MapServer.obj
 0001:001845b0       ?getCriticals@CMapServer@@QAEXH@Z 005855b0 f   MapServer.obj
 0001:001847d0       ?get_object@CMapServer@@QAEXHPAD@Z 005857d0 f   MapServer.obj
 0001:00184840       ?getitemname@CMapServer@@QAE_NHHH@Z 00585840 f   MapServer.obj
 0001:00184cd0       ?handleCheckTimer@CMapServer@@QAEXH@Z 00585cd0 f   MapServer.obj
 0001:00184d30       ?handleEnchantingExtract@CMapServer@@QAEXHPAD@Z 00585d30 f   MapServer.obj
 0001:00185160       ?handleEnchantingUpgrade@CMapServer@@QAEXHPAD@Z 00586160 f   MapServer.obj
 0001:00185e30       ?handleMarketLog@CMapServer@@QAEXPAD00HK@Z 00586e30 f   MapServer.obj
 0001:001860f0       ?iAddDynamicObjectList@CMapServer@@QAEHFDFDFFKH@Z 005870f0 f   MapServer.obj
 0001:001865b0       ?iCalcTotalWeight@CMapServer@@QAEHH@Z 005875b0 f   MapServer.obj
 0001:00186810       ?iCalculateAttackEffect@CMapServer@@QAEHFDFDHHHHHH@Z 00587810 f   MapServer.obj
 0001:0018f240       ?iCalculateUseSkillItemEffect@CMapServer@@QAEHHDDHDHH@Z 00590240 f   MapServer.obj
 0001:0018f8b0       ?iCheckFish@CMapServer@@QAEHHDFF@Z 005908b0 f   MapServer.obj
 0001:0018fd20       ?iCheckLugar@CMapServer@@QAEHH@Z 00590d20 f   MapServer.obj
 0001:00190040       ?iClientMotion_Attack_Handler@CMapServer@@QAEHHFFFFFDGHH@Z 00591040 f   MapServer.obj
 0001:001918b0       ?iClientMotion_GetItem_Handler@CMapServer@@QAEHHFFD@Z 005928b0 f   MapServer.obj
 0001:00192550       ?iClientMotion_Magic_Handler@CMapServer@@QAEHHFFD@Z 00593550 f   MapServer.obj
 0001:00192c70       ?iClientMotion_Move_Handler@CMapServer@@QAEHHFFDHH@Z 00593c70 f   MapServer.obj
 0001:001945c0       ?iClientMotion_Stop_Handler@CMapServer@@QAEHHFFD@Z 005955c0 f   MapServer.obj
 0001:00194d30       ?iComposeInitMapData@CMapServer@@QAEHFFHPAD@Z 00595d30 f   MapServer.obj
 0001:00195e00       ?iComposeMoveMapData@CMapServer@@QAEHFFHDPAD@Z 00596e00 f   MapServer.obj
 0001:00197080       ?iCreateFish@CMapServer@@QAEHDFFFPAVCItem@@HK@Z 00598080 f   MapServer.obj
 0001:00197420       ?iCreateMineral@CMapServer@@QAEHDHHD@Z 00598420 f   MapServer.obj
 0001:00197980       ?iDice@CMapServer@@QAEHHH@Z 00598980 f   MapServer.obj
 0001:001979f0       ?iGetComboAttackBonus@CMapServer@@QAEHHH@Z 005989f0 f   MapServer.obj
 0001:00197bb0       ?iGetDangerValue@CMapServer@@QAEHHFF@Z 00598bb0 f   MapServer.obj
 0001:00197e80       ?iGetExpLevel@CMapServer@@QAEHH@Z 00598e80 f   MapServer.obj
 0001:00197f00       ?iGetFollowerNumber@CMapServer@@QAEHFD@Z 00598f00 f   MapServer.obj
 0001:00198050       ?iGetItemWeight@CMapServer@@QAEHPAVCItem@@H@Z 00599050 f   MapServer.obj
 0001:001980f0       ?iGetLevelExp@CMapServer@@QAEHH@Z 005990f0 f   MapServer.obj
 0001:001981f0       ?iGetMapIndex@CMapServer@@QAEHPAD@Z 005991f0 f   MapServer.obj
 0001:00198350       ?iGetMapLocationSide@CMapServer@@QAEHPAD@Z 00599350 f   MapServer.obj
 0001:00198810       ?iGetMaxHP@CMapServer@@QAEHH@Z 00599810 f   MapServer.obj
 0001:001989a0       ?iGetNpcRelationship@CMapServer@@QAEHHH@Z 005999a0 f   MapServer.obj
 0001:00198ab0       ?iGetPlayerABSStatus@CMapServer@@QAEHHH@Z 00599ab0 f   MapServer.obj
 0001:00198c50       ?iGetPlayerRelationship@CMapServer@@QAEHHH@Z 00599c50 f   MapServer.obj
 0001:00199100       ?iGetWhetherMagicBonusEffect@CMapServer@@QAEHFD@Z 0059a100 f   MapServer.obj
 0001:00199250       ?iRequestPanningMapDataRequest@CMapServer@@QAEHHPAD@Z 0059a250 f   MapServer.obj
 0001:001998c0       ?iSetSide@CMapServer@@QAEHH@Z 0059a8c0 f   MapServer.obj
 0001:0019a500       ?iUpgradeHeroCapeRequirements@CMapServer@@QAEHHH@Z 0059b500 f   MapServer.obj
 0001:0019a9e0       ?is_open@?$basic_filebuf@DU?$char_traits@D@std@@@std@@QBE_NXZ 0059b9e0 f i MapServer.obj
 0001:0019aa20       ?is_open@?$basic_ofstream@DU?$char_traits@D@std@@@std@@QBE_NXZ 0059ba20 f i MapServer.obj
 0001:0019aa50       ?lock@_Mutex_base@std@@QAEXXZ 0059ba50 f i MapServer.obj
 0001:0019aab0       ?max_size@?$_Default_allocator_traits@V?$allocator@U?$_Tree_node@U?$pair@$$CBFH@std@@PAX@std@@@std@@@std@@SAIABV?$allocator@U?$_Tree_node@U?$pair@$$CBFH@std@@PAX@std@@@2@@Z 0059bab0 f i MapServer.obj
 0001:0019aaf0       ?max_size@?$_Default_allocator_traits@V?$allocator@Ust_objects@CMapServer@@@std@@@std@@SAIABV?$allocator@Ust_objects@CMapServer@@@2@@Z 0059baf0 f i MapServer.obj
 0001:0019ab10       ?max_size@?$_Tree@V?$_Tmap_traits@FHU?$less@F@std@@V?$allocator@U?$pair@$$CBFH@std@@@2@$0A@@std@@@std@@QBEIXZ 0059bb10 f i MapServer.obj
 0001:0019abd0       ?max_size@?$vector@Ust_objects@CMapServer@@V?$allocator@Ust_objects@CMapServer@@@std@@@std@@QBEIXZ 0059bbd0 f i MapServer.obj
 0001:0019acc0       ?notifyLevelChange@CMapServer@@QAEXH@Z 0059bcc0 f   MapServer.obj
 0001:0019ad70       ?notifyNpcHealth@CMapServer@@QAEXHH@Z 0059bd70 f   MapServer.obj
 0001:0019aea0       ?notifyShinningStatus@CMapServer@@QAEXH@Z 0059bea0 f   MapServer.obj
 0001:0019af80       ?notify_hp_mp_sp@CMapServer@@QAEXH@Z 0059bf80 f   MapServer.obj
 0001:0019b060       ?notify_rankexp@CMapServer@@QAEXH@Z 0059c060 f   MapServer.obj
 0001:0019b160       ?notify_rankup@CMapServer@@QAEXH@Z 0059c160 f   MapServer.obj
 0001:0019b260       ?now@steady_clock@chrono@std@@SA?AV?$time_point@Usteady_clock@chrono@std@@V?$duration@_JU?$ratio@$00$0DLJKMKAA@@std@@@23@@23@XZ 0059c260 f i MapServer.obj
 0001:0019b4d0       ?open@?$basic_ofstream@DU?$char_traits@D@std@@@std@@QAEXPBDHH@Z 0059c4d0 f i MapServer.obj
 0001:0019b590       ?push_back@?$vector@Ust_objects@CMapServer@@V?$allocator@Ust_objects@CMapServer@@@std@@@std@@QAEXABUst_objects@CMapServer@@@Z 0059c590 f i MapServer.obj
 0001:0019b5c0       ?put@?$num_put@DV?$ostreambuf_iterator@DU?$char_traits@D@std@@@std@@@std@@QBE?AV?$ostreambuf_iterator@DU?$char_traits@D@std@@@2@V32@AAVios_base@2@DK@Z 0059c5c0 f i MapServer.obj
 0001:0019b610       ?r_flooritem@CMapServer@@QAEXHPAD@Z 0059c610 f   MapServer.obj
 0001:0019ba50       ?rank_operation@CMapServer@@QAEXH@Z 0059ca50 f   MapServer.obj
 0001:0019bbb0       ?requestRebirth@CMapServer@@QAEXH@Z 0059cbb0 f   MapServer.obj
 0001:0019c2e0       ?response_ping@CMapServer@@QAEXH@Z 0059d2e0 f   MapServer.obj
 0001:0019c380       ?restoreExp@CMapServer@@QAEXH@Z 0059d380 f   MapServer.obj
 0001:0019c420       ?restoreLevel@CMapServer@@QAEXH@Z 0059d420 f   MapServer.obj
 0001:0019c4c0       ?restoreRebirthLevel@CMapServer@@QAEXH@Z 0059d4c0 f   MapServer.obj
 0001:0019c560       ?restoreStats@CMapServer@@QAEXH@Z 0059d560 f   MapServer.obj
 0001:0019c7d0       ?restoreStatsPoints@CMapServer@@QAEXH@Z 0059d7d0 f   MapServer.obj
 0001:0019c870       ?revertitemWeight@CMapServer@@QAEHPAVCItem@@PAD@Z 0059d870 f   MapServer.obj
 0001:0019ca00       ?sendMessageToClient@CMapServer@@QAEXHH@Z 0059da00 f   MapServer.obj
 0001:0019cb80       ?send_objects_data@CMapServer@@QAEXXZ 0059db80 f   MapServer.obj
 0001:0019cdc0       ?setrankstats@CMapServer@@QAEXHPAD@Z 0059ddc0 f   MapServer.obj
 0001:0019d010       ?shinning_clear@CMapServer@@QAEXH@Z 0059e010 f   MapServer.obj
 0001:0019d160       ?shinning_update@CMapServer@@QAEXH@Z 0059e160 f   MapServer.obj
 0001:0019d2f0       ?showShinningStatus@CMapServer@@QAEXXZ 0059e2f0 f   MapServer.obj
 0001:0019d4c0       ?size@?$vector@Ust_objects@CMapServer@@V?$allocator@Ust_objects@CMapServer@@@std@@@std@@QBEIXZ 0059e4c0 f i MapServer.obj
 0001:0019d500       ?size@?$vector@V?$basic_string@DU?$char_traits@D@std@@V?$allocator@D@2@@std@@V?$allocator@V?$basic_string@DU?$char_traits@D@std@@V?$allocator@D@2@@std@@@2@@std@@QBEIXZ 0059e500 f i MapServer.obj
 0001:0019d580       ?substr@?$basic_string@DU?$char_traits@D@std@@V?$allocator@D@2@@std@@QBE?AV12@II@Z 0059e580 f i MapServer.obj
 0001:0019d5e0       ?switchRebirth@CMapServer@@QAEXH@Z 0059e5e0 f   MapServer.obj
 0001:0019da80       ?time_since_epoch@?$time_point@Usteady_clock@chrono@std@@V?$duration@_JU?$ratio@$00$0DLJKMKAA@@std@@@23@@chrono@std@@QBE?AV?$duration@_JU?$ratio@$00$0DLJKMKAA@@std@@@23@XZ 0059ea80 f i MapServer.obj
 0001:0019dac0       ?to_string@std@@YA?AV?$basic_string@DU?$char_traits@D@std@@V?$allocator@D@2@@1@K@Z 0059eac0 f i MapServer.obj
 0001:0019db00       ?unequipItems@CMapServer@@QAEXH@Z 0059eb00 f   MapServer.obj
 0001:0019dbf0       ?unlock@_Mutex_base@std@@QAEXXZ 0059ebf0 f i MapServer.obj
 0001:0019dc20       ?updateEntitySync@CMapServer@@QAEXHFF@Z 0059ec20 f   MapServer.obj
 0001:0019e240       ___local_stdio_scanf_options 0059f240 f i MapServer.obj
 0001:0019e260       __vsnprintf_l              0059f260 f i MapServer.obj
 0001:0019e2d0       __vsprintf_l               0059f2d0 f i MapServer.obj
 0001:0019e310       __vsscanf_l                0059f310 f i MapServer.obj
 0001:0019e360       _fprintf                   0059f360 f i MapServer.obj
 0001:0019e3e0       _sprintf                   0059f3e0 f i MapServer.obj
 0001:0019e430       _sscanf                    0059f430 f i MapServer.obj
 0001:0019e4b0       ??0CGuildsMan@@QAE@XZ      0059f4b0 f   GuildsMan.obj
 0001:0019e4f0       ??1CGuildsMan@@UAE@XZ      0059f4f0 f   GuildsMan.obj
 0001:0019e520       ??_ECGuildsMan@@UAEPAXI@Z  0059f520 f i GuildsMan.obj
 0001:0019e520       ??_GCGuildsMan@@UAEPAXI@Z  0059f520 f i GuildsMan.obj
 0001:0019e570       ??0CItem@@QAE@XZ           0059f570 f   Item.obj
 0001:0019e710       ??1CItem@@UAE@XZ           0059f710 f   Item.obj
 0001:0019e740       ??_ECItem@@UAEPAXI@Z       0059f740 f i Item.obj
 0001:0019e740       ??_GCItem@@UAEPAXI@Z       0059f740 f i Item.obj
 0001:0019e790       ?GetBagPositionX@CItem@@QAEFXZ 0059f790 f   Item.obj
 0001:0019e7c0       ?GetBagPositionY@CItem@@QAEFXZ 0059f7c0 f   Item.obj
 0001:0019e7f0       ?GetBankPosition@CItem@@QAEFXZ 0059f7f0 f   Item.obj
 0001:0019e820       ?IsArmor@CItem@@QAE_NXZ    0059f820 f   Item.obj
 0001:0019ee00       ?IsShield@CItem@@QAE_NXZ   0059fe00 f   Item.obj
 0001:0019eed0       ?IsWeapon@CItem@@QAE_NXZ   0059fed0 f   Item.obj
 0001:0019f350       ?PermitedInExp@CItem@@QAE_NXZ 005a0350 f   Item.obj
 0001:0019f400       ?SetBagPosition@CItem@@QAEXFF@Z 005a0400 f   Item.obj
 0001:0019f440       ?SetBankPosition@CItem@@QAEXF@Z 005a0440 f   Item.obj
 0001:0019f470       ??0CMagic@@QAE@XZ          005a0470 f   Magic.obj
 0001:0019f4c0       ??1CMagic@@UAE@XZ          005a04c0 f   Magic.obj
 0001:0019f4f0       ??_ECMagic@@UAEPAXI@Z      005a04f0 f i Magic.obj
 0001:0019f4f0       ??_GCMagic@@UAEPAXI@Z      005a04f0 f i Magic.obj
 0001:0019f540       ??0CMap@@QAE@PAVCMapServer@@@Z 005a0540 f   Map.obj
 0001:001a0060       ??1CMap@@UAE@XZ            005a1060 f   Map.obj
 0001:001a0260       ??_ECTile@@UAEPAXI@Z       005a1260 f i Map.obj
 0001:001a0340       ??_ECMap@@UAEPAXI@Z        005a1340 f i Map.obj
 0001:001a0340       ??_GCMap@@UAEPAXI@Z        005a1340 f i Map.obj
 0001:001a0390       ?BorrarFlag@CMap@@QAEXXZ   005a1390 f   Map.obj
 0001:001a0420       ?ClearBigOwner@CMap@@QAEXFDFFD@Z 005a1420 f   Map.obj
 0001:001a05e0       ?ClearDeadOwner@CMap@@QAEXFF@Z 005a15e0 f   Map.obj
 0001:001a0690       ?ClearOwner@CMap@@QAEXHFDFF@Z 005a1690 f   Map.obj
 0001:001a07a0       ?ClearSectorInfo@CMap@@QAEXXZ 005a17a0 f   Map.obj
 0001:001a08c0       ?ClearTempSectorInfo@CMap@@QAEXXZ 005a18c0 f   Map.obj
 0001:001a09e0       ?GetDeadOwner@CMap@@QAEXPAFPADFF@Z 005a19e0 f   Map.obj
 0001:001a0ab0       ?GetOwner@CMap@@QAEXPAFPADFF@Z 005a1ab0 f   Map.obj
 0001:001a0b90       ?RestoreStrikePoints@CMap@@QAEXXZ 005a1b90 f   Map.obj
 0001:001a0bf0       ?SetBigOwner@CMap@@QAEXFDFFD@Z 005a1bf0 f   Map.obj
 0001:001a0d40       ?SetDeadOwner@CMap@@QAEXFDFF@Z 005a1d40 f   Map.obj
 0001:001a0df0       ?SetDynamicObject@CMap@@QAEXGFFFK@Z 005a1df0 f   Map.obj
 0001:001a0eb0       ?SetNamingValueEmpty@CMap@@QAEXH@Z 005a1eb0 f   Map.obj
 0001:001a0ee0       ?SetOwner@CMap@@QAEXFDFF@Z 005a1ee0 f   Map.obj
 0001:001a0f90       ?SetTempMoveAllowedFlag@CMap@@QAEXHHH@Z 005a1f90 f   Map.obj
 0001:001a1030       ?_SetupNoAttackArea@CMap@@QAEXXZ 005a2030 f   Map.obj
 0001:001a1210       ?_bDecodeMapDataFileContents@CMap@@AAEHXZ 005a2210 f   Map.obj
 0001:001a1970       ?bAddCropsTotalSum@CMap@@QAEHXZ 005a2970 f   Map.obj
 0001:001a19c0       ?bAddCrusadeStructureInfo@CMap@@QAEHDFFD@Z 005a29c0 f   Map.obj
 0001:001a1aa0       ?bApocalypseGate@CMap@@QAEHXZ 005a2aa0 f   Map.obj
 0001:001a1bd0       ?bApocalypseGateTeleporter@CMap@@QAEHFFPADPAF1@Z 005a2bd0 f   Map.obj
 0001:001a1d20       ?bCheckFlySpaceAvailable@CMap@@QAEHFFDF@Z 005a2d20 f   Map.obj
 0001:001a1e40       ?bGetBigMoveable@CMap@@QAEHFFFD@Z 005a2e40 f   Map.obj
 0001:001a1fb0       ?bGetDynamicObject@CMap@@QAEHFFPAFPAKPAH@Z 005a2fb0 f   Map.obj
 0001:001a2080       ?bGetIsFarm@CMap@@QAEHFF@Z 005a3080 f   Map.obj
 0001:001a2140       ?bGetIsMoveAllowedTile@CMap@@QAEHFF@Z 005a3140 f   Map.obj
 0001:001a2210       ?bGetIsTeleport@CMap@@QAEHFF@Z 005a3210 f   Map.obj
 0001:001a22d0       ?bGetIsWater@CMap@@QAEHFF@Z 005a32d0 f   Map.obj
 0001:001a2390       ?bGetMoveable@CMap@@QAEHFFPAF@Z 005a3390 f   Map.obj
 0001:001a2490       ?bGetMoveableArea@CMap@@QAEHFFF@Z 005a3490 f   Map.obj
 0001:001a2580       ?bInit@CMap@@QAEHPAD@Z     005a3580 f   Map.obj
 0001:001a2640       ?bIsValidLoc@CMap@@QAEHFF@Z 005a3640 f   Map.obj
 0001:001a26b0       ?bRemoveCropsTotalSum@CMap@@QAEHXZ 005a36b0 f   Map.obj
 0001:001a2720       ?bRemoveCrusadeStructureInfo@CMap@@QAEHFF@Z 005a3720 f   Map.obj
 0001:001a29a0       ?bSearchTeleportDest@CMap@@QAEHHHPADPAH10@Z 005a39a0 f   Map.obj
 0001:001a2ac0       ?bSetItem@CMap@@QAEHFFPAVCItem@@@Z 005a3ac0 f   Map.obj
 0001:001a2c20       ?iAnalyze@CMap@@QAEHDPAH0000@Z 005a3c20 f   Map.obj
 0001:001a2c50       ?iCheckItem@CMap@@QAEHFF@Z 005a3c50 f   Map.obj
 0001:001a2d40       ?iGetAttribute@CMap@@QAEHHHH@Z 005a3d40 f   Map.obj
 0001:001a2de0       ?iGetEmptyNamingValue@CMap@@QAEHXZ 005a3de0 f   Map.obj
 0001:001a2e50       ?iRegisterOccupyFlag@CMap@@QAEHHHHHH@Z 005a3e50 f   Map.obj
 0001:001a2fc0       ?pGetItem2@CMap@@QAEXFFPAF0PADK@Z 005a3fc0 f   Map.obj
 0001:001a3160       ?pGetItem@CMap@@QAEPAVCItem@@FFPAF0PAD@Z 005a4160 f   Map.obj
 0001:001a3320       ??0CMineral@@QAE@DDHHH@Z   005a4320 f   Mineral.obj
 0001:001a3390       ??1CMineral@@UAE@XZ        005a4390 f   Mineral.obj
 0001:001a33c0       ??_ECMineral@@UAEPAXI@Z    005a43c0 f i Mineral.obj
 0001:001a33c0       ??_GCMineral@@UAEPAXI@Z    005a43c0 f i Mineral.obj
 0001:001a3410       ??0CMisc@@QAE@XZ           005a4410 f   Misc.obj
 0001:001a3440       ??1CMisc@@UAE@XZ           005a4440 f   Misc.obj
 0001:001a3470       ??_ECMisc@@UAEPAXI@Z       005a4470 f i Misc.obj
 0001:001a3470       ??_GCMisc@@UAEPAXI@Z       005a4470 f i Misc.obj
 0001:001a34c0       ?GetDirPoint@CMisc@@QAEXDPAH0@Z 005a44c0 f   Misc.obj
 0001:001a35d0       ?GetMyCursorPos@CMisc@@QAEXPAF0@Z 005a45d0 f   Misc.obj
 0001:001a3620       ?GetPoint2@CMisc@@QAEXHHHHPAH00H@Z 005a4620 f   Misc.obj
 0001:001a3800       ?GetPoint@CMisc@@QAEXHHHHPAH00@Z 005a4800 f   Misc.obj
 0001:001a39c0       ?Temp@CMisc@@QAEXXZ        005a49c0 f   Misc.obj
 0001:001a3e30       ?bCheckMSGString@CMisc@@QAEHPAD@Z 005a4e30 f   Misc.obj
 0001:001a4490       ?bCheckValidName@CMisc@@QAEHPAD@Z 005a5490 f   Misc.obj
 0001:001a4630       ?bDecode@CMisc@@QAEHDPAD@Z 005a5630 f   Misc.obj
 0001:001a46b0       ?bEncode@CMisc@@QAEHDPAD@Z 005a56b0 f   Misc.obj
 0001:001a4730       ?cGetNextMoveDir@CMisc@@QAEDFFFF@Z 005a5730 f   Misc.obj
 0001:001a4850       ??0CMsg@@QAE@XZ            005a5850 f   Msg.obj
 0001:001a4890       ??1CMsg@@UAE@XZ            005a5890 f   Msg.obj
 0001:001a48e0       ??_ECMsg@@UAEPAXI@Z        005a58e0 f i Msg.obj
 0001:001a48e0       ??_GCMsg@@UAEPAXI@Z        005a58e0 f i Msg.obj
 0001:001a4930       ?Get@CMsg@@QAEXPAD0PAKPAH0@Z 005a5930 f   Msg.obj
 0001:001a49b0       ?bPut@CMsg@@QAEHDPADKHD@Z  005a59b0 f   Msg.obj
 0001:001a4a70       ??$?0$$V@?$_Compressed_pair@V?$allocator@VCNpcItem@@@std@@V?$_Vector_val@U?$_Simple_types@VCNpcItem@@@std@@@2@$00@std@@QAE@U_Zero_then_variadic_args_t@1@@Z 005a5a70 f i Npc.obj
 0001:001a4ab0       ??$?0VCNpcItem@@@?$allocator@U_Container_proxy@std@@@std@@QAE@ABV?$allocator@VCNpcItem@@@1@@Z 005a5ab0 f i Npc.obj
 0001:001a4ad0       ??$_Destroy_range@V?$allocator@VCNpcItem@@@std@@@std@@YAXPAVCNpcItem@@QAV1@AAV?$allocator@VCNpcItem@@@0@@Z 005a5ad0 f i Npc.obj
 0001:001a4af0       ??0?$_Vector_val@U?$_Simple_types@VCNpcItem@@@std@@@std@@QAE@XZ 005a5af0 f i Npc.obj
 0001:001a4b40       ??0?$allocator@VCNpcItem@@@std@@QAE@XZ 005a5b40 f i Npc.obj
 0001:001a4b60       ??0?$vector@VCNpcItem@@V?$allocator@VCNpcItem@@@std@@@std@@QAE@XZ 005a5b60 f i Npc.obj
 0001:001a4bf0       ??0CNpc@@QAE@PAD@Z         005a5bf0 f   Npc.obj
 0001:001a4e50       ??0CNpcItem@@QAE@XZ        005a5e50 f   Npc.obj
 0001:001a4ec0       ??1?$vector@VCNpcItem@@V?$allocator@VCNpcItem@@@std@@@std@@QAE@XZ 005a5ec0 f i Npc.obj
 0001:001a4f30       ??1CNpc@@UAE@XZ            005a5f30 f   Npc.obj
 0001:001a4f70       ??_ECNpc@@UAEPAXI@Z        005a5f70 f i Npc.obj
 0001:001a4f70       ??_GCNpc@@UAEPAXI@Z        005a5f70 f i Npc.obj
 0001:001a4fc0       ?_Get_first@?$_Compressed_pair@V?$allocator@VCNpcItem@@@std@@V?$_Vector_val@U?$_Simple_types@VCNpcItem@@@std@@@2@$00@std@@QAEAAV?$allocator@VCNpcItem@@@2@XZ 005a5fc0 f i Npc.obj
 0001:001a4fe0       ?_Getal@?$vector@VCNpcItem@@V?$allocator@VCNpcItem@@@std@@@std@@AAEAAV?$allocator@VCNpcItem@@@2@XZ 005a5fe0 f i Npc.obj
 0001:001a5010       ?_Tidy@?$vector@VCNpcItem@@V?$allocator@VCNpcItem@@@std@@@std@@AAEXXZ 005a6010 f i Npc.obj
 0001:001a50e0       ?deallocate@?$allocator@VCNpcItem@@@std@@QAEXQAVCNpcItem@@I@Z 005a60e0 f i Npc.obj
 0001:001a5170       ??0COccupyFlag@@QAE@HHDHH@Z 005a6170 f   OccupyFlag.obj
 0001:001a51e0       ??1COccupyFlag@@UAE@XZ     005a61e0 f   OccupyFlag.obj
 0001:001a5210       ??_ECOccupyFlag@@UAEPAXI@Z 005a6210 f i OccupyFlag.obj
 0001:001a5210       ??_GCOccupyFlag@@UAEPAXI@Z 005a6210 f i OccupyFlag.obj
 0001:001a5260       ??0PartyManager@@QAE@XZ    005a6260 f   PartyManager.obj
 0001:001a52a0       ??1PartyManager@@UAE@XZ    005a62a0 f   PartyManager.obj
 0001:001a52d0       ??_EPartyManager@@UAEPAXI@Z 005a62d0 f i PartyManager.obj
 0001:001a52d0       ??_GPartyManager@@UAEPAXI@Z 005a62d0 f i PartyManager.obj
 0001:001a5320       ?CheckMemberActivity@PartyManager@@QAEXXZ 005a6320 f   PartyManager.obj
 0001:001a5370       ?ClearParty@PartyManager@@QAEXXZ 005a6370 f   PartyManager.obj
 0001:001a53d0       ?GameServerDown@PartyManager@@QAEXH@Z 005a63d0 f   PartyManager.obj
 0001:001a54d0       ?SetServerChangeStatus@PartyManager@@QAEXPADH@Z 005a64d0 f   PartyManager.obj
 0001:001a5570       ?bAddMember@PartyManager@@QAEHH@Z 005a6570 f   PartyManager.obj
 0001:001a5630       ?bCheckPartyMember@PartyManager@@QAEHHHPAD@Z 005a6630 f   PartyManager.obj
 0001:001a56e0       ?bGetPartyInfo@PartyManager@@QAEHHPADH@Z 005a66e0 f   PartyManager.obj
 0001:001a5720       ?bRemoveMember@PartyManager@@QAEHH@Z 005a6720 f   PartyManager.obj
 0001:001a5840       ?iCreateNewParty@PartyManager@@QAEXH@Z 005a6840 f   PartyManager.obj
 0001:001a5890       ?iGetMemberID@PartyManager@@QAEHH@Z 005a6890 f   PartyManager.obj
 0001:001a5910       ??0CPortion@@QAE@XZ        005a6910 f   Potion.obj
 0001:001a59a0       ??1CPortion@@UAE@XZ        005a69a0 f   Potion.obj
 0001:001a59d0       ??_ECPortion@@UAEPAXI@Z    005a69d0 f i Potion.obj
 0001:001a59d0       ??_GCPortion@@UAEPAXI@Z    005a69d0 f i Potion.obj
 0001:001a5a20       ??0CQuest@@QAE@XZ          005a6a20 f   Quest.obj
 0001:001a5a50       ??1CQuest@@UAE@XZ          005a6a50 f   Quest.obj
 0001:001a5a80       ??_ECQuest@@UAEPAXI@Z      005a6a80 f i Quest.obj
 0001:001a5a80       ??_GCQuest@@UAEPAXI@Z      005a6a80 f i Quest.obj
 0001:001a5ad0       ??$?0$$V@?$_Compressed_pair@V?$allocator@Ust_quest@@@std@@V?$_Vector_val@U?$_Simple_types@Ust_quest@@@std@@@2@$00@std@@QAE@U_Zero_then_variadic_args_t@1@@Z 005a6ad0 f i QuestList.obj
 0001:001a5b10       ??$?0Ust_quest@@@?$allocator@U_Container_proxy@std@@@std@@QAE@ABV?$allocator@Ust_quest@@@1@@Z 005a6b10 f i QuestList.obj
 0001:001a5c70       ??$_Allocate_at_least_helper@V?$allocator@Ust_quest@@@std@@@std@@YAPAUst_quest@@AAV?$allocator@Ust_quest@@@0@AAI@Z 005a6c70 f i QuestList.obj
 0001:001a5ca0       ??$_Construct_in_place@Ust_quest@@ABU1@@std@@YAXAAUst_quest@@ABU1@@Z 005a6ca0 f i QuestList.obj
 0001:001a5d00       ??$_Copy_memmove@PAUst_quest@@PAU1@@std@@YAPAUst_quest@@PAU1@00@Z 005a6d00 f i QuestList.obj
 0001:001a5da0       ??$_Copy_memmove_tail@PAUst_quest@@@std@@YAPAUst_quest@@QBDQAU1@II@Z 005a6da0 f i QuestList.obj
 0001:001a5df0       ??$_Destroy_range@V?$allocator@Ust_quest@@@std@@@std@@YAXPAUst_quest@@QAU1@AAV?$allocator@Ust_quest@@@0@@Z 005a6df0 f i QuestList.obj
 0001:001a5e10       ??$_Emplace_back@Ust_quest@@@?$_Uninitialized_backout_al@V?$allocator@Ust_quest@@@std@@@std@@QAEX$$QAUst_quest@@@Z 005a6e10 f i QuestList.obj
 0001:001a5e80       ??$_Emplace_back_with_unused_capacity@ABUst_quest@@@?$vector@Ust_quest@@V?$allocator@Ust_quest@@@std@@@std@@AAEAAUst_quest@@ABU2@@Z 005a6e80 f i QuestList.obj
 0001:001a5f10       ??$_Emplace_one_at_back@ABUst_quest@@@?$vector@Ust_quest@@V?$allocator@Ust_quest@@@std@@@std@@AAEAAUst_quest@@ABU2@@Z 005a6f10 f i QuestList.obj
 0001:001a5f90       ??$_Emplace_reallocate@ABUst_quest@@@?$vector@Ust_quest@@V?$allocator@Ust_quest@@@std@@@std@@AAEPAUst_quest@@QAU2@ABU2@@Z 005a6f90 f i QuestList.obj
 0001:001a61f0       ??$_Get_size_of_n@$0HI@@std@@YAII@Z 005a71f0 f i QuestList.obj
 0001:001a6230       ??$_Get_unwrapped@ABQAUst_quest@@@std@@YA?A_TABQAUst_quest@@@Z 005a7230 f i QuestList.obj
 0001:001a6250       ??$_To_address@PAUst_quest@@@std@@YA?A_PABQAUst_quest@@@Z 005a7250 f i QuestList.obj
 0001:001a6270       ??$_Unfancy@Ust_quest@@@std@@YAPAUst_quest@@PAU1@@Z 005a7270 f i QuestList.obj
 0001:001a6290       ??$_Uninitialized_move@PAUst_quest@@V?$allocator@Ust_quest@@@std@@@std@@YAPAUst_quest@@QAU1@0PAU1@AAV?$allocator@Ust_quest@@@0@@Z 005a7290 f i QuestList.obj
 0001:001a63c0       ??$addressof@Ust_quest@@@std@@YAPAUst_quest@@AAU1@@Z 005a73c0 f i QuestList.obj
 0001:001a63e0       ??$construct@Ust_quest@@ABU1@@?$_Default_allocator_traits@V?$allocator@Ust_quest@@@std@@@std@@SAXAAV?$allocator@Ust_quest@@@1@QAUst_quest@@ABU3@@Z 005a73e0 f i QuestList.obj
 0001:001a6430       ??$construct@Ust_quest@@U1@@?$_Default_allocator_traits@V?$allocator@Ust_quest@@@std@@@std@@SAXAAV?$allocator@Ust_quest@@@1@QAUst_quest@@$$QAU3@@Z 005a7430 f i QuestList.obj
 0001:001a6480       ??$forward@ABUst_quest@@@std@@YAABUst_quest@@ABU1@@Z 005a7480 f i QuestList.obj
 0001:001a64a0       ??$forward@Ust_quest@@@std@@YA$$QAUst_quest@@AAU1@@Z 005a74a0 f i QuestList.obj
 0001:001a64c0       ??$move@AAPAUst_quest@@@std@@YA$$QAPAUst_quest@@AAPAU1@@Z 005a74c0 f i QuestList.obj
 0001:001a64e0       ??$move@AAUst_quest@@@std@@YA$$QAUst_quest@@AAU1@@Z 005a74e0 f i QuestList.obj
 0001:001a6500       ??0?$_Uninitialized_backout_al@V?$allocator@Ust_quest@@@std@@@std@@QAE@PAUst_quest@@AAV?$allocator@Ust_quest@@@1@@Z 005a7500 f i QuestList.obj
 0001:001a6540       ??0?$_Vector_val@U?$_Simple_types@Ust_quest@@@std@@@std@@QAE@XZ 005a7540 f i QuestList.obj
 0001:001a6590       ??0?$allocator@Ust_quest@@@std@@QAE@XZ 005a7590 f i QuestList.obj
 0001:001a65b0       ??0?$vector@Ust_quest@@V?$allocator@Ust_quest@@@std@@@std@@QAE@XZ 005a75b0 f i QuestList.obj
 0001:001a6640       ??0QuestList@@QAE@XZ       005a7640 f   QuestList.obj
 0001:001a6670       ??0st_quest@@QAE@XZ        005a7670 f i QuestList.obj
 0001:001a6690       ??1?$_Uninitialized_backout_al@V?$allocator@Ust_quest@@@std@@@std@@QAE@XZ 005a7690 f i QuestList.obj
 0001:001a66d0       ??1?$vector@Ust_quest@@V?$allocator@Ust_quest@@@std@@@std@@QAE@XZ 005a76d0 f i QuestList.obj
 0001:001a6740       ??1QuestList@@QAE@XZ       005a7740 f   QuestList.obj
 0001:001a6760       ??1_Reallocation_guard@?$vector@Ust_quest@@V?$allocator@Ust_quest@@@std@@@std@@QAE@XZ 005a7760 f i QuestList.obj
 0001:001a67d0       ??A?$vector@Ust_quest@@V?$allocator@Ust_quest@@@std@@@std@@QAEAAUst_quest@@I@Z 005a77d0 f i QuestList.obj
 0001:001a68b0       ?_Calculate_growth@?$vector@Ust_quest@@V?$allocator@Ust_quest@@@std@@@std@@ABEII@Z 005a78b0 f i QuestList.obj
 0001:001a6920       ?_Change_array@?$vector@Ust_quest@@V?$allocator@Ust_quest@@@std@@@std@@AAEXQAUst_quest@@II@Z 005a7920 f i QuestList.obj
 0001:001a6a00       ?_Get_first@?$_Compressed_pair@V?$allocator@Ust_quest@@@std@@V?$_Vector_val@U?$_Simple_types@Ust_quest@@@std@@@2@$00@std@@QAEAAV?$allocator@Ust_quest@@@2@XZ 005a7a00 f i QuestList.obj
 0001:001a6a20       ?_Get_first@?$_Compressed_pair@V?$allocator@Ust_quest@@@std@@V?$_Vector_val@U?$_Simple_types@Ust_quest@@@std@@@2@$00@std@@QBEABV?$allocator@Ust_quest@@@2@XZ 005a7a20 f i QuestList.obj
 0001:001a6a40       ?_Getal@?$vector@Ust_quest@@V?$allocator@Ust_quest@@@std@@@std@@AAEAAV?$allocator@Ust_quest@@@2@XZ 005a7a40 f i QuestList.obj
 0001:001a6a70       ?_Getal@?$vector@Ust_quest@@V?$allocator@Ust_quest@@@std@@@std@@ABEABV?$allocator@Ust_quest@@@2@XZ 005a7a70 f i QuestList.obj
 0001:001a6aa0       ?_Orphan_range@?$vector@Ust_quest@@V?$allocator@Ust_quest@@@std@@@std@@ABEXPAUst_quest@@0@Z 005a7aa0 f i QuestList.obj
 0001:001a6ad0       ?_Orphan_range_locked@?$vector@Ust_quest@@V?$allocator@Ust_quest@@@std@@@std@@ABEXPAUst_quest@@0@Z 005a7ad0 f i QuestList.obj
 0001:001a6b60       ?_Orphan_range_unlocked@?$vector@Ust_quest@@V?$allocator@Ust_quest@@@std@@@std@@ABEXPAUst_quest@@0@Z 005a7b60 f i QuestList.obj
 0001:001a6bf0       ?_Release@?$_Uninitialized_backout_al@V?$allocator@Ust_quest@@@std@@@std@@QAEPAUst_quest@@XZ 005a7bf0 f i QuestList.obj
 0001:001a6c20       ?_Tidy@?$vector@Ust_quest@@V?$allocator@Ust_quest@@@std@@@std@@AAEXXZ 005a7c20 f i QuestList.obj
 0001:001a6cf0       ?_Xlength@?$vector@Ust_quest@@V?$allocator@Ust_quest@@@std@@@std@@CAXXZ 005a7cf0 f i QuestList.obj
 0001:001a6d20       ?allocate@?$allocator@Ust_quest@@@std@@QAEPAUst_quest@@I@Z 005a7d20 f i QuestList.obj
 0001:001a6d60       ?capacity@?$vector@Ust_quest@@V?$allocator@Ust_quest@@@std@@@std@@QBEIXZ 005a7d60 f i QuestList.obj
 0001:001a6da0       ?clear@?$vector@Ust_quest@@V?$allocator@Ust_quest@@@std@@@std@@QAEXXZ 005a7da0 f i QuestList.obj
 0001:001a6e30       ?deallocate@?$allocator@Ust_quest@@@std@@QAEXQAUst_quest@@I@Z 005a7e30 f i QuestList.obj
 0001:001a70e0       ?get_quest_data@QuestList@@QAEXHPAD@Z 005a80e0 f   QuestList.obj
 0001:001a7150       ?get_quests@QuestList@@QAEXXZ 005a8150 f   QuestList.obj
 0001:001a7820       ?max_size@?$_Default_allocator_traits@V?$allocator@Ust_quest@@@std@@@std@@SAIABV?$allocator@Ust_quest@@@2@@Z 005a8820 f i QuestList.obj
 0001:001a7840       ?max_size@?$vector@Ust_quest@@V?$allocator@Ust_quest@@@std@@@std@@QBEIXZ 005a8840 f i QuestList.obj
 0001:001a78a0       ?push_back@?$vector@Ust_quest@@V?$allocator@Ust_quest@@@std@@@std@@QAEXABUst_quest@@@Z 005a88a0 f i QuestList.obj
 0001:001a78d0       ?send_quest_data@QuestList@@QAEXH@Z 005a88d0 f   QuestList.obj
 0001:001a8220       ?size@?$vector@Ust_quest@@V?$allocator@Ust_quest@@@std@@@std@@QBEIXZ 005a9220 f i QuestList.obj
 0001:001a8260       ?start_quest@QuestList@@QAEXHF@Z 005a9260 f   QuestList.obj
 0001:001a87a0       ??0CRank@@QAE@XZ           005a97a0 f   Rank.obj
 0001:001a87d0       ??1CRank@@QAE@XZ           005a97d0 f   Rank.obj
 0001:001a87f0       ?clear@CRank@@QAEXXZ       005a97f0 f   Rank.obj
 0001:001a8840       ?get_line@CRank@@QAE?AV?$basic_string@DU?$char_traits@D@std@@V?$allocator@D@2@@std@@V23@0@Z 005a9840 f   Rank.obj
 0001:001a8a70       ?getvalue@CRank@@QAE?AV?$basic_string@DU?$char_traits@D@std@@V?$allocator@D@2@@std@@V23@@Z 005a9a70 f   Rank.obj
 0001:001a8c40       ?init@CRank@@QAEXXZ        005a9c40 f   Rank.obj
 0001:001a8c80       ?is_wanted_line@CRank@@QAE_NABV?$basic_string@DU?$char_traits@D@std@@V?$allocator@D@2@@std@@V23@@Z 005a9c80 f   Rank.obj
 0001:001a8ce0       ?read@CRank@@QAEXXZ        005a9ce0 f   Rank.obj
 0001:001a8eb0       ?update@CRank@@QAEXXZ      005a9eb0 f   Rank.obj
 0001:001a8ef0       ??0CSkill@@QAE@XZ          005a9ef0 f   Skill.obj
 0001:001a8f30       ??1CSkill@@UAE@XZ          005a9f30 f   Skill.obj
 0001:001a8f60       ??_ECSkill@@UAEPAXI@Z      005a9f60 f i Skill.obj
 0001:001a8f60       ??_GCSkill@@UAEPAXI@Z      005a9f60 f i Skill.obj
 0001:001a8fb0       ??0CStrategicPoint@@QAE@XZ 005a9fb0 f   StrategicPoint.obj
 0001:001a9000       ??1CStrategicPoint@@UAE@XZ 005aa000 f   StrategicPoint.obj
 0001:001a9030       ??_ECStrategicPoint@@UAEPAXI@Z 005aa030 f i StrategicPoint.obj
 0001:001a9030       ??_GCStrategicPoint@@UAEPAXI@Z 005aa030 f i StrategicPoint.obj
 0001:001a9080       ??0CStrTok@@QAE@PAD0@Z     005aa080 f   StrTok.obj
 0001:001a90f0       ??1CStrTok@@UAE@XZ         005aa0f0 f   StrTok.obj
 0001:001a9120       ??_ECStrTok@@UAEPAXI@Z     005aa120 f i StrTok.obj
 0001:001a9120       ??_GCStrTok@@UAEPAXI@Z     005aa120 f i StrTok.obj
 0001:001a9170       ?_bIsSeperator@CStrTok@@AAEHDD@Z 005aa170 f   StrTok.obj
 0001:001a9210       ?pGet@CStrTok@@QAEPADXZ    005aa210 f   StrTok.obj
 0001:001a9430       ??0CTeleport@@QAE@XZ       005aa430 f   Teleport.obj
 0001:001a9520       ??1CTeleport@@UAE@XZ       005aa520 f   Teleport.obj
 0001:001a9550       ??_ECTeleport@@UAEPAXI@Z   005aa550 f i Teleport.obj
 0001:001a9550       ??_GCTeleport@@UAEPAXI@Z   005aa550 f i Teleport.obj
 0001:001a95a0       ??0CTeleportLoc@@QAE@XZ    005aa5a0 f   TeleportLoc.obj
 0001:001a9670       ??1CTeleportLoc@@UAE@XZ    005aa670 f   TeleportLoc.obj
 0001:001a96a0       ??_ECTeleportLoc@@UAEPAXI@Z 005aa6a0 f i TeleportLoc.obj
 0001:001a96a0       ??_GCTeleportLoc@@UAEPAXI@Z 005aa6a0 f i TeleportLoc.obj
 0001:001a96f0       ??0CTile@@QAE@XZ           005aa6f0 f   Tile.obj
 0001:001a9810       ??1CTile@@UAE@XZ           005aa810 f   Tile.obj
 0001:001a98a0       ??_GCTile@@UAEPAXI@Z       005aa8a0 f i Tile.obj
 0001:001a98f0       ??0XSocket@@QAE@PAUHWND__@@H@Z 005aa8f0 f   XSocket.obj
 0001:001a9a20       ??1XSocket@@UAE@XZ         005aaa20 f   XSocket.obj
 0001:001a9b30       ??_EXSocket@@UAEPAXI@Z     005aab30 f i XSocket.obj
 0001:001a9b30       ??_GXSocket@@UAEPAXI@Z     005aab30 f i XSocket.obj
 0001:001a9b80       ?_CloseConn@XSocket@@AAEXXZ 005aab80 f   XSocket.obj
 0001:001a9c40       ?_InitWinsock@@YAHXZ       005aac40 f   XSocket.obj
 0001:001a9cb0       ?_TermWinsock@@YAXXZ       005aacb0 f   XSocket.obj
 0001:001a9cd0       ?_iOnRead@XSocket@@AAEHXZ  005aacd0 f   XSocket.obj
 0001:001a9f80       ?_iRegisterUnsentData@XSocket@@AAEHPADH@Z 005aaf80 f   XSocket.obj
 0001:001aa0a0       ?_iSend@XSocket@@AAEHPADHH@Z 005ab0a0 f   XSocket.obj
 0001:001aa230       ?_iSendUnsentData@XSocket@@AAEHXZ 005ab230 f   XSocket.obj
 0001:001aa460       ?_iSend_ForInternalUse@XSocket@@AAEHPADH@Z 005ab460 f   XSocket.obj
 0001:001aa510       ?bAccept@XSocket@@QAEHPAV1@I@Z 005ab510 f   XSocket.obj
 0001:001aa670       ?bConnect@XSocket@@QAEHPADHI@Z 005ab670 f   XSocket.obj
 0001:001aa880       ?bInitBufferSize@XSocket@@QAEHK@Z 005ab880 f   XSocket.obj
 0001:001aa960       ?bListen@XSocket@@QAEHPADHI@Z 005ab960 f   XSocket.obj
 0001:001aaad0       ?iGetPeerAddress@XSocket@@QAEHPAD@Z 005abad0 f   XSocket.obj
 0001:001aab50       ?iGetSocket@XSocket@@QAEIXZ 005abb50 f   XSocket.obj
 0001:001aab70       ?iOnSocketEvent@XSocket@@QAEHIJ@Z 005abb70 f   XSocket.obj
 0001:001aad50       ?iSendMsg@XSocket@@QAEHPADKD@Z 005abd50 f   XSocket.obj
 0001:001ab020       ?pGetRcvDataPointer@XSocket@@QAEPADPAKPAD@Z 005ac020 f   XSocket.obj
 0001:001ab270       ?pGetRcvDataPointerClient@XSocket@@QAEPADPAKPAD@Z 005ac270 f   XSocket.obj
 0001:001ab4c0       ??0XSocketUDP@@QAE@XZ      005ac4c0 f   XSocketUDP.obj
 0001:001ab540       ??1XSocketUDP@@QAE@XZ      005ac540 f   XSocketUDP.obj
 0001:001ab580       ??6?$basic_ostream@DU?$char_traits@D@std@@@std@@QAEAAV01@G@Z 005ac580 f i XSocketUDP.obj
 0001:001ab770       ?Init@XSocketUDP@@QAE_NABV?$basic_string@DU?$char_traits@D@std@@V?$allocator@D@2@@std@@G@Z 005ac770 f   XSocketUDP.obj
 0001:001ab930       ?Receive@XSocketUDP@@QAE_NAAUMessage@@@Z 005ac930 f   XSocketUDP.obj
 0001:001ab9c0       ?Send@XSocketUDP@@QAE_NABUMessage@@ABV?$basic_string@DU?$char_traits@D@std@@V?$allocator@D@2@@std@@G@Z 005ac9c0 f   XSocketUDP.obj
 0001:001aba90       ??$?0$$V@?$_Compressed_pair@V?$allocator@Ust_trade_coin@@@std@@V?$_Vector_val@U?$_Simple_types@Ust_trade_coin@@@std@@@2@$00@std@@QAE@U_Zero_then_variadic_args_t@1@@Z 005aca90 f i Trades.obj
 0001:001abad0       ??$?0$$V@?$_Compressed_pair@V?$allocator@Ust_trade_contrib@@@std@@V?$_Vector_val@U?$_Simple_types@Ust_trade_contrib@@@std@@@2@$00@std@@QAE@U_Zero_then_variadic_args_t@1@@Z 005acad0 f i Trades.obj
 0001:001abb10       ??$?0$$V@?$_Compressed_pair@V?$allocator@Ust_trade_ek@@@std@@V?$_Vector_val@U?$_Simple_types@Ust_trade_ek@@@std@@@2@$00@std@@QAE@U_Zero_then_variadic_args_t@1@@Z 005acb10 f i Trades.obj
 0001:001abb50       ??$?0$$V@?$_Compressed_pair@V?$allocator@Ust_trade_majs@@@std@@V?$_Vector_val@U?$_Simple_types@Ust_trade_majs@@@std@@@2@$00@std@@QAE@U_Zero_then_variadic_args_t@1@@Z 005acb50 f i Trades.obj
 0001:001abb90       ??$?0Ust_trade_coin@@@?$allocator@U_Container_proxy@std@@@std@@QAE@ABV?$allocator@Ust_trade_coin@@@1@@Z 005acb90 f i Trades.obj
 0001:001abbb0       ??$?0Ust_trade_contrib@@@?$allocator@U_Container_proxy@std@@@std@@QAE@ABV?$allocator@Ust_trade_contrib@@@1@@Z 005acbb0 f i Trades.obj
 0001:001abbd0       ??$?0Ust_trade_ek@@@?$allocator@U_Container_proxy@std@@@std@@QAE@ABV?$allocator@Ust_trade_ek@@@1@@Z 005acbd0 f i Trades.obj
 0001:001abbf0       ??$?0Ust_trade_majs@@@?$allocator@U_Container_proxy@std@@@std@@QAE@ABV?$allocator@Ust_trade_majs@@@1@@Z 005acbf0 f i Trades.obj
 0001:001abd90       ??$_Allocate_at_least_helper@V?$allocator@Ust_trade_coin@@@std@@@std@@YAPAUst_trade_coin@@AAV?$allocator@Ust_trade_coin@@@0@AAI@Z 005acd90 f i Trades.obj
 0001:001abdc0       ??$_Allocate_at_least_helper@V?$allocator@Ust_trade_contrib@@@std@@@std@@YAPAUst_trade_contrib@@AAV?$allocator@Ust_trade_contrib@@@0@AAI@Z 005acdc0 f i Trades.obj
 0001:001abdf0       ??$_Allocate_at_least_helper@V?$allocator@Ust_trade_ek@@@std@@@std@@YAPAUst_trade_ek@@AAV?$allocator@Ust_trade_ek@@@0@AAI@Z 005acdf0 f i Trades.obj
 0001:001abe20       ??$_Allocate_at_least_helper@V?$allocator@Ust_trade_majs@@@std@@@std@@YAPAUst_trade_majs@@AAV?$allocator@Ust_trade_majs@@@0@AAI@Z 005ace20 f i Trades.obj
 0001:001abe50       ??$_Construct_in_place@Ust_trade_coin@@ABU1@@std@@YAXAAUst_trade_coin@@ABU1@@Z 005ace50 f i Trades.obj
 0001:001abeb0       ??$_Construct_in_place@Ust_trade_contrib@@ABU1@@std@@YAXAAUst_trade_contrib@@ABU1@@Z 005aceb0 f i Trades.obj
 0001:001abf10       ??$_Construct_in_place@Ust_trade_ek@@ABU1@@std@@YAXAAUst_trade_ek@@ABU1@@Z 005acf10 f i Trades.obj
 0001:001abf70       ??$_Construct_in_place@Ust_trade_majs@@ABU1@@std@@YAXAAUst_trade_majs@@ABU1@@Z 005acf70 f i Trades.obj
 0001:001abfd0       ??$_Copy_memmove@PAUst_trade_coin@@PAU1@@std@@YAPAUst_trade_coin@@PAU1@00@Z 005acfd0 f i Trades.obj
 0001:001ac070       ??$_Copy_memmove@PAUst_trade_contrib@@PAU1@@std@@YAPAUst_trade_contrib@@PAU1@00@Z 005ad070 f i Trades.obj
 0001:001ac110       ??$_Copy_memmove@PAUst_trade_ek@@PAU1@@std@@YAPAUst_trade_ek@@PAU1@00@Z 005ad110 f i Trades.obj
 0001:001ac1b0       ??$_Copy_memmove@PAUst_trade_majs@@PAU1@@std@@YAPAUst_trade_majs@@PAU1@00@Z 005ad1b0 f i Trades.obj
 0001:001ac250       ??$_Copy_memmove_tail@PAUst_trade_coin@@@std@@YAPAUst_trade_coin@@QBDQAU1@II@Z 005ad250 f i Trades.obj
 0001:001ac2a0       ??$_Copy_memmove_tail@PAUst_trade_contrib@@@std@@YAPAUst_trade_contrib@@QBDQAU1@II@Z 005ad2a0 f i Trades.obj
 0001:001ac2f0       ??$_Copy_memmove_tail@PAUst_trade_ek@@@std@@YAPAUst_trade_ek@@QBDQAU1@II@Z 005ad2f0 f i Trades.obj
 0001:001ac340       ??$_Copy_memmove_tail@PAUst_trade_majs@@@std@@YAPAUst_trade_majs@@QBDQAU1@II@Z 005ad340 f i Trades.obj
 0001:001ac390       ??$_Destroy_range@V?$allocator@Ust_trade_coin@@@std@@@std@@YAXPAUst_trade_coin@@QAU1@AAV?$allocator@Ust_trade_coin@@@0@@Z 005ad390 f i Trades.obj
 0001:001ac3b0       ??$_Destroy_range@V?$allocator@Ust_trade_contrib@@@std@@@std@@YAXPAUst_trade_contrib@@QAU1@AAV?$allocator@Ust_trade_contrib@@@0@@Z 005ad3b0 f i Trades.obj
 0001:001ac3d0       ??$_Destroy_range@V?$allocator@Ust_trade_ek@@@std@@@std@@YAXPAUst_trade_ek@@QAU1@AAV?$allocator@Ust_trade_ek@@@0@@Z 005ad3d0 f i Trades.obj
 0001:001ac3f0       ??$_Destroy_range@V?$allocator@Ust_trade_majs@@@std@@@std@@YAXPAUst_trade_majs@@QAU1@AAV?$allocator@Ust_trade_majs@@@0@@Z 005ad3f0 f i Trades.obj
 0001:001ac410       ??$_Emplace_back@Ust_trade_coin@@@?$_Uninitialized_backout_al@V?$allocator@Ust_trade_coin@@@std@@@std@@QAEX$$QAUst_trade_coin@@@Z 005ad410 f i Trades.obj
 0001:001ac480       ??$_Emplace_back@Ust_trade_contrib@@@?$_Uninitialized_backout_al@V?$allocator@Ust_trade_contrib@@@std@@@std@@QAEX$$QAUst_trade_contrib@@@Z 005ad480 f i Trades.obj
 0001:001ac4f0       ??$_Emplace_back@Ust_trade_ek@@@?$_Uninitialized_backout_al@V?$allocator@Ust_trade_ek@@@std@@@std@@QAEX$$QAUst_trade_ek@@@Z 005ad4f0 f i Trades.obj
 0001:001ac560       ??$_Emplace_back@Ust_trade_majs@@@?$_Uninitialized_backout_al@V?$allocator@Ust_trade_majs@@@std@@@std@@QAEX$$QAUst_trade_majs@@@Z 005ad560 f i Trades.obj
 0001:001ac5d0       ??$_Emplace_back_with_unused_capacity@ABUst_trade_coin@@@?$vector@Ust_trade_coin@@V?$allocator@Ust_trade_coin@@@std@@@std@@AAEAAUst_trade_coin@@ABU2@@Z 005ad5d0 f i Trades.obj
 0001:001ac660       ??$_Emplace_back_with_unused_capacity@ABUst_trade_contrib@@@?$vector@Ust_trade_contrib@@V?$allocator@Ust_trade_contrib@@@std@@@std@@AAEAAUst_trade_contrib@@ABU2@@Z 005ad660 f i Trades.obj
 0001:001ac6f0       ??$_Emplace_back_with_unused_capacity@ABUst_trade_ek@@@?$vector@Ust_trade_ek@@V?$allocator@Ust_trade_ek@@@std@@@std@@AAEAAUst_trade_ek@@ABU2@@Z 005ad6f0 f i Trades.obj
 0001:001ac780       ??$_Emplace_back_with_unused_capacity@ABUst_trade_majs@@@?$vector@Ust_trade_majs@@V?$allocator@Ust_trade_majs@@@std@@@std@@AAEAAUst_trade_majs@@ABU2@@Z 005ad780 f i Trades.obj
 0001:001ac810       ??$_Emplace_one_at_back@ABUst_trade_coin@@@?$vector@Ust_trade_coin@@V?$allocator@Ust_trade_coin@@@std@@@std@@AAEAAUst_trade_coin@@ABU2@@Z 005ad810 f i Trades.obj
 0001:001ac890       ??$_Emplace_one_at_back@ABUst_trade_contrib@@@?$vector@Ust_trade_contrib@@V?$allocator@Ust_trade_contrib@@@std@@@std@@AAEAAUst_trade_contrib@@ABU2@@Z 005ad890 f i Trades.obj
 0001:001ac910       ??$_Emplace_one_at_back@ABUst_trade_ek@@@?$vector@Ust_trade_ek@@V?$allocator@Ust_trade_ek@@@std@@@std@@AAEAAUst_trade_ek@@ABU2@@Z 005ad910 f i Trades.obj
 0001:001ac990       ??$_Emplace_one_at_back@ABUst_trade_majs@@@?$vector@Ust_trade_majs@@V?$allocator@Ust_trade_majs@@@std@@@std@@AAEAAUst_trade_majs@@ABU2@@Z 005ad990 f i Trades.obj
 0001:001aca10       ??$_Emplace_reallocate@ABUst_trade_coin@@@?$vector@Ust_trade_coin@@V?$allocator@Ust_trade_coin@@@std@@@std@@AAEPAUst_trade_coin@@QAU2@ABU2@@Z 005ada10 f i Trades.obj
 0001:001acc70       ??$_Emplace_reallocate@ABUst_trade_contrib@@@?$vector@Ust_trade_contrib@@V?$allocator@Ust_trade_contrib@@@std@@@std@@AAEPAUst_trade_contrib@@QAU2@ABU2@@Z 005adc70 f i Trades.obj
 0001:001aced0       ??$_Emplace_reallocate@ABUst_trade_ek@@@?$vector@Ust_trade_ek@@V?$allocator@Ust_trade_ek@@@std@@@std@@AAEPAUst_trade_ek@@QAU2@ABU2@@Z 005aded0 f i Trades.obj
 0001:001ad130       ??$_Emplace_reallocate@ABUst_trade_majs@@@?$vector@Ust_trade_majs@@V?$allocator@Ust_trade_majs@@@std@@@std@@AAEPAUst_trade_majs@@QAU2@ABU2@@Z 005ae130 f i Trades.obj
 0001:001ad390       ??$_Get_size_of_n@$0CE@@std@@YAII@Z 005ae390 f i Trades.obj
 0001:001ad3d0       ??$_Get_unwrapped@ABQAUst_trade_coin@@@std@@YA?A_TABQAUst_trade_coin@@@Z 005ae3d0 f i Trades.obj
 0001:001ad3f0       ??$_Get_unwrapped@ABQAUst_trade_contrib@@@std@@YA?A_TABQAUst_trade_contrib@@@Z 005ae3f0 f i Trades.obj
 0001:001ad410       ??$_Get_unwrapped@ABQAUst_trade_ek@@@std@@YA?A_TABQAUst_trade_ek@@@Z 005ae410 f i Trades.obj
 0001:001ad430       ??$_Get_unwrapped@ABQAUst_trade_majs@@@std@@YA?A_TABQAUst_trade_majs@@@Z 005ae430 f i Trades.obj
 0001:001ad450       ??$_Pocca@V?$allocator@D@std@@@std@@YAXAAV?$allocator@D@0@ABV10@@Z 005ae450 f i Trades.obj
 0001:001ad470       ??$_Reallocate_for@V<lambda_9366063389c5f42a00a5088cf24e69de>@@PBD@?$basic_string@DU?$char_traits@D@std@@V?$allocator@D@2@@std@@AAEAAV01@IV<lambda_9366063389c5f42a00a5088cf24e69de>@@PBD@Z 005ae470 f i Trades.obj
 0001:001ad580       ??$_To_address@PAUst_trade_coin@@@std@@YA?A_PABQAUst_trade_coin@@@Z 005ae580 f i Trades.obj
 0001:001ad5a0       ??$_To_address@PAUst_trade_contrib@@@std@@YA?A_PABQAUst_trade_contrib@@@Z 005ae5a0 f i Trades.obj
 0001:001ad5c0       ??$_To_address@PAUst_trade_ek@@@std@@YA?A_PABQAUst_trade_ek@@@Z 005ae5c0 f i Trades.obj
 0001:001ad5e0       ??$_To_address@PAUst_trade_majs@@@std@@YA?A_PABQAUst_trade_majs@@@Z 005ae5e0 f i Trades.obj
 0001:001ad600       ??$_Unfancy@Ust_trade_coin@@@std@@YAPAUst_trade_coin@@PAU1@@Z 005ae600 f i Trades.obj
 0001:001ad620       ??$_Unfancy@Ust_trade_contrib@@@std@@YAPAUst_trade_contrib@@PAU1@@Z 005ae620 f i Trades.obj
 0001:001ad640       ??$_Unfancy@Ust_trade_ek@@@std@@YAPAUst_trade_ek@@PAU1@@Z 005ae640 f i Trades.obj
 0001:001ad660       ??$_Unfancy@Ust_trade_majs@@@std@@YAPAUst_trade_majs@@PAU1@@Z 005ae660 f i Trades.obj
 0001:001ad680       ??$_Uninitialized_move@PAUst_trade_coin@@V?$allocator@Ust_trade_coin@@@std@@@std@@YAPAUst_trade_coin@@QAU1@0PAU1@AAV?$allocator@Ust_trade_coin@@@0@@Z 005ae680 f i Trades.obj
 0001:001ad7b0       ??$_Uninitialized_move@PAUst_trade_contrib@@V?$allocator@Ust_trade_contrib@@@std@@@std@@YAPAUst_trade_contrib@@QAU1@0PAU1@AAV?$allocator@Ust_trade_contrib@@@0@@Z 005ae7b0 f i Trades.obj
 0001:001ad8e0       ??$_Uninitialized_move@PAUst_trade_ek@@V?$allocator@Ust_trade_ek@@@std@@@std@@YAPAUst_trade_ek@@QAU1@0PAU1@AAV?$allocator@Ust_trade_ek@@@0@@Z 005ae8e0 f i Trades.obj
 0001:001ada10       ??$_Uninitialized_move@PAUst_trade_majs@@V?$allocator@Ust_trade_majs@@@std@@@std@@YAPAUst_trade_majs@@QAU1@0PAU1@AAV?$allocator@Ust_trade_majs@@@0@@Z 005aea10 f i Trades.obj
 0001:001adb40       ??$addressof@$$CBV?$basic_string@DU?$char_traits@D@std@@V?$allocator@D@2@@std@@@std@@YAPBV?$basic_string@DU?$char_traits@D@std@@V?$allocator@D@2@@0@ABV10@@Z 005aeb40 f i Trades.obj
 0001:001adb60       ??$addressof@Ust_trade_coin@@@std@@YAPAUst_trade_coin@@AAU1@@Z 005aeb60 f i Trades.obj
 0001:001adb80       ??$addressof@Ust_trade_contrib@@@std@@YAPAUst_trade_contrib@@AAU1@@Z 005aeb80 f i Trades.obj
 0001:001adba0       ??$addressof@Ust_trade_ek@@@std@@YAPAUst_trade_ek@@AAU1@@Z 005aeba0 f i Trades.obj
 0001:001adbc0       ??$addressof@Ust_trade_majs@@@std@@YAPAUst_trade_majs@@AAU1@@Z 005aebc0 f i Trades.obj
 0001:001adbe0       ??$construct@Ust_trade_coin@@ABU1@@?$_Default_allocator_traits@V?$allocator@Ust_trade_coin@@@std@@@std@@SAXAAV?$allocator@Ust_trade_coin@@@1@QAUst_trade_coin@@ABU3@@Z 005aebe0 f i Trades.obj
 0001:001adc30       ??$construct@Ust_trade_coin@@U1@@?$_Default_allocator_traits@V?$allocator@Ust_trade_coin@@@std@@@std@@SAXAAV?$allocator@Ust_trade_coin@@@1@QAUst_trade_coin@@$$QAU3@@Z 005aec30 f i Trades.obj
 0001:001adc80       ??$construct@Ust_trade_contrib@@ABU1@@?$_Default_allocator_traits@V?$allocator@Ust_trade_contrib@@@std@@@std@@SAXAAV?$allocator@Ust_trade_contrib@@@1@QAUst_trade_contrib@@ABU3@@Z 005aec80 f i Trades.obj
 0001:001adcd0       ??$construct@Ust_trade_contrib@@U1@@?$_Default_allocator_traits@V?$allocator@Ust_trade_contrib@@@std@@@std@@SAXAAV?$allocator@Ust_trade_contrib@@@1@QAUst_trade_contrib@@$$QAU3@@Z 005aecd0 f i Trades.obj
 0001:001add20       ??$construct@Ust_trade_ek@@ABU1@@?$_Default_allocator_traits@V?$allocator@Ust_trade_ek@@@std@@@std@@SAXAAV?$allocator@Ust_trade_ek@@@1@QAUst_trade_ek@@ABU3@@Z 005aed20 f i Trades.obj
 0001:001add70       ??$construct@Ust_trade_ek@@U1@@?$_Default_allocator_traits@V?$allocator@Ust_trade_ek@@@std@@@std@@SAXAAV?$allocator@Ust_trade_ek@@@1@QAUst_trade_ek@@$$QAU3@@Z 005aed70 f i Trades.obj
 0001:001addc0       ??$construct@Ust_trade_majs@@ABU1@@?$_Default_allocator_traits@V?$allocator@Ust_trade_majs@@@std@@@std@@SAXAAV?$allocator@Ust_trade_majs@@@1@QAUst_trade_majs@@ABU3@@Z 005aedc0 f i Trades.obj
 0001:001ade10       ??$construct@Ust_trade_majs@@U1@@?$_Default_allocator_traits@V?$allocator@Ust_trade_majs@@@std@@@std@@SAXAAV?$allocator@Ust_trade_majs@@@1@QAUst_trade_majs@@$$QAU3@@Z 005aee10 f i Trades.obj
 0001:001ade60       ??$forward@ABUst_trade_coin@@@std@@YAABUst_trade_coin@@ABU1@@Z 005aee60 f i Trades.obj
 0001:001ade80       ??$forward@ABUst_trade_contrib@@@std@@YAABUst_trade_contrib@@ABU1@@Z 005aee80 f i Trades.obj
 0001:001adea0       ??$forward@ABUst_trade_ek@@@std@@YAABUst_trade_ek@@ABU1@@Z 005aeea0 f i Trades.obj
 0001:001adec0       ??$forward@ABUst_trade_majs@@@std@@YAABUst_trade_majs@@ABU1@@Z 005aeec0 f i Trades.obj
 0001:001adee0       ??$forward@Ust_trade_coin@@@std@@YA$$QAUst_trade_coin@@AAU1@@Z 005aeee0 f i Trades.obj
 0001:001adf00       ??$forward@Ust_trade_contrib@@@std@@YA$$QAUst_trade_contrib@@AAU1@@Z 005aef00 f i Trades.obj
 0001:001adf20       ??$forward@Ust_trade_ek@@@std@@YA$$QAUst_trade_ek@@AAU1@@Z 005aef20 f i Trades.obj
 0001:001adf40       ??$forward@Ust_trade_majs@@@std@@YA$$QAUst_trade_majs@@AAU1@@Z 005aef40 f i Trades.obj
 0001:001adf60       ??$move@AAPAUst_trade_coin@@@std@@YA$$QAPAUst_trade_coin@@AAPAU1@@Z 005aef60 f i Trades.obj
 0001:001adf80       ??$move@AAPAUst_trade_contrib@@@std@@YA$$QAPAUst_trade_contrib@@AAPAU1@@Z 005aef80 f i Trades.obj
 0001:001adfa0       ??$move@AAPAUst_trade_ek@@@std@@YA$$QAPAUst_trade_ek@@AAPAU1@@Z 005aefa0 f i Trades.obj
 0001:001adfc0       ??$move@AAPAUst_trade_majs@@@std@@YA$$QAPAUst_trade_majs@@AAPAU1@@Z 005aefc0 f i Trades.obj
 0001:001adfe0       ??$move@AAUst_trade_coin@@@std@@YA$$QAUst_trade_coin@@AAU1@@Z 005aefe0 f i Trades.obj
 0001:001ae000       ??$move@AAUst_trade_contrib@@@std@@YA$$QAUst_trade_contrib@@AAU1@@Z 005af000 f i Trades.obj
 0001:001ae020       ??$move@AAUst_trade_ek@@@std@@YA$$QAUst_trade_ek@@AAU1@@Z 005af020 f i Trades.obj
 0001:001ae040       ??$move@AAUst_trade_majs@@@std@@YA$$QAUst_trade_majs@@AAU1@@Z 005af040 f i Trades.obj
 0001:001ae060       ??0?$_Uninitialized_backout_al@V?$allocator@Ust_trade_coin@@@std@@@std@@QAE@PAUst_trade_coin@@AAV?$allocator@Ust_trade_coin@@@1@@Z 005af060 f i Trades.obj
 0001:001ae0a0       ??0?$_Uninitialized_backout_al@V?$allocator@Ust_trade_contrib@@@std@@@std@@QAE@PAUst_trade_contrib@@AAV?$allocator@Ust_trade_contrib@@@1@@Z 005af0a0 f i Trades.obj
 0001:001ae0e0       ??0?$_Uninitialized_backout_al@V?$allocator@Ust_trade_ek@@@std@@@std@@QAE@PAUst_trade_ek@@AAV?$allocator@Ust_trade_ek@@@1@@Z 005af0e0 f i Trades.obj
 0001:001ae120       ??0?$_Uninitialized_backout_al@V?$allocator@Ust_trade_majs@@@std@@@std@@QAE@PAUst_trade_majs@@AAV?$allocator@Ust_trade_majs@@@1@@Z 005af120 f i Trades.obj
 0001:001ae160       ??0?$_Vector_val@U?$_Simple_types@Ust_trade_coin@@@std@@@std@@QAE@XZ 005af160 f i Trades.obj
 0001:001ae1b0       ??0?$_Vector_val@U?$_Simple_types@Ust_trade_contrib@@@std@@@std@@QAE@XZ 005af1b0 f i Trades.obj
 0001:001ae200       ??0?$_Vector_val@U?$_Simple_types@Ust_trade_ek@@@std@@@std@@QAE@XZ 005af200 f i Trades.obj
 0001:001ae250       ??0?$_Vector_val@U?$_Simple_types@Ust_trade_majs@@@std@@@std@@QAE@XZ 005af250 f i Trades.obj
 0001:001ae2a0       ??0?$allocator@Ust_trade_coin@@@std@@QAE@XZ 005af2a0 f i Trades.obj
 0001:001ae2c0       ??0?$allocator@Ust_trade_contrib@@@std@@QAE@XZ 005af2c0 f i Trades.obj
 0001:001ae2e0       ??0?$allocator@Ust_trade_ek@@@std@@QAE@XZ 005af2e0 f i Trades.obj
 0001:001ae300       ??0?$allocator@Ust_trade_majs@@@std@@QAE@XZ 005af300 f i Trades.obj
 0001:001ae320       ??0?$vector@Ust_trade_coin@@V?$allocator@Ust_trade_coin@@@std@@@std@@QAE@XZ 005af320 f i Trades.obj
 0001:001ae3b0       ??0?$vector@Ust_trade_contrib@@V?$allocator@Ust_trade_contrib@@@std@@@std@@QAE@XZ 005af3b0 f i Trades.obj
 0001:001ae440       ??0?$vector@Ust_trade_ek@@V?$allocator@Ust_trade_ek@@@std@@@std@@QAE@XZ 005af440 f i Trades.obj
 0001:001ae4d0       ??0?$vector@Ust_trade_majs@@V?$allocator@Ust_trade_majs@@@std@@@std@@QAE@XZ 005af4d0 f i Trades.obj
 0001:001ae560       ??0Trades@@QAE@XZ          005af560 f   Trades.obj
 0001:001ae5b0       ??0st_trade_coin@@QAE@XZ   005af5b0 f i Trades.obj
 0001:001ae5d0       ??0st_trade_contrib@@QAE@XZ 005af5d0 f i Trades.obj
 0001:001ae5f0       ??0st_trade_ek@@QAE@XZ     005af5f0 f i Trades.obj
 0001:001ae610       ??0st_trade_majs@@QAE@XZ   005af610 f i Trades.obj
 0001:001ae630       ??1?$_Uninitialized_backout_al@V?$allocator@Ust_trade_coin@@@std@@@std@@QAE@XZ 005af630 f i Trades.obj
 0001:001ae670       ??1?$_Uninitialized_backout_al@V?$allocator@Ust_trade_contrib@@@std@@@std@@QAE@XZ 005af670 f i Trades.obj
 0001:001ae6b0       ??1?$_Uninitialized_backout_al@V?$allocator@Ust_trade_ek@@@std@@@std@@QAE@XZ 005af6b0 f i Trades.obj
 0001:001ae6f0       ??1?$_Uninitialized_backout_al@V?$allocator@Ust_trade_majs@@@std@@@std@@QAE@XZ 005af6f0 f i Trades.obj
 0001:001ae730       ??1?$vector@Ust_trade_coin@@V?$allocator@Ust_trade_coin@@@std@@@std@@QAE@XZ 005af730 f i Trades.obj
 0001:001ae7a0       ??1?$vector@Ust_trade_contrib@@V?$allocator@Ust_trade_contrib@@@std@@@std@@QAE@XZ 005af7a0 f i Trades.obj
 0001:001ae810       ??1?$vector@Ust_trade_ek@@V?$allocator@Ust_trade_ek@@@std@@@std@@QAE@XZ 005af810 f i Trades.obj
 0001:001ae880       ??1?$vector@Ust_trade_majs@@V?$allocator@Ust_trade_majs@@@std@@@std@@QAE@XZ 005af880 f i Trades.obj
 0001:001ae8f0       ??1Trades@@QAE@XZ          005af8f0 f   Trades.obj
 0001:001ae910       ??1_Reallocation_guard@?$vector@Ust_trade_coin@@V?$allocator@Ust_trade_coin@@@std@@@std@@QAE@XZ 005af910 f i Trades.obj
 0001:001ae980       ??1_Reallocation_guard@?$vector@Ust_trade_contrib@@V?$allocator@Ust_trade_contrib@@@std@@@std@@QAE@XZ 005af980 f i Trades.obj
 0001:001ae9f0       ??1_Reallocation_guard@?$vector@Ust_trade_ek@@V?$allocator@Ust_trade_ek@@@std@@@std@@QAE@XZ 005af9f0 f i Trades.obj
 0001:001aea60       ??1_Reallocation_guard@?$vector@Ust_trade_majs@@V?$allocator@Ust_trade_majs@@@std@@@std@@QAE@XZ 005afa60 f i Trades.obj
 0001:001aead0       ??4?$basic_string@DU?$char_traits@D@std@@V?$allocator@D@2@@std@@QAEAAV01@ABV01@@Z 005afad0 f i Trades.obj
 0001:001aeb60       ??A?$vector@Ust_trade_coin@@V?$allocator@Ust_trade_coin@@@std@@@std@@QAEAAUst_trade_coin@@I@Z 005afb60 f i Trades.obj
 0001:001aec00       ??A?$vector@Ust_trade_contrib@@V?$allocator@Ust_trade_contrib@@@std@@@std@@QAEAAUst_trade_contrib@@I@Z 005afc00 f i Trades.obj
 0001:001aeca0       ??A?$vector@Ust_trade_ek@@V?$allocator@Ust_trade_ek@@@std@@@std@@QAEAAUst_trade_ek@@I@Z 005afca0 f i Trades.obj
 0001:001aed40       ??A?$vector@Ust_trade_majs@@V?$allocator@Ust_trade_majs@@@std@@@std@@QAEAAUst_trade_majs@@I@Z 005afd40 f i Trades.obj
 0001:001aede0       ??R<lambda_9366063389c5f42a00a5088cf24e69de>@@QBE@QADIQBD@Z 005afde0 f i Trades.obj
 0001:001aee70       ?_Calculate_growth@?$vector@Ust_trade_coin@@V?$allocator@Ust_trade_coin@@@std@@@std@@ABEII@Z 005afe70 f i Trades.obj
 0001:001aeee0       ?_Calculate_growth@?$vector@Ust_trade_contrib@@V?$allocator@Ust_trade_contrib@@@std@@@std@@ABEII@Z 005afee0 f i Trades.obj
 0001:001aef50       ?_Calculate_growth@?$vector@Ust_trade_ek@@V?$allocator@Ust_trade_ek@@@std@@@std@@ABEII@Z 005aff50 f i Trades.obj
 0001:001aefc0       ?_Calculate_growth@?$vector@Ust_trade_majs@@V?$allocator@Ust_trade_majs@@@std@@@std@@ABEII@Z 005affc0 f i Trades.obj
 0001:001af030       ?_Change_array@?$vector@Ust_trade_coin@@V?$allocator@Ust_trade_coin@@@std@@@std@@AAEXQAUst_trade_coin@@II@Z 005b0030 f i Trades.obj
 0001:001af110       ?_Change_array@?$vector@Ust_trade_contrib@@V?$allocator@Ust_trade_contrib@@@std@@@std@@AAEXQAUst_trade_contrib@@II@Z 005b0110 f i Trades.obj
 0001:001af1f0       ?_Change_array@?$vector@Ust_trade_ek@@V?$allocator@Ust_trade_ek@@@std@@@std@@AAEXQAUst_trade_ek@@II@Z 005b01f0 f i Trades.obj
 0001:001af2d0       ?_Change_array@?$vector@Ust_trade_majs@@V?$allocator@Ust_trade_majs@@@std@@@std@@AAEXQAUst_trade_majs@@II@Z 005b02d0 f i Trades.obj
 0001:001af3b0       ?_Get_first@?$_Compressed_pair@V?$allocator@Ust_trade_coin@@@std@@V?$_Vector_val@U?$_Simple_types@Ust_trade_coin@@@std@@@2@$00@std@@QAEAAV?$allocator@Ust_trade_coin@@@2@XZ 005b03b0 f i Trades.obj
 0001:001af3d0       ?_Get_first@?$_Compressed_pair@V?$allocator@Ust_trade_coin@@@std@@V?$_Vector_val@U?$_Simple_types@Ust_trade_coin@@@std@@@2@$00@std@@QBEABV?$allocator@Ust_trade_coin@@@2@XZ 005b03d0 f i Trades.obj
 0001:001af3f0       ?_Get_first@?$_Compressed_pair@V?$allocator@Ust_trade_contrib@@@std@@V?$_Vector_val@U?$_Simple_types@Ust_trade_contrib@@@std@@@2@$00@std@@QAEAAV?$allocator@Ust_trade_contrib@@@2@XZ 005b03f0 f i Trades.obj
 0001:001af410       ?_Get_first@?$_Compressed_pair@V?$allocator@Ust_trade_contrib@@@std@@V?$_Vector_val@U?$_Simple_types@Ust_trade_contrib@@@std@@@2@$00@std@@QBEABV?$allocator@Ust_trade_contrib@@@2@XZ 005b0410 f i Trades.obj
 0001:001af430       ?_Get_first@?$_Compressed_pair@V?$allocator@Ust_trade_ek@@@std@@V?$_Vector_val@U?$_Simple_types@Ust_trade_ek@@@std@@@2@$00@std@@QAEAAV?$allocator@Ust_trade_ek@@@2@XZ 005b0430 f i Trades.obj
 0001:001af450       ?_Get_first@?$_Compressed_pair@V?$allocator@Ust_trade_ek@@@std@@V?$_Vector_val@U?$_Simple_types@Ust_trade_ek@@@std@@@2@$00@std@@QBEABV?$allocator@Ust_trade_ek@@@2@XZ 005b0450 f i Trades.obj
 0001:001af470       ?_Get_first@?$_Compressed_pair@V?$allocator@Ust_trade_majs@@@std@@V?$_Vector_val@U?$_Simple_types@Ust_trade_majs@@@std@@@2@$00@std@@QAEAAV?$allocator@Ust_trade_majs@@@2@XZ 005b0470 f i Trades.obj
 0001:001af490       ?_Get_first@?$_Compressed_pair@V?$allocator@Ust_trade_majs@@@std@@V?$_Vector_val@U?$_Simple_types@Ust_trade_majs@@@std@@@2@$00@std@@QBEABV?$allocator@Ust_trade_majs@@@2@XZ 005b0490 f i Trades.obj
 0001:001af4b0       ?_Getal@?$vector@Ust_trade_coin@@V?$allocator@Ust_trade_coin@@@std@@@std@@AAEAAV?$allocator@Ust_trade_coin@@@2@XZ 005b04b0 f i Trades.obj
 0001:001af4e0       ?_Getal@?$vector@Ust_trade_coin@@V?$allocator@Ust_trade_coin@@@std@@@std@@ABEABV?$allocator@Ust_trade_coin@@@2@XZ 005b04e0 f i Trades.obj
 0001:001af510       ?_Getal@?$vector@Ust_trade_contrib@@V?$allocator@Ust_trade_contrib@@@std@@@std@@AAEAAV?$allocator@Ust_trade_contrib@@@2@XZ 005b0510 f i Trades.obj
 0001:001af540       ?_Getal@?$vector@Ust_trade_contrib@@V?$allocator@Ust_trade_contrib@@@std@@@std@@ABEABV?$allocator@Ust_trade_contrib@@@2@XZ 005b0540 f i Trades.obj
 0001:001af570       ?_Getal@?$vector@Ust_trade_ek@@V?$allocator@Ust_trade_ek@@@std@@@std@@AAEAAV?$allocator@Ust_trade_ek@@@2@XZ 005b0570 f i Trades.obj
 0001:001af5a0       ?_Getal@?$vector@Ust_trade_ek@@V?$allocator@Ust_trade_ek@@@std@@@std@@ABEABV?$allocator@Ust_trade_ek@@@2@XZ 005b05a0 f i Trades.obj
 0001:001af5d0       ?_Getal@?$vector@Ust_trade_majs@@V?$allocator@Ust_trade_majs@@@std@@@std@@AAEAAV?$allocator@Ust_trade_majs@@@2@XZ 005b05d0 f i Trades.obj
 0001:001af600       ?_Getal@?$vector@Ust_trade_majs@@V?$allocator@Ust_trade_majs@@@std@@@std@@ABEABV?$allocator@Ust_trade_majs@@@2@XZ 005b0600 f i Trades.obj
 0001:001af630       ?_Orphan_range@?$vector@Ust_trade_coin@@V?$allocator@Ust_trade_coin@@@std@@@std@@ABEXPAUst_trade_coin@@0@Z 005b0630 f i Trades.obj
 0001:001af660       ?_Orphan_range@?$vector@Ust_trade_contrib@@V?$allocator@Ust_trade_contrib@@@std@@@std@@ABEXPAUst_trade_contrib@@0@Z 005b0660 f i Trades.obj
 0001:001af690       ?_Orphan_range@?$vector@Ust_trade_ek@@V?$allocator@Ust_trade_ek@@@std@@@std@@ABEXPAUst_trade_ek@@0@Z 005b0690 f i Trades.obj
 0001:001af6c0       ?_Orphan_range@?$vector@Ust_trade_majs@@V?$allocator@Ust_trade_majs@@@std@@@std@@ABEXPAUst_trade_majs@@0@Z 005b06c0 f i Trades.obj
 0001:001af6f0       ?_Orphan_range_locked@?$vector@Ust_trade_coin@@V?$allocator@Ust_trade_coin@@@std@@@std@@ABEXPAUst_trade_coin@@0@Z 005b06f0 f i Trades.obj
 0001:001af780       ?_Orphan_range_locked@?$vector@Ust_trade_contrib@@V?$allocator@Ust_trade_contrib@@@std@@@std@@ABEXPAUst_trade_contrib@@0@Z 005b0780 f i Trades.obj
 0001:001af810       ?_Orphan_range_locked@?$vector@Ust_trade_ek@@V?$allocator@Ust_trade_ek@@@std@@@std@@ABEXPAUst_trade_ek@@0@Z 005b0810 f i Trades.obj
 0001:001af8a0       ?_Orphan_range_locked@?$vector@Ust_trade_majs@@V?$allocator@Ust_trade_majs@@@std@@@std@@ABEXPAUst_trade_majs@@0@Z 005b08a0 f i Trades.obj
 0001:001af930       ?_Orphan_range_unlocked@?$vector@Ust_trade_coin@@V?$allocator@Ust_trade_coin@@@std@@@std@@ABEXPAUst_trade_coin@@0@Z 005b0930 f i Trades.obj
 0001:001af9c0       ?_Orphan_range_unlocked@?$vector@Ust_trade_contrib@@V?$allocator@Ust_trade_contrib@@@std@@@std@@ABEXPAUst_trade_contrib@@0@Z 005b09c0 f i Trades.obj
 0001:001afa50       ?_Orphan_range_unlocked@?$vector@Ust_trade_ek@@V?$allocator@Ust_trade_ek@@@std@@@std@@ABEXPAUst_trade_ek@@0@Z 005b0a50 f i Trades.obj
 0001:001afae0       ?_Orphan_range_unlocked@?$vector@Ust_trade_majs@@V?$allocator@Ust_trade_majs@@@std@@@std@@ABEXPAUst_trade_majs@@0@Z 005b0ae0 f i Trades.obj
 0001:001afb70       ?_Release@?$_Uninitialized_backout_al@V?$allocator@Ust_trade_coin@@@std@@@std@@QAEPAUst_trade_coin@@XZ 005b0b70 f i Trades.obj
 0001:001afba0       ?_Release@?$_Uninitialized_backout_al@V?$allocator@Ust_trade_contrib@@@std@@@std@@QAEPAUst_trade_contrib@@XZ 005b0ba0 f i Trades.obj
 0001:001afbd0       ?_Release@?$_Uninitialized_backout_al@V?$allocator@Ust_trade_ek@@@std@@@std@@QAEPAUst_trade_ek@@XZ 005b0bd0 f i Trades.obj
 0001:001afc00       ?_Release@?$_Uninitialized_backout_al@V?$allocator@Ust_trade_majs@@@std@@@std@@QAEPAUst_trade_majs@@XZ 005b0c00 f i Trades.obj
 0001:001afc30       ?_Tidy@?$vector@Ust_trade_coin@@V?$allocator@Ust_trade_coin@@@std@@@std@@AAEXXZ 005b0c30 f i Trades.obj
 0001:001afd00       ?_Tidy@?$vector@Ust_trade_contrib@@V?$allocator@Ust_trade_contrib@@@std@@@std@@AAEXXZ 005b0d00 f i Trades.obj
 0001:001afdd0       ?_Tidy@?$vector@Ust_trade_ek@@V?$allocator@Ust_trade_ek@@@std@@@std@@AAEXXZ 005b0dd0 f i Trades.obj
 0001:001afea0       ?_Tidy@?$vector@Ust_trade_majs@@V?$allocator@Ust_trade_majs@@@std@@@std@@AAEXXZ 005b0ea0 f i Trades.obj
 0001:001aff70       ?_Xlength@?$vector@Ust_trade_coin@@V?$allocator@Ust_trade_coin@@@std@@@std@@CAXXZ 005b0f70 f i Trades.obj
 0001:001affa0       ?_Xlength@?$vector@Ust_trade_contrib@@V?$allocator@Ust_trade_contrib@@@std@@@std@@CAXXZ 005b0fa0 f i Trades.obj
 0001:001affd0       ?_Xlength@?$vector@Ust_trade_ek@@V?$allocator@Ust_trade_ek@@@std@@@std@@CAXXZ 005b0fd0 f i Trades.obj
 0001:001b0000       ?_Xlength@?$vector@Ust_trade_majs@@V?$allocator@Ust_trade_majs@@@std@@@std@@CAXXZ 005b1000 f i Trades.obj
 0001:001b0030       ?allocate@?$allocator@Ust_trade_coin@@@std@@QAEPAUst_trade_coin@@I@Z 005b1030 f i Trades.obj
 0001:001b0070       ?allocate@?$allocator@Ust_trade_contrib@@@std@@QAEPAUst_trade_contrib@@I@Z 005b1070 f i Trades.obj
 0001:001b00b0       ?allocate@?$allocator@Ust_trade_ek@@@std@@QAEPAUst_trade_ek@@I@Z 005b10b0 f i Trades.obj
 0001:001b00f0       ?allocate@?$allocator@Ust_trade_majs@@@std@@QAEPAUst_trade_majs@@I@Z 005b10f0 f i Trades.obj
 0001:001b0130       ?assign@?$basic_string@DU?$char_traits@D@std@@V?$allocator@D@2@@std@@QAEAAV12@QBDI@Z 005b1130 f i Trades.obj
 0001:001b01d0       ?capacity@?$vector@Ust_trade_coin@@V?$allocator@Ust_trade_coin@@@std@@@std@@QBEIXZ 005b11d0 f i Trades.obj
 0001:001b0210       ?capacity@?$vector@Ust_trade_contrib@@V?$allocator@Ust_trade_contrib@@@std@@@std@@QBEIXZ 005b1210 f i Trades.obj
 0001:001b0250       ?capacity@?$vector@Ust_trade_ek@@V?$allocator@Ust_trade_ek@@@std@@@std@@QBEIXZ 005b1250 f i Trades.obj
 0001:001b0290       ?capacity@?$vector@Ust_trade_majs@@V?$allocator@Ust_trade_majs@@@std@@@std@@QBEIXZ 005b1290 f i Trades.obj
 0001:001b02d0       ?clear@?$vector@Ust_trade_coin@@V?$allocator@Ust_trade_coin@@@std@@@std@@QAEXXZ 005b12d0 f i Trades.obj
 0001:001b0360       ?clear@?$vector@Ust_trade_contrib@@V?$allocator@Ust_trade_contrib@@@std@@@std@@QAEXXZ 005b1360 f i Trades.obj
 0001:001b03f0       ?clear@?$vector@Ust_trade_ek@@V?$allocator@Ust_trade_ek@@@std@@@std@@QAEXXZ 005b13f0 f i Trades.obj
 0001:001b0480       ?clear@?$vector@Ust_trade_majs@@V?$allocator@Ust_trade_majs@@@std@@@std@@QAEXXZ 005b1480 f i Trades.obj
 0001:001b0510       ?deallocate@?$allocator@Ust_trade_coin@@@std@@QAEXQAUst_trade_coin@@I@Z 005b1510 f i Trades.obj
 0001:001b05a0       ?deallocate@?$allocator@Ust_trade_contrib@@@std@@QAEXQAUst_trade_contrib@@I@Z 005b15a0 f i Trades.obj
 0001:001b0630       ?deallocate@?$allocator@Ust_trade_ek@@@std@@QAEXQAUst_trade_ek@@I@Z 005b1630 f i Trades.obj
 0001:001b06c0       ?deallocate@?$allocator@Ust_trade_majs@@@std@@QAEXQAUst_trade_majs@@I@Z 005b16c0 f i Trades.obj
 0001:001b07a0       ?getCoinBall@Trades@@QAEXHH@Z 005b17a0 f   Trades.obj
 0001:001b0ac0       ?getContributionBall@Trades@@QAEXHH@Z 005b1ac0 f   Trades.obj
 0001:001b0de0       ?getMajesticBall@Trades@@QAEXHH@Z 005b1de0 f   Trades.obj
 0001:001b1110       ?getReputationBall@Trades@@QAEXHH@Z 005b2110 f   Trades.obj
 0001:001b1650       ?get_trade_coin@Trades@@QAEXXZ 005b2650 f   Trades.obj
 0001:001b1a40       ?get_trade_contrib@Trades@@QAEXXZ 005b2a40 f   Trades.obj
 0001:001b1e30       ?get_trade_ek@Trades@@QAEXXZ 005b2e30 f   Trades.obj
 0001:001b2220       ?get_trade_majs@Trades@@QAEXXZ 005b3220 f   Trades.obj
 0001:001b2a80       ?max_size@?$_Default_allocator_traits@V?$allocator@Ust_trade_coin@@@std@@@std@@SAIABV?$allocator@Ust_trade_coin@@@2@@Z 005b3a80 f i Trades.obj
 0001:001b2aa0       ?max_size@?$_Default_allocator_traits@V?$allocator@Ust_trade_contrib@@@std@@@std@@SAIABV?$allocator@Ust_trade_contrib@@@2@@Z 005b3aa0 f i Trades.obj
 0001:001b2ac0       ?max_size@?$_Default_allocator_traits@V?$allocator@Ust_trade_ek@@@std@@@std@@SAIABV?$allocator@Ust_trade_ek@@@2@@Z 005b3ac0 f i Trades.obj
 0001:001b2ae0       ?max_size@?$_Default_allocator_traits@V?$allocator@Ust_trade_majs@@@std@@@std@@SAIABV?$allocator@Ust_trade_majs@@@2@@Z 005b3ae0 f i Trades.obj
 0001:001b2b00       ?max_size@?$vector@Ust_trade_coin@@V?$allocator@Ust_trade_coin@@@std@@@std@@QBEIXZ 005b3b00 f i Trades.obj
 0001:001b2b60       ?max_size@?$vector@Ust_trade_contrib@@V?$allocator@Ust_trade_contrib@@@std@@@std@@QBEIXZ 005b3b60 f i Trades.obj
 0001:001b2bc0       ?max_size@?$vector@Ust_trade_ek@@V?$allocator@Ust_trade_ek@@@std@@@std@@QBEIXZ 005b3bc0 f i Trades.obj
 0001:001b2c20       ?max_size@?$vector@Ust_trade_majs@@V?$allocator@Ust_trade_majs@@@std@@@std@@QBEIXZ 005b3c20 f i Trades.obj
 0001:001b2c80       ?push_back@?$vector@Ust_trade_coin@@V?$allocator@Ust_trade_coin@@@std@@@std@@QAEXABUst_trade_coin@@@Z 005b3c80 f i Trades.obj
 0001:001b2cb0       ?push_back@?$vector@Ust_trade_contrib@@V?$allocator@Ust_trade_contrib@@@std@@@std@@QAEXABUst_trade_contrib@@@Z 005b3cb0 f i Trades.obj
 0001:001b2ce0       ?push_back@?$vector@Ust_trade_ek@@V?$allocator@Ust_trade_ek@@@std@@@std@@QAEXABUst_trade_ek@@@Z 005b3ce0 f i Trades.obj
 0001:001b2d10       ?push_back@?$vector@Ust_trade_majs@@V?$allocator@Ust_trade_majs@@@std@@@std@@QAEXABUst_trade_majs@@@Z 005b3d10 f i Trades.obj
 0001:001b2d40       ?req_trade@Trades@@QAEXHPAD@Z 005b3d40 f   Trades.obj
 0001:001b45d0       ?req_tradeball@Trades@@QAEXHPAD@Z 005b55d0 f   Trades.obj
 0001:001b46e0       ?send_trade_data@Trades@@QAEXHF@Z 005b56e0 f   Trades.obj
 0001:001b4cf0       ?size@?$vector@Ust_trade_coin@@V?$allocator@Ust_trade_coin@@@std@@@std@@QBEIXZ 005b5cf0 f i Trades.obj
 0001:001b4d30       ?size@?$vector@Ust_trade_contrib@@V?$allocator@Ust_trade_contrib@@@std@@@std@@QBEIXZ 005b5d30 f i Trades.obj
 0001:001b4d70       ?size@?$vector@Ust_trade_ek@@V?$allocator@Ust_trade_ek@@@std@@@std@@QBEIXZ 005b5d70 f i Trades.obj
 0001:001b4db0       ?size@?$vector@Ust_trade_majs@@V?$allocator@Ust_trade_majs@@@std@@@std@@QBEIXZ 005b5db0 f i Trades.obj
 0001:001b4f1c       _GetLastError@0            005b5f1c f   kernel32:KERNEL32.dll
 0001:001b4f22       _GetLocalTime@4            005b5f22 f   kernel32:KERNEL32.dll
 0001:001b4f28       _IsBadReadPtr@8            005b5f28 f   kernel32:KERNEL32.dll
 0001:001b4f2e       _CreateFileA@28            005b5f2e f   kernel32:KERNEL32.dll
 0001:001b4f34       _DeleteFileA@4             005b5f34 f   kernel32:KERNEL32.dll
 0001:001b4f3a       _GetFileSize@8             005b5f3a f   kernel32:KERNEL32.dll
 0001:001b4f40       _ReadFile@20               005b5f40 f   kernel32:KERNEL32.dll
 0001:001b4f46       _SetFilePointer@16         005b5f46 f   kernel32:KERNEL32.dll
 0001:001b4f4c       _WriteFile@20              005b5f4c f   kernel32:KERNEL32.dll
 0001:001b4f52       _CloseHandle@4             005b5f52 f   kernel32:KERNEL32.dll
 0001:001b4f58       _Sleep@4                   005b5f58 f   kernel32:KERNEL32.dll
 0001:001b4f5e       _GetTickCount@0            005b5f5e f   kernel32:KERNEL32.dll
 0001:001b4f64       _GetModuleFileNameA@12     005b5f64 f   kernel32:KERNEL32.dll
 0001:001b4f6a       _CopyFileA@12              005b5f6a f   kernel32:KERNEL32.dll
 0001:001b4f70       _wsprintfA                 005b5f70 f   user32:USER32.dll
 0001:001b4f76       _GetMessageA@16            005b5f76 f   user32:USER32.dll
 0001:001b4f7c       _TranslateMessage@4        005b5f7c f   user32:USER32.dll
 0001:001b4f82       _DispatchMessageA@4        005b5f82 f   user32:USER32.dll
 0001:001b4f88       _PeekMessageA@20           005b5f88 f   user32:USER32.dll
 0001:001b4f8e       _SendMessageA@16           005b5f8e f   user32:USER32.dll
 0001:001b4f94       _PostMessageA@16           005b5f94 f   user32:USER32.dll
 0001:001b4f9a       _WaitMessage@0             005b5f9a f   user32:USER32.dll
 0001:001b4fa0       _DefWindowProcA@16         005b5fa0 f   user32:USER32.dll
 0001:001b4fa6       _PostQuitMessage@4         005b5fa6 f   user32:USER32.dll
 0001:001b4fac       _RegisterClassA@4          005b5fac f   user32:USER32.dll
 0001:001b4fb2       _CreateWindowExA@48        005b5fb2 f   user32:USER32.dll
 0001:001b4fb8       _LoadCursorA@8             005b5fb8 f   user32:USER32.dll
 0001:001b4fbe       _LoadIconA@8               005b5fbe f   user32:USER32.dll
 0001:001b4fc4       _InvalidateRect@12         005b5fc4 f   user32:USER32.dll
 0001:001b4fca       _MessageBoxA@16            005b5fca f   user32:USER32.dll
 0001:001b4fd0       _SetRect@20                005b5fd0 f   user32:USER32.dll
 0001:001b4fd6       _GetCursorPos@4            005b5fd6 f   user32:USER32.dll
 0001:001b4fdc       _GetStockObject@4          005b5fdc f   gdi32:GDI32.dll
 0001:001b4fe2       _SetTextColor@8            005b5fe2 f   gdi32:GDI32.dll
 0001:001b4fe8       _TextOutA@20               005b5fe8 f   gdi32:GDI32.dll
 0001:001b4fee       _timeSetEvent@20           005b5fee f   WINMM:WINMM.dll
 0001:001b4ff4       _timeKillEvent@4           005b5ff4 f   WINMM:WINMM.dll
 0001:001b4ffa       _timeGetTime@0             005b5ffa f   WINMM:WINMM.dll
 0001:001b5000       _timeGetDevCaps@8          005b6000 f   WINMM:WINMM.dll
 0001:001b5006       _timeBeginPeriod@4         005b6006 f   WINMM:WINMM.dll
 0001:001b500c       _timeEndPeriod@4           005b600c f   WINMM:WINMM.dll
 0001:001b5012       _WSAStartup@8              005b6012 f   WS2_32:WS2_32.dll
 0001:001b5018       _WSACleanup@0              005b6018 f   WS2_32:WS2_32.dll
 0001:001b501e       _bind@12                   005b601e f   WS2_32:WS2_32.dll
 0001:001b5024       _closesocket@4             005b6024 f   WS2_32:WS2_32.dll
 0001:001b502a       _htons@4                   005b602a f   WS2_32:WS2_32.dll
 0001:001b5030       _recvfrom@24               005b6030 f   WS2_32:WS2_32.dll
 0001:001b5036       _sendto@24                 005b6036 f   WS2_32:WS2_32.dll
 0001:001b503c       _socket@12                 005b603c f   WS2_32:WS2_32.dll
 0001:001b5042       _WSAGetLastError@0         005b6042 f   WS2_32:WS2_32.dll
 0001:001b5048       _accept@12                 005b6048 f   WS2_32:WS2_32.dll
 0001:001b504e       _connect@12                005b604e f   WS2_32:WS2_32.dll
 0001:001b5054       _ioctlsocket@12            005b6054 f   WS2_32:WS2_32.dll
 0001:001b505a       _getpeername@12            005b605a f   WS2_32:WS2_32.dll
 0001:001b5060       _inet_addr@4               005b6060 f   WS2_32:WS2_32.dll
 0001:001b5066       _inet_ntoa@4               005b6066 f   WS2_32:WS2_32.dll
 0001:001b506c       _listen@8                  005b606c f   WS2_32:WS2_32.dll
 0001:001b5072       _recv@16                   005b6072 f   WS2_32:WS2_32.dll
 0001:001b5078       _send@16                   005b6078 f   WS2_32:WS2_32.dll
 0001:001b507e       _setsockopt@20             005b607e f   WS2_32:WS2_32.dll
 0001:001b5084       _shutdown@8                005b6084 f   WS2_32:WS2_32.dll
 0001:001b508a       _WSAAsyncSelect@16         005b608a f   WS2_32:WS2_32.dll
 0001:001b5090       ??0_Init_locks@std@@QAE@XZ 005b6090 f   libcpmtd:xlock.obj
 0001:001b5110       ??0_Lockit@std@@QAE@H@Z    005b6110 f   libcpmtd:xlock.obj
 0001:001b5170       ??0_Lockit@std@@QAE@XZ     005b6170 f   libcpmtd:xlock.obj
 0001:001b51c0       ??1_Init_locks@std@@QAE@XZ 005b61c0 f   libcpmtd:xlock.obj
 0001:001b5240       ??1_Lockit@std@@QAE@XZ     005b6240 f   libcpmtd:xlock.obj
 0001:001b5290       ?_Init_locks_ctor@_Init_locks@std@@CAXPAV12@@Z 005b6290 f   libcpmtd:xlock.obj
 0001:001b5300       ?_Init_locks_dtor@_Init_locks@std@@CAXPAV12@@Z 005b6300 f   libcpmtd:xlock.obj
 0001:001b5370       ?_Lockit_ctor@_Lockit@std@@CAXPAV12@@Z 005b6370 f   libcpmtd:xlock.obj
 0001:001b53a0       ?_Lockit_ctor@_Lockit@std@@CAXPAV12@H@Z 005b63a0 f   libcpmtd:xlock.obj
 0001:001b53e0       ?_Lockit_ctor@_Lockit@std@@SAXH@Z 005b63e0 f   libcpmtd:xlock.obj
 0001:001b5420       ?_Lockit_dtor@_Lockit@std@@CAXPAV12@@Z 005b6420 f   libcpmtd:xlock.obj
 0001:001b5440       ?_Lockit_dtor@_Lockit@std@@SAXH@Z 005b6440 f   libcpmtd:xlock.obj
 0001:001b5480       ?uncaught_exception@std@@YA_NXZ 005b6480 f   libcpmtd:uncaught_exception.obj
 0001:001b5490       ??0bad_alloc@std@@QAE@XZ   005b6490 f i libcpmtd:xthrow.obj
 0001:001b54c0       ??0bad_function_call@std@@QAE@ABV01@@Z 005b64c0 f i libcpmtd:xthrow.obj
 0001:001b54f0       ??0bad_function_call@std@@QAE@XZ 005b64f0 f i libcpmtd:xthrow.obj
 0001:001b5520       ??0exception@std@@QAE@XZ   005b6520 f i libcpmtd:xthrow.obj
 0001:001b5550       ??0invalid_argument@std@@QAE@ABV01@@Z 005b6550 f i libcpmtd:xthrow.obj
 0001:001b5580       ??0invalid_argument@std@@QAE@PBD@Z 005b6580 f i libcpmtd:xthrow.obj
 0001:001b55b0       ??0length_error@std@@QAE@ABV01@@Z 005b65b0 f i libcpmtd:xthrow.obj
 0001:001b55e0       ??0length_error@std@@QAE@PBD@Z 005b65e0 f i libcpmtd:xthrow.obj
 0001:001b5610       ??0logic_error@std@@QAE@ABV01@@Z 005b6610 f i libcpmtd:xthrow.obj
 0001:001b5640       ??0logic_error@std@@QAE@PBD@Z 005b6640 f i libcpmtd:xthrow.obj
 0001:001b5670       ??0out_of_range@std@@QAE@ABV01@@Z 005b6670 f i libcpmtd:xthrow.obj
 0001:001b56a0       ??0out_of_range@std@@QAE@PBD@Z 005b66a0 f i libcpmtd:xthrow.obj
 0001:001b56d0       ??0overflow_error@std@@QAE@ABV01@@Z 005b66d0 f i libcpmtd:xthrow.obj
 0001:001b5700       ??0overflow_error@std@@QAE@PBD@Z 005b6700 f i libcpmtd:xthrow.obj
 0001:001b5730       ??0regex_error@std@@QAE@ABV01@@Z 005b6730 f i libcpmtd:xthrow.obj
 0001:001b5770       ??0regex_error@std@@QAE@W4error_type@regex_constants@1@@Z 005b6770 f i libcpmtd:xthrow.obj
 0001:001b57c0       ??0runtime_error@std@@QAE@PBD@Z 005b67c0 f i libcpmtd:xthrow.obj
 0001:001b57f0       ??1bad_function_call@std@@UAE@XZ 005b67f0 f i libcpmtd:xthrow.obj
 0001:001b5810       ??1invalid_argument@std@@UAE@XZ 005b6810 f i libcpmtd:xthrow.obj
 0001:001b5830       ??1length_error@std@@UAE@XZ 005b6830 f i libcpmtd:xthrow.obj
 0001:001b5850       ??1logic_error@std@@UAE@XZ 005b6850 f i libcpmtd:xthrow.obj
 0001:001b5870       ??1out_of_range@std@@UAE@XZ 005b6870 f i libcpmtd:xthrow.obj
 0001:001b5890       ??1overflow_error@std@@UAE@XZ 005b6890 f i libcpmtd:xthrow.obj
 0001:001b58b0       ??1regex_error@std@@UAE@XZ 005b68b0 f i libcpmtd:xthrow.obj
 0001:001b58d0       ??_Ebad_function_call@std@@UAEPAXI@Z 005b68d0 f i libcpmtd:xthrow.obj
 0001:001b58d0       ??_Gbad_function_call@std@@UAEPAXI@Z 005b68d0 f i libcpmtd:xthrow.obj
 0001:001b5910       ??_Einvalid_argument@std@@UAEPAXI@Z 005b6910 f i libcpmtd:xthrow.obj
 0001:001b5910       ??_Ginvalid_argument@std@@UAEPAXI@Z 005b6910 f i libcpmtd:xthrow.obj
 0001:001b5950       ??_Elength_error@std@@UAEPAXI@Z 005b6950 f i libcpmtd:xthrow.obj
 0001:001b5950       ??_Glength_error@std@@UAEPAXI@Z 005b6950 f i libcpmtd:xthrow.obj
 0001:001b5990       ??_Elogic_error@std@@UAEPAXI@Z 005b6990 f i libcpmtd:xthrow.obj
 0001:001b5990       ??_Glogic_error@std@@UAEPAXI@Z 005b6990 f i libcpmtd:xthrow.obj
 0001:001b59d0       ??_Eout_of_range@std@@UAEPAXI@Z 005b69d0 f i libcpmtd:xthrow.obj
 0001:001b59d0       ??_Gout_of_range@std@@UAEPAXI@Z 005b69d0 f i libcpmtd:xthrow.obj
 0001:001b5a10       ??_Eoverflow_error@std@@UAEPAXI@Z 005b6a10 f i libcpmtd:xthrow.obj
 0001:001b5a10       ??_Goverflow_error@std@@UAEPAXI@Z 005b6a10 f i libcpmtd:xthrow.obj
 0001:001b5a50       ??_Eregex_error@std@@UAEPAXI@Z 005b6a50 f i libcpmtd:xthrow.obj
 0001:001b5a50       ??_Gregex_error@std@@UAEPAXI@Z 005b6a50 f i libcpmtd:xthrow.obj
 0001:001b5a90       ?_Stringify@regex_error@std@@CAPBDW4error_type@regex_constants@2@@Z 005b6a90 f i libcpmtd:xthrow.obj
 0001:001b5b90       ?_Xbad_alloc@std@@YAXXZ    005b6b90 f   libcpmtd:xthrow.obj
 0001:001b5bc0       ?_Xbad_function_call@std@@YAXXZ 005b6bc0 f   libcpmtd:xthrow.obj
 0001:001b5bf0       ?_Xinvalid_argument@std@@YAXPBD@Z 005b6bf0 f   libcpmtd:xthrow.obj
 0001:001b5c20       ?_Xlength_error@std@@YAXPBD@Z 005b6c20 f   libcpmtd:xthrow.obj
 0001:001b5c50       ?_Xout_of_range@std@@YAXPBD@Z 005b6c50 f   libcpmtd:xthrow.obj
 0001:001b5c80       ?_Xoverflow_error@std@@YAXPBD@Z 005b6c80 f   libcpmtd:xthrow.obj
 0001:001b5cb0       ?_Xregex_error@std@@YAXW4error_type@regex_constants@1@@Z 005b6cb0 f   libcpmtd:xthrow.obj
 0001:001b5ce0       ?_Xruntime_error@std@@YAXPBD@Z 005b6ce0 f   libcpmtd:xthrow.obj
 0001:001b5d10       ?__empty_global_delete@@YAXPAXIW4align_val_t@std@@@Z 005b6d10 f i libcpmtd:xthrow.obj
 0001:001b5d20       ?__empty_global_delete@@YAXPAXW4align_val_t@std@@@Z 005b6d20 f i libcpmtd:xthrow.obj
 0001:001b5d30       ?what@bad_function_call@std@@UBEPBDXZ 005b6d30 f i libcpmtd:xthrow.obj
 0001:001b5d50       ?_Syserror_map@std@@YAPBDH@Z 005b6d50 f   libcpmtd:syserror.obj
 0001:001b5dc0       ?_Winerror_map@std@@YAHH@Z 005b6dc0 f   libcpmtd:syserror.obj
 0001:001b5e30       ?_Winerror_message@std@@YAKKPADK@Z 005b6e30 f   libcpmtd:syserror.obj
 0001:001b5e80       ??0?$_Yarn@D@std@@QAE@PBD@Z 005b6e80 f i libcpmtd:locale0.obj
 0001:001b5ec0       ??0_Fac_node@std@@QAE@PAU01@PAV_Facet_base@1@@Z 005b6ec0 f i libcpmtd:locale0.obj
 0001:001b5ef0       ??0_Locimp@locale@std@@AAE@ABV012@@Z 005b6ef0 f i libcpmtd:locale0.obj
 0001:001b5fe0       ??0_Locimp@locale@std@@AAE@_N@Z 005b6fe0 f i libcpmtd:locale0.obj
 0001:001b6060       ??0id@locale@std@@QAE@I@Z  005b7060 f i libcpmtd:locale0.obj
 0001:001b6080       ??0locale@std@@AAE@U_Secret_locale_construct_tag@01@PAV_Locimp@01@@Z 005b7080 f i libcpmtd:locale0.obj
 0001:001b60a0       ??0locale@std@@QAE@W4_Uninitialized@1@@Z 005b70a0 f i libcpmtd:locale0.obj
 0001:001b60c0       ??1_Fac_node@std@@QAE@XZ   005b70c0 f i libcpmtd:locale0.obj
 0001:001b6140       ??1_Fac_tidy_reg_t@std@@QAE@XZ 005b7140 f i libcpmtd:locale0.obj
 0001:001b61a0       ??1_Locimp@locale@std@@MAE@XZ 005b71a0 f i libcpmtd:locale0.obj
 0001:001b6220       ??2_Fac_node@std@@SAPAXI@Z 005b7220 f i libcpmtd:locale0.obj
 0001:001b6280       ??3_Fac_node@std@@SAXPAX@Z 005b7280 f i libcpmtd:locale0.obj
 0001:001b62a0       ??4?$_Yarn@D@std@@QAEAAV01@PBD@Z 005b72a0 f i libcpmtd:locale0.obj
 0001:001b6360       ??_G_Fac_node@std@@QAEPAXI@Z 005b7360 f i libcpmtd:locale0.obj
 0001:001b63c0       ??_E_Locimp@locale@std@@MAEPAXI@Z 005b73c0 f i libcpmtd:locale0.obj
 0001:001b63c0       ??_G_Locimp@locale@std@@MAEPAXI@Z 005b73c0 f i libcpmtd:locale0.obj
 0001:001b6420       ?_C_str@?$_Yarn@D@std@@QBEPBDXZ 005b7420 f i libcpmtd:locale0.obj
 0001:001b6460       ?_Empty@?$_Yarn@D@std@@QBE_NXZ 005b7460 f i libcpmtd:locale0.obj
 0001:001b64a0       ?_Facet_Register@std@@YAXPAV_Facet_base@1@@Z 005b74a0 f   libcpmtd:locale0.obj
 0001:001b6550       ?_Getgloballocale@locale@std@@CAPAV_Locimp@12@XZ 005b7550 f   libcpmtd:locale0.obj
 0001:001b6560       ?_Init@locale@std@@CAPAV_Locimp@12@_N@Z 005b7560 f   libcpmtd:locale0.obj
 0001:001b66d0       ?_Locimp_dtor@_Locimp@locale@std@@CAXPAV123@@Z 005b76d0 f   libcpmtd:locale0.obj
 0001:001b67d0       ?_Locinfo_ctor@_Locinfo@std@@SAXPAV12@PBD@Z 005b77d0 f   libcpmtd:locale0.obj
 0001:001b6870       ?_Locinfo_dtor@_Locinfo@std@@SAXPAV12@@Z 005b7870 f   libcpmtd:locale0.obj
 0001:001b68b0       ?_New_Locimp@_Locimp@locale@std@@CAPAV123@ABV123@@Z 005b78b0 f   libcpmtd:locale0.obj
 0001:001b6950       ?_New_Locimp@_Locimp@locale@std@@CAPAV123@_N@Z 005b7950 f   libcpmtd:locale0.obj
 0001:001b69f0       ?_Setgloballocale@locale@std@@CAXPAX@Z 005b79f0 f   libcpmtd:locale0.obj
 0001:001b6a30       ?classic@locale@std@@SAABV12@XZ 005b7a30 f   libcpmtd:locale0.obj
 0001:001b6a80       ?empty@locale@std@@SA?AV12@XZ 005b7a80 f   libcpmtd:locale0.obj
 0001:001b6ae0       __Deletegloballocale       005b7ae0 f   libcpmtd:locale0.obj
 0001:001b6bb0       __Getctype                 005b7bb0 f   libcpmtd:_tolower.obj
 0001:001b6c90       __Tolower                  005b7c90 f   libcpmtd:_tolower.obj
 0001:001b6f00       __Toupper                  005b7f00 f   libcpmtd:_toupper.obj
 0001:001b7170       ??$_Reallocate_grow_by@V<lambda_1>@?1??append@?$basic_string@DU?$char_traits@D@std@@V?$allocator@D@2@@std@@QAEAAV34@QBDI@Z@PBDI@?$basic_string@DU?$char_traits@D@std@@V?$allocator@D@2@@std@@AAEAAV01@IV<lambda_1>@?1??append@01@QAEAAV01@QBDI@Z@PBDI@Z 005b8170 f i libcpmtd:cout.obj
 0001:001b7300       ??$_Reallocate_grow_by@V<lambda_1>@?1??push_back@?$basic_string@DU?$char_traits@D@std@@V?$allocator@D@2@@std@@QAEXD@Z@D@?$basic_string@DU?$char_traits@D@std@@V?$allocator@D@2@@std@@AAEAAV01@IV<lambda_1>@?1??push_back@01@QAEXD@Z@D@Z 005b8300 f i libcpmtd:cout.obj
 0001:001b7480       ??$construct_at@D$$V@std@@YAPADQAD@Z 005b8480 f i libcpmtd:cout.obj
 0001:001b74d0       ??$construct_at@PADAAPAD@std@@YAPAPADQAPADAAPAD@Z 005b84d0 f i libcpmtd:cout.obj
 0001:001b7500       ??$construct_at@PADABQAD@std@@YAPAPADQAPADABQAD@Z 005b8500 f i libcpmtd:cout.obj
 0001:001b7530       ??$construct_at@U_Container_proxy@std@@PAU_Container_base12@2@@std@@YAPAU_Container_proxy@0@QAU10@$$QAPAU_Container_base12@0@@Z 005b8530 f i libcpmtd:cout.obj
 0001:001b7560       ??0?$basic_filebuf@DU?$char_traits@D@std@@@std@@QAE@QAU_iobuf@@@Z 005b8560 f i libcpmtd:cout.obj
 0001:001b75a0       ??0_Init_cout@std@@QAE@XZ  005b85a0 f i libcpmtd:cout.obj
 0001:001b7630       ??R<lambda_1>@?1??append@?$basic_string@DU?$char_traits@D@std@@V?$allocator@D@2@@std@@QAEAAV23@QBDI@Z@QBE@QAD0I0I@Z 005b8630 f i libcpmtd:cout.obj
 0001:001b76a0       ??R<lambda_1>@?1??push_back@?$basic_string@DU?$char_traits@D@std@@V?$allocator@D@2@@std@@QAEXD@Z@QBE@QADQBDID@Z 005b86a0 f i libcpmtd:cout.obj
 0001:001b7710       ?_Apply_annotation@?$basic_string@DU?$char_traits@D@std@@V?$allocator@D@2@@std@@CAXQBDIII@Z 005b8710 f i libcpmtd:cout.obj
 0001:001b77f0       ?_Clamp_to_end@_Asan_aligned_pointers@std@@QBEPBXPBX@Z 005b87f0 f i libcpmtd:cout.obj
 0001:001b7820       ?_Create_annotation@?$basic_string@DU?$char_traits@D@std@@V?$allocator@D@2@@std@@ABEXXZ 005b8820 f i libcpmtd:cout.obj
 0001:001b7890       ?_Get_asan_aligned_after@std@@YAPBXQBX@Z 005b8890 f i libcpmtd:cout.obj
 0001:001b78b0       ?_Modify_annotation@?$basic_string@DU?$char_traits@D@std@@V?$allocator@D@2@@std@@ABEXII@Z 005b88b0 f i libcpmtd:cout.obj
 0001:001b7910       ?_Remove_annotation@?$basic_string@DU?$char_traits@D@std@@V?$allocator@D@2@@std@@ABEXXZ 005b8910 f i libcpmtd:cout.obj
 0001:001b7980       ?assign@?$_Char_traits@DH@std@@SAXAADABD@Z 005b8980 f i libcpmtd:cout.obj
 0001:001b79a0       ?data@?$basic_string@DU?$char_traits@D@std@@V?$allocator@D@2@@std@@QAEPADXZ 005b89a0 f i libcpmtd:cout.obj
 0001:001b79c0       ?deallocate@?$allocator@U_Container_proxy@std@@@std@@QAEXQAU_Container_proxy@2@I@Z 005b89c0 f i libcpmtd:cout.obj
 0001:001b7a40       ?is_constant_evaluated@std@@YA_NXZ 005b8a40 f i libcpmtd:cout.obj
 0001:001b7a50       ?tie@?$basic_ios@DU?$char_traits@D@std@@@std@@QAEPAV?$basic_ostream@DU?$char_traits@D@std@@@2@PAV32@@Z 005b8a50 f i libcpmtd:cout.obj
 0001:001fa0c0       ___std_bitset_from_string_1@28 005fb0c0 f   libcpmtd:vector_algorithms.obj
 0001:001fa100       ___std_bitset_from_string_2@28 005fb100 f   libcpmtd:vector_algorithms.obj
 0001:001fa140       ___std_bitset_to_string_1@20 005fb140 f   libcpmtd:vector_algorithms.obj
 0001:001fa170       ___std_bitset_to_string_2@20 005fb170 f   libcpmtd:vector_algorithms.obj
 0001:001fa1a0       ___std_count_trivial_1@12  005fb1a0 f   libcpmtd:vector_algorithms.obj
 0001:001fa1c0       ___std_count_trivial_2@12  005fb1c0 f   libcpmtd:vector_algorithms.obj
 0001:001fa1e0       ___std_count_trivial_4@12  005fb1e0 f   libcpmtd:vector_algorithms.obj
 0001:001fa200       ___std_count_trivial_8@16  005fb200 f   libcpmtd:vector_algorithms.obj
 0001:001fa230       ___std_find_end_1@16       005fb230 f   libcpmtd:vector_algorithms.obj
 0001:001fa260       ___std_find_end_2@16       005fb260 f   libcpmtd:vector_algorithms.obj
 0001:001fa290       ___std_find_first_of_trivial_1@16 005fb290 f   libcpmtd:vector_algorithms.obj
 0001:001fa2c0       ___std_find_first_of_trivial_2@16 005fb2c0 f   libcpmtd:vector_algorithms.obj
 0001:001fa2f0       ___std_find_first_of_trivial_4@16 005fb2f0 f   libcpmtd:vector_algorithms.obj
 0001:001fa320       ___std_find_first_of_trivial_8@16 005fb320 f   libcpmtd:vector_algorithms.obj
 0001:001fa350       ___std_find_first_of_trivial_pos_1@16 005fb350 f   libcpmtd:vector_algorithms.obj
 0001:001fa380       ___std_find_first_of_trivial_pos_2@16 005fb380 f   libcpmtd:vector_algorithms.obj
 0001:001fa3b0       ___std_find_first_of_trivial_pos_4@16 005fb3b0 f   libcpmtd:vector_algorithms.obj
 0001:001fa3e0       ___std_find_first_of_trivial_pos_8@16 005fb3e0 f   libcpmtd:vector_algorithms.obj
 0001:001fa410       ___std_find_last_of_trivial_pos_1@16 005fb410 f   libcpmtd:vector_algorithms.obj
 0001:001fa440       ___std_find_last_of_trivial_pos_2@16 005fb440 f   libcpmtd:vector_algorithms.obj
 0001:001fa470       ___std_find_last_trivial_1@12 005fb470 f   libcpmtd:vector_algorithms.obj
 0001:001fa490       ___std_find_last_trivial_2@12 005fb490 f   libcpmtd:vector_algorithms.obj
 0001:001fa4b0       ___std_find_last_trivial_4@12 005fb4b0 f   libcpmtd:vector_algorithms.obj
 0001:001fa4d0       ___std_find_last_trivial_8@16 005fb4d0 f   libcpmtd:vector_algorithms.obj
 0001:001fa500       ___std_find_trivial_1@12   005fb500 f   libcpmtd:vector_algorithms.obj
 0001:001fa520       ___std_find_trivial_2@12   005fb520 f   libcpmtd:vector_algorithms.obj
 0001:001fa540       ___std_find_trivial_4@12   005fb540 f   libcpmtd:vector_algorithms.obj
 0001:001fa560       ___std_find_trivial_8@16   005fb560 f   libcpmtd:vector_algorithms.obj
 0001:001fa590       ___std_find_trivial_unsized_1@8 005fb590 f   libcpmtd:vector_algorithms.obj
 0001:001fa5b0       ___std_find_trivial_unsized_2@8 005fb5b0 f   libcpmtd:vector_algorithms.obj
 0001:001fa5d0       ___std_find_trivial_unsized_4@8 005fb5d0 f   libcpmtd:vector_algorithms.obj
 0001:001fa5f0       ___std_find_trivial_unsized_8@12 005fb5f0 f   libcpmtd:vector_algorithms.obj
 0001:001fa620       ___std_max_1i@8            005fb620 f   libcpmtd:vector_algorithms.obj
 0001:001fa640       ___std_max_1u@8            005fb640 f   libcpmtd:vector_algorithms.obj
 0001:001fa660       ___std_max_2i@8            005fb660 f   libcpmtd:vector_algorithms.obj
 0001:001fa680       ___std_max_2u@8            005fb680 f   libcpmtd:vector_algorithms.obj
 0001:001fa6a0       ___std_max_4i@8            005fb6a0 f   libcpmtd:vector_algorithms.obj
 0001:001fa6c0       ___std_max_4u@8            005fb6c0 f   libcpmtd:vector_algorithms.obj
 0001:001fa6e0       ___std_max_8i@8            005fb6e0 f   libcpmtd:vector_algorithms.obj
 0001:001fa700       ___std_max_8u@8            005fb700 f   libcpmtd:vector_algorithms.obj
 0001:001fa720       ___std_max_d@8             005fb720 f   libcpmtd:vector_algorithms.obj
 0001:001fa740       ___std_max_element_1@12    005fb740 f   libcpmtd:vector_algorithms.obj
 0001:001fa770       ___std_max_element_2@12    005fb770 f   libcpmtd:vector_algorithms.obj
 0001:001fa7a0       ___std_max_element_4@12    005fb7a0 f   libcpmtd:vector_algorithms.obj
 0001:001fa7d0       ___std_max_element_8@12    005fb7d0 f   libcpmtd:vector_algorithms.obj
 0001:001fa800       ___std_max_element_d@12    005fb800 f   libcpmtd:vector_algorithms.obj
 0001:001fa820       ___std_max_element_f@12    005fb820 f   libcpmtd:vector_algorithms.obj
 0001:001fa840       ___std_max_f@8             005fb840 f   libcpmtd:vector_algorithms.obj
 0001:001fa860       ___std_min_1i@8            005fb860 f   libcpmtd:vector_algorithms.obj
 0001:001fa880       ___std_min_1u@8            005fb880 f   libcpmtd:vector_algorithms.obj
 0001:001fa8a0       ___std_min_2i@8            005fb8a0 f   libcpmtd:vector_algorithms.obj
 0001:001fa8c0       ___std_min_2u@8            005fb8c0 f   libcpmtd:vector_algorithms.obj
 0001:001fa8e0       ___std_min_4i@8            005fb8e0 f   libcpmtd:vector_algorithms.obj
 0001:001fa900       ___std_min_4u@8            005fb900 f   libcpmtd:vector_algorithms.obj
 0001:001fa920       ___std_min_8i@8            005fb920 f   libcpmtd:vector_algorithms.obj
 0001:001fa940       ___std_min_8u@8            005fb940 f   libcpmtd:vector_algorithms.obj
 0001:001fa960       ___std_min_d@8             005fb960 f   libcpmtd:vector_algorithms.obj
 0001:001fa980       ___std_min_element_1@12    005fb980 f   libcpmtd:vector_algorithms.obj
 0001:001fa9b0       ___std_min_element_2@12    005fb9b0 f   libcpmtd:vector_algorithms.obj
 0001:001fa9e0       ___std_min_element_4@12    005fb9e0 f   libcpmtd:vector_algorithms.obj
 0001:001faa10       ___std_min_element_8@12    005fba10 f   libcpmtd:vector_algorithms.obj
 0001:001faa40       ___std_min_element_d@12    005fba40 f   libcpmtd:vector_algorithms.obj
 0001:001faa60       ___std_min_element_f@12    005fba60 f   libcpmtd:vector_algorithms.obj
 0001:001faa80       ___std_min_f@8             005fba80 f   libcpmtd:vector_algorithms.obj
 0001:001faaa0       ___std_minmax_1i@8         005fbaa0 f   libcpmtd:vector_algorithms.obj
 0001:001faad0       ___std_minmax_1u@8         005fbad0 f   libcpmtd:vector_algorithms.obj
 0001:001fab00       ___std_minmax_2i@8         005fbb00 f   libcpmtd:vector_algorithms.obj
 0001:001fab30       ___std_minmax_2u@8         005fbb30 f   libcpmtd:vector_algorithms.obj
 0001:001fab60       ___std_minmax_4i@8         005fbb60 f   libcpmtd:vector_algorithms.obj
 0001:001faba0       ___std_minmax_4u@8         005fbba0 f   libcpmtd:vector_algorithms.obj
 0001:001fabe0       ___std_minmax_8i@8         005fbbe0 f   libcpmtd:vector_algorithms.obj
 0001:001fac30       ___std_minmax_8u@8         005fbc30 f   libcpmtd:vector_algorithms.obj
 0001:001fac80       ___std_minmax_d@8          005fbc80 f   libcpmtd:vector_algorithms.obj
 0001:001facd0       ___std_minmax_element_1@12 005fbcd0 f   libcpmtd:vector_algorithms.obj
 0001:001fad10       ___std_minmax_element_2@12 005fbd10 f   libcpmtd:vector_algorithms.obj
 0001:001fad50       ___std_minmax_element_4@12 005fbd50 f   libcpmtd:vector_algorithms.obj
 0001:001fad90       ___std_minmax_element_8@12 005fbd90 f   libcpmtd:vector_algorithms.obj
 0001:001fadd0       ___std_minmax_element_d@12 005fbdd0 f   libcpmtd:vector_algorithms.obj
 0001:001fae10       ___std_minmax_element_f@12 005fbe10 f   libcpmtd:vector_algorithms.obj
 0001:001fae50       ___std_minmax_f@8          005fbe50 f   libcpmtd:vector_algorithms.obj
 0001:001fae90       ___std_mismatch_1@12       005fbe90 f   libcpmtd:vector_algorithms.obj
 0001:001faeb0       ___std_mismatch_2@12       005fbeb0 f   libcpmtd:vector_algorithms.obj
 0001:001faed0       ___std_mismatch_4@12       005fbed0 f   libcpmtd:vector_algorithms.obj
 0001:001faef0       ___std_mismatch_8@12       005fbef0 f   libcpmtd:vector_algorithms.obj
 0001:001faf10       ___std_remove_1@12         005fbf10 f   libcpmtd:vector_algorithms.obj
 0001:001fb0d0       ___std_remove_2@12         005fc0d0 f   libcpmtd:vector_algorithms.obj
 0001:001fb2b0       ___std_remove_4@12         005fc2b0 f   libcpmtd:vector_algorithms.obj
 0001:001fb630       ___std_remove_8@16         005fc630 f   libcpmtd:vector_algorithms.obj
 0001:001fb9c0       ___std_replace_4@16        005fc9c0 f   libcpmtd:vector_algorithms.obj
 0001:001fbc30       ___std_replace_8@24        005fcc30 f   libcpmtd:vector_algorithms.obj
 0001:001fbec0       ___std_reverse_copy_trivially_copyable_1 005fcec0 f   libcpmtd:vector_algorithms.obj
 0001:001fc150       ___std_reverse_copy_trivially_copyable_2 005fd150 f   libcpmtd:vector_algorithms.obj
 0001:001fc3e0       ___std_reverse_copy_trivially_copyable_4 005fd3e0 f   libcpmtd:vector_algorithms.obj
 0001:001fc610       ___std_reverse_copy_trivially_copyable_8 005fd610 f   libcpmtd:vector_algorithms.obj
 0001:001fc810       ___std_reverse_trivially_swappable_1 005fd810 f   libcpmtd:vector_algorithms.obj
 0001:001fcb90       ___std_reverse_trivially_swappable_2 005fdb90 f   libcpmtd:vector_algorithms.obj
 0001:001fcf10       ___std_reverse_trivially_swappable_4 005fdf10 f   libcpmtd:vector_algorithms.obj
 0001:001fd200       ___std_reverse_trivially_swappable_8 005fe200 f   libcpmtd:vector_algorithms.obj
 0001:001fd4c0       ___std_search_1@16         005fe4c0 f   libcpmtd:vector_algorithms.obj
 0001:001fd4f0       ___std_search_2@16         005fe4f0 f   libcpmtd:vector_algorithms.obj
 0001:001fd520       ___std_swap_ranges_trivially_swappable 005fe520 f   libcpmtd:vector_algorithms.obj
 0001:001fd550       ___std_swap_ranges_trivially_swappable_noalias 005fe550 f   libcpmtd:vector_algorithms.obj
 0001:001fd920       __Thrd_create              005fe920 f   libcpmtd:cthread.obj
 0001:001fda60       __Thrd_current             005fea60 f   libcpmtd:cthread.obj
 0001:001fda90       __Thrd_detach              005fea90 f   libcpmtd:cthread.obj
 0001:001fdad0       __Thrd_equal               005fead0 f   libcpmtd:cthread.obj
 0001:001fdb00       __Thrd_exit                005feb00 f   libcpmtd:cthread.obj
 0001:001fdb20       __Thrd_hardware_concurrency 005feb20 f   libcpmtd:cthread.obj
 0001:001fdb40       __Thrd_id                  005feb40 f   libcpmtd:cthread.obj
 0001:001fdb50       __Thrd_join                005feb50 f   libcpmtd:cthread.obj
 0001:001fdbe0       __Thrd_sleep               005febe0 f   libcpmtd:cthread.obj
 0001:001fdca0       __Thrd_start               005feca0 f   libcpmtd:cthread.obj
 0001:001fdd00       __Thrd_yield               005fed00 f   libcpmtd:cthread.obj
 0001:001fdd10       ??0?$lock_guard@Vmutex@std@@@std@@QAE@AAVmutex@1@@Z 005fed10 f i libcpmtd:xnotify.obj
 0001:001fdd40       ??1?$lock_guard@Vmutex@std@@@std@@QAE@XZ 005fed40 f i libcpmtd:xnotify.obj
 0001:001fdd60       __Cnd_do_broadcast_at_thread_exit 005fed60 f   libcpmtd:xnotify.obj
 0001:001fdef0       __Cnd_register_at_thread_exit 005feef0 f   libcpmtd:xnotify.obj
 0001:001fe070       __Cnd_unregister_at_thread_exit 005ff070 f   libcpmtd:xnotify.obj
 0001:001fe170       ??$_Immortalize_memcpy_image@V_Generic_error_category@std@@@std@@YAABV_Generic_error_category@0@XZ 005ff170 f i libcpmtd:thread0.obj
 0001:001fe180       ??0system_error@std@@QAE@HABVerror_category@1@PBD@Z 005ff180 f i libcpmtd:thread0.obj
 0001:001fe240       ??1_Generic_error_category@std@@UAE@XZ 005ff240 f i libcpmtd:thread0.obj
 0001:001fe260       ??_E_Generic_error_category@std@@UAEPAXI@Z 005ff260 f i libcpmtd:thread0.obj
 0001:001fe260       ??_G_Generic_error_category@std@@UAEPAXI@Z 005ff260 f i libcpmtd:thread0.obj
 0001:001fe2a0       ?_Throw_C_error@std@@YAXH@Z 005ff2a0 f   libcpmtd:thread0.obj
 0001:001fe310       ?_Throw_Cpp_error@std@@YAXH@Z 005ff310 f   libcpmtd:thread0.obj
 0001:001fe380       ?generic_category@std@@YAABVerror_category@1@XZ 005ff380 f i libcpmtd:thread0.obj
 0001:001fe390       ?message@_Generic_error_category@std@@UBE?AV?$basic_string@DU?$char_traits@D@std@@V?$allocator@D@2@@2@H@Z 005ff390 f i libcpmtd:thread0.obj
 0001:001fe3e0       ?name@_Generic_error_category@std@@UBEPBDXZ 005ff3e0 f i libcpmtd:thread0.obj
 0001:001fe400       __Getcvt                   005ff400 f   libcpmtd:xwctomb.obj
 0001:001fe500       __Wcrtomb                  005ff500 f   libcpmtd:xwctomb.obj
 0001:001fe620       ___Wcrtomb_lk              005ff620 f   libcpmtd:xwctomb.obj
 0001:001fe650       ?_Addstd@ios_base@std@@SAXPAV12@@Z 005ff650 f   libcpmtd:ios.obj
 0001:001fe710       ?_Callfns@ios_base@std@@AAEXW4event@12@@Z 005ff710 f i libcpmtd:ios.obj
 0001:001fe780       ?_Ios_base_dtor@ios_base@std@@CAXPAV12@@Z 005ff780 f   libcpmtd:ios.obj
 0001:001fe810       ?_Tidy@ios_base@std@@AAEXXZ 005ff810 f i libcpmtd:ios.obj
 0001:001feb30       ?_Fiopen@std@@YAPAU_iobuf@@PBDHH@Z 005ffb30 f   libcpmtd:fiopen.obj
 0001:001feb50       ?_Fiopen@std@@YAPAU_iobuf@@PBGHH@Z 005ffb50 f   libcpmtd:fiopen.obj
 0001:001feb70       ?_Fiopen@std@@YAPAU_iobuf@@PB_WHH@Z 005ffb70 f   libcpmtd:fiopen.obj
 0001:001febf0       ??0_Init_cerr@std@@QAE@XZ  005ffbf0 f i libcpmtd:cerr.obj
 0001:001fec60       ?setf@ios_base@std@@QAEHH@Z 005ffc60 f i libcpmtd:cerr.obj
 0001:001feca0       ??$_Atomic_address_as@_JU?$_Atomic_padded@_J@std@@@std@@YAPC_JAAU?$_Atomic_padded@_J@0@@Z 005ffca0 f i libcpmtd:xtime.obj
 0001:001fecb0       ??$_Atomic_address_as@_JU?$_Atomic_padded@_J@std@@@std@@YAPD_JABU?$_Atomic_padded@_J@0@@Z 005ffcb0 f i libcpmtd:xtime.obj
 0001:001fecc0       ??$_Atomic_reinterpret_as@_J_J@std@@YA_JAB_J@Z 005ffcc0 f i libcpmtd:xtime.obj
 0001:001fecd0       ?_Check_load_memory_order@std@@YAXW4memory_order@1@@Z 005ffcd0 f i libcpmtd:xtime.obj
 0001:001fed60       ?_Check_store_memory_order@std@@YAXW4memory_order@1@@Z 005ffd60 f i libcpmtd:xtime.obj
 0001:001fefc0       ?load@?$_Atomic_storage@_J$07@std@@QBE_JW4memory_order@2@@Z 005fffc0 f i libcpmtd:xtime.obj
 0001:001ff030       ?store@?$_Atomic_storage@_J$07@std@@QAEX_J@Z 00600030 f i libcpmtd:xtime.obj
 0001:001ff0a0       ?store@?$_Atomic_storage@_J$07@std@@QAEX_JW4memory_order@2@@Z 006000a0 f i libcpmtd:xtime.obj
 0001:001ff160       __Atomic_thread_fence      00600160 f i libcpmtd:xtime.obj
 0001:001ff190       __Query_perf_counter       00600190 f   libcpmtd:xtime.obj
 0001:001ff1b0       __Query_perf_frequency     006001b0 f   libcpmtd:xtime.obj
 0001:001ff220       __Timespec64_get_sys       00600220 f   libcpmtd:xtime.obj
 0001:001ff290       __Xtime_diff_to_millis     00600290 f   libcpmtd:xtime.obj
 0001:001ff2e0       __Xtime_diff_to_millis2    006002e0 f   libcpmtd:xtime.obj
 0001:001ff3b0       __Xtime_get_ticks          006003b0 f   libcpmtd:xtime.obj
 0001:001ff410       _xtime_get                 00600410 f   libcpmtd:xtime.obj
 0001:001ff450       ?_Primitive_wait_for@@YA_NQAU_Cnd_internal_imp_t@@QAU_Mtx_internal_imp_t@@I@Z 00600450 f i libcpmtd:sharedmutex.obj
 0001:001ff4b0       __Cnd_timedwait_for@12     006004b0 f   libcpmtd:sharedmutex.obj
 0001:001ff4d0       __Cnd_timedwait_for_impl@16 006004d0 f   libcpmtd:sharedmutex.obj
 0001:001ff5d0       __Cnd_timedwait_for_unchecked@12 006005d0 f   libcpmtd:sharedmutex.obj
 0001:001ff5f0       __Smtx_lock_exclusive      006005f0 f   libcpmtd:sharedmutex.obj
 0001:001ff610       __Smtx_lock_shared         00600610 f   libcpmtd:sharedmutex.obj
 0001:001ff630       __Smtx_try_lock_exclusive  00600630 f   libcpmtd:sharedmutex.obj
 0001:001ff650       __Smtx_try_lock_shared     00600650 f   libcpmtd:sharedmutex.obj
 0001:001ff670       __Smtx_unlock_exclusive    00600670 f   libcpmtd:sharedmutex.obj
 0001:001ff690       __Smtx_unlock_shared       00600690 f   libcpmtd:sharedmutex.obj
 0001:001ff6b0       __Thrd_sleep_for@4         006006b0 f   libcpmtd:sharedmutex.obj
 0001:001ff6d0       ??0_Stl_critical_section@@QAE@XZ 006006d0 f i libcpmtd:mutex.obj
 0001:001ff700       __Mtx_current_owns         00600700 f   libcpmtd:mutex.obj
 0001:001ff740       __Mtx_destroy              00600740 f   libcpmtd:mutex.obj
 0001:001ff770       __Mtx_destroy_in_situ      00600770 f   libcpmtd:mutex.obj
 0001:001ff7a0       __Mtx_getconcrtcs          006007a0 f   libcpmtd:mutex.obj
 0001:001ff7b0       __Mtx_init                 006007b0 f   libcpmtd:mutex.obj
 0001:001ff820       __Mtx_init_in_situ         00600820 f   libcpmtd:mutex.obj
 0001:001ff880       __Mtx_lock                 00600880 f   libcpmtd:mutex.obj
 0001:001ff8a0       __Mtx_timedlock            006008a0 f   libcpmtd:mutex.obj
 0001:001ff900       __Mtx_trylock              00600900 f   libcpmtd:mutex.obj
 0001:001ff970       __Mtx_unlock               00600970 f   libcpmtd:mutex.obj
 0001:001ffa10       __Thrd_abort               00600a10 f   libcpmtd:mutex.obj
 0001:001ffa60       ___set_stl_sync_api_mode   00600a60 f   libcpmtd:mutex.obj
 0001:001ffd40       __Mtxdst                   00600d40 f   libcpmtd:xmtx.obj
 0001:001ffd60       __Mtxinit                  00600d60 f   libcpmtd:xmtx.obj
 0001:001ffd80       __Mtxlock                  00600d80 f   libcpmtd:xmtx.obj
 0001:001ffda0       __Mtxunlock                00600da0 f   libcpmtd:xmtx.obj
 0001:001ffde0       ___std_get_string_size_without_trailing_whitespace@8 00600de0 f   libcpmtd:syserror_import_lib.obj
 0001:001ffe30       ___std_system_error_allocate_message@8 00600e30 f   libcpmtd:syserror_import_lib.obj
 0001:001fff10       ___std_system_error_deallocate_message@4 00600f10 f   libcpmtd:syserror_import_lib.obj
 0001:001fff30       ??$?8DU?$char_traits@D@std@@@std@@YA_NABV?$istreambuf_iterator@DU?$char_traits@D@std@@@0@0@Z 00600f30 f i libcpmtd:locale.obj
 0001:001fff50       ??$_Adl_verify_range@V?$istreambuf_iterator@DU?$char_traits@D@std@@@std@@V12@@std@@YAXABV?$istreambuf_iterator@DU?$char_traits@D@std@@@0@0@Z 00600f50 f i libcpmtd:locale.obj
 0001:001fff60       ??$_Could_compare_equal_to_value_type@PBDD@std@@YA_NABD@Z 00600f60 f i libcpmtd:locale.obj
 0001:001fffb0       ??$_Find_elem@D$0BL@@std@@YAIAAY0BL@$$CBDD@Z 00600fb0 f i libcpmtd:locale.obj
 0001:001fffe0       ??$_Find_elem@D$0BN@@std@@YAIAAY0BN@$$CBDD@Z 00600fe0 f i libcpmtd:locale.obj
 0001:00200010       ??$_Find_unchecked@PBDD@std@@YAPBDPBDQBDABD@Z 00601010 f i libcpmtd:locale.obj
 0001:002000e0       ??$_Find_vectorized@$$CBDD@std@@YAPBDQBD0D@Z 006010e0 f i libcpmtd:locale.obj
 0001:00200100       ??$_Get_unwrapped@ABQAD@std@@YA?A_TABQAD@Z 00601100 f i libcpmtd:locale.obj
 0001:00200110       ??$_Getloctxt@V?$istreambuf_iterator@DU?$char_traits@D@std@@@std@@D@std@@YAHAAV?$istreambuf_iterator@DU?$char_traits@D@std@@@0@0IPBDW4_Case_sensitive@0@@Z 00601110 f i libcpmtd:locale.obj
 0001:002004c0       ??$_Parse_fp_with_locale@$0A@@?$num_get@DV?$istreambuf_iterator@DU?$char_traits@D@std@@@std@@@std@@CA?AU_Num_get_parse_result@1@QADHAAV?$istreambuf_iterator@DU?$char_traits@D@std@@@1@1ABVlocale@1@@Z 006014c0 f i libcpmtd:locale.obj
 0001:00201810       ??$_Parse_int_with_locale@$0A@@?$num_get@DV?$istreambuf_iterator@DU?$char_traits@D@std@@@std@@@std@@CA?AU_Num_get_parse_result@1@QADAAV?$istreambuf_iterator@DU?$char_traits@D@std@@@1@1HABVlocale@1@@Z 00602810 f i libcpmtd:locale.obj
 0001:00202030       ??$_Reallocate_grow_by@V<lambda_1>@?1??append@?$basic_string@DU?$char_traits@D@std@@V?$allocator@D@2@@std@@QAEAAV34@ID@Z@ID@?$basic_string@DU?$char_traits@D@std@@V?$allocator@D@2@@std@@AAEAAV01@IV<lambda_1>@?1??append@01@QAEAAV01@ID@Z@ID@Z 00603030 f i libcpmtd:locale.obj
 0001:002021c0       ??$_Reallocate_grow_by@V<lambda_1>@?1??insert@?$basic_string@DU?$char_traits@D@std@@V?$allocator@D@2@@std@@QAEAAV34@IID@Z@IID@?$basic_string@DU?$char_traits@D@std@@V?$allocator@D@2@@std@@AAEAAV01@IV<lambda_1>@?1??insert@01@QAEAAV01@IID@Z@IID@Z 006031c0 f i libcpmtd:locale.obj
 0001:00202350       ??$_Reverse_vectorized@$00@std@@YAXPAX0@Z 00603350 f i libcpmtd:locale.obj
 0001:00202370       ??$_To_address@PAD@std@@YA?A_PABQAD@Z 00603370 f i libcpmtd:locale.obj
 0001:00202390       ??$_To_address@PBD@std@@YA?A_PABQBD@Z 00603390 f i libcpmtd:locale.obj
 0001:002023b0       ??$begin@$$CBD$0BL@@std@@YAPBDAAY0BL@$$CBD@Z 006033b0 f i libcpmtd:locale.obj
 0001:002023c0       ??$begin@$$CBD$0BN@@std@@YAPBDAAY0BN@$$CBD@Z 006033c0 f i libcpmtd:locale.obj
 0001:002023d0       ??$end@$$CBD$0BL@@std@@YAPBDAAY0BL@$$CBD@Z 006033d0 f i libcpmtd:locale.obj
 0001:002023e0       ??$end@$$CBD$0BN@@std@@YAPBDAAY0BN@$$CBD@Z 006033e0 f i libcpmtd:locale.obj
 0001:002023f0       ??$reverse@PAD@std@@YAXQAD0@Z 006033f0 f i libcpmtd:locale.obj
 0001:002024e0       ??$swap@D$0A@@std@@YAXAAD0@Z 006034e0 f i libcpmtd:locale.obj
 0001:00202510       ??$to_address@$$CBD@std@@YAPBDQBD@Z 00603510 f i libcpmtd:locale.obj
 0001:00202520       ??$to_address@D@std@@YAPADQAD@Z 00603520 f i libcpmtd:locale.obj
 0001:00202530       ??$use_facet@V?$num_get@DV?$istreambuf_iterator@DU?$char_traits@D@std@@@std@@@std@@@std@@YAABV?$num_get@DV?$istreambuf_iterator@DU?$char_traits@D@std@@@std@@@0@ABVlocale@0@@Z 00603530 f i libcpmtd:locale.obj
 0001:00202690       ??0?$num_get@DV?$istreambuf_iterator@DU?$char_traits@D@std@@@std@@@std@@QAE@ABV_Locinfo@1@I@Z 00603690 f i libcpmtd:locale.obj
 0001:00202720       ??1?$num_get@DV?$istreambuf_iterator@DU?$char_traits@D@std@@@std@@@std@@MAE@XZ 00603720 f i libcpmtd:locale.obj
 0001:00202750       ??D?$istreambuf_iterator@DU?$char_traits@D@std@@@std@@QBEDXZ 00603750 f i libcpmtd:locale.obj
 0001:002027d0       ??E?$istreambuf_iterator@DU?$char_traits@D@std@@@std@@QAEAAV01@XZ 006037d0 f i libcpmtd:locale.obj
 0001:00202840       ??R<lambda_1>@?1??append@?$basic_string@DU?$char_traits@D@std@@V?$allocator@D@2@@std@@QAEAAV23@ID@Z@QBE@QADQBDIID@Z 00603840 f i libcpmtd:locale.obj
 0001:002028b0       ??R<lambda_1>@?1??insert@?$basic_string@DU?$char_traits@D@std@@V?$allocator@D@2@@std@@QAEAAV23@IID@Z@QBE@QADQBDIIID@Z 006038b0 f i libcpmtd:locale.obj
 0001:00202930       ??Y?$basic_string@DU?$char_traits@D@std@@V?$allocator@D@2@@std@@QAEAAV01@ABV01@@Z 00603930 f i libcpmtd:locale.obj
 0001:00202950       ??_E?$num_get@DV?$istreambuf_iterator@DU?$char_traits@D@std@@@std@@@std@@MAEPAXI@Z 00603950 f i libcpmtd:locale.obj
 0001:00202950       ??_G?$num_get@DV?$istreambuf_iterator@DU?$char_traits@D@std@@@std@@@std@@MAEPAXI@Z 00603950 f i libcpmtd:locale.obj
 0001:002029b0       ?_Addfac@_Locimp@locale@std@@AAEXPAVfacet@23@I@Z 006039b0 f i libcpmtd:locale.obj
 0001:002029e0       ?_Getcat@?$num_get@DV?$istreambuf_iterator@DU?$char_traits@D@std@@@std@@@std@@SAIPAPBVfacet@locale@2@PBV42@@Z 006039e0 f i libcpmtd:locale.obj
 0001:00202b10       ?_Getname@_Locinfo@std@@QBEPBDXZ 00603b10 f i libcpmtd:locale.obj
 0001:00202b30       ?_Inc@?$istreambuf_iterator@DU?$char_traits@D@std@@@std@@AAEXXZ 00603b30 f i libcpmtd:locale.obj
 0001:00202ba0       ?_Init@?$num_get@DV?$istreambuf_iterator@DU?$char_traits@D@std@@@std@@@std@@IAEXABV_Locinfo@2@@Z 00603ba0 f i libcpmtd:locale.obj
 0001:00202bb0       ?_Locimp_Addfac@_Locimp@locale@std@@CAXPAV123@PAVfacet@23@I@Z 00603bb0 f   libcpmtd:locale.obj
 0001:00202da0       ?_Locimp_ctor@_Locimp@locale@std@@CAXPAV123@ABV123@@Z 00603da0 f   libcpmtd:locale.obj
 0001:00202f20       ?_Locinfo_Addcats@_Locinfo@std@@SAAAV12@PAV12@HPBD@Z 00603f20 f   libcpmtd:locale.obj
 0001:00203080       ?_Locinfo_ctor@_Locinfo@std@@SAXPAV12@HPBD@Z 00604080 f   libcpmtd:locale.obj
 0001:002030f0       ?_Makeloc@_Locimp@locale@std@@CAPAV123@ABV_Locinfo@3@HPAV123@PBV23@@Z 006040f0 f   libcpmtd:locale.obj
 0001:00203680       ?_Peek@?$istreambuf_iterator@DU?$char_traits@D@std@@@std@@ABEDXZ 00604680 f i libcpmtd:locale.obj
 0001:00203710       ?_Stodx_v3@std@@YANPBDPAPADPAH@Z 00604710 f i libcpmtd:locale.obj
 0001:00203770       ?_Stofx_v3@std@@YAMPBDPAPADPAH@Z 00604770 f i libcpmtd:locale.obj
 0001:002037d0       ?assign@?$_Char_traits@DH@std@@SAPADQADID@Z 006047d0 f i libcpmtd:locale.obj
 0001:00203820       ?do_get@?$num_get@DV?$istreambuf_iterator@DU?$char_traits@D@std@@@std@@@std@@MBE?AV?$istreambuf_iterator@DU?$char_traits@D@std@@@2@V32@0AAVios_base@2@AAHAAG@Z 00604820 f i libcpmtd:locale.obj
 0001:00203a50       ?do_get@?$num_get@DV?$istreambuf_iterator@DU?$char_traits@D@std@@@std@@@std@@MBE?AV?$istreambuf_iterator@DU?$char_traits@D@std@@@2@V32@0AAVios_base@2@AAHAAI@Z 00604a50 f i libcpmtd:locale.obj
 0001:00203ad0       ?do_get@?$num_get@DV?$istreambuf_iterator@DU?$char_traits@D@std@@@std@@@std@@MBE?AV?$istreambuf_iterator@DU?$char_traits@D@std@@@2@V32@0AAVios_base@2@AAHAAJ@Z 00604ad0 f i libcpmtd:locale.obj
 0001:00203c70       ?do_get@?$num_get@DV?$istreambuf_iterator@DU?$char_traits@D@std@@@std@@@std@@MBE?AV?$istreambuf_iterator@DU?$char_traits@D@std@@@2@V32@0AAVios_base@2@AAHAAK@Z 00604c70 f i libcpmtd:locale.obj
 0001:00203e10       ?do_get@?$num_get@DV?$istreambuf_iterator@DU?$char_traits@D@std@@@std@@@std@@MBE?AV?$istreambuf_iterator@DU?$char_traits@D@std@@@2@V32@0AAVios_base@2@AAHAAM@Z 00604e10 f i libcpmtd:locale.obj
 0001:00203fd0       ?do_get@?$num_get@DV?$istreambuf_iterator@DU?$char_traits@D@std@@@std@@@std@@MBE?AV?$istreambuf_iterator@DU?$char_traits@D@std@@@2@V32@0AAVios_base@2@AAHAAN@Z 00604fd0 f i libcpmtd:locale.obj
 0001:00204190       ?do_get@?$num_get@DV?$istreambuf_iterator@DU?$char_traits@D@std@@@std@@@std@@MBE?AV?$istreambuf_iterator@DU?$char_traits@D@std@@@2@V32@0AAVios_base@2@AAHAAO@Z 00605190 f i libcpmtd:locale.obj
 0001:00204210       ?do_get@?$num_get@DV?$istreambuf_iterator@DU?$char_traits@D@std@@@std@@@std@@MBE?AV?$istreambuf_iterator@DU?$char_traits@D@std@@@2@V32@0AAVios_base@2@AAHAAPAX@Z 00605210 f i libcpmtd:locale.obj
 0001:002043b0       ?do_get@?$num_get@DV?$istreambuf_iterator@DU?$char_traits@D@std@@@std@@@std@@MBE?AV?$istreambuf_iterator@DU?$char_traits@D@std@@@2@V32@0AAVios_base@2@AAHAA_J@Z 006053b0 f i libcpmtd:locale.obj
 0001:00204550       ?do_get@?$num_get@DV?$istreambuf_iterator@DU?$char_traits@D@std@@@std@@@std@@MBE?AV?$istreambuf_iterator@DU?$char_traits@D@std@@@2@V32@0AAVios_base@2@AAHAA_K@Z 00605550 f i libcpmtd:locale.obj
 0001:002046f0       ?do_get@?$num_get@DV?$istreambuf_iterator@DU?$char_traits@D@std@@@std@@@std@@MBE?AV?$istreambuf_iterator@DU?$char_traits@D@std@@@2@V32@0AAVios_base@2@AAHAA_N@Z 006056f0 f i libcpmtd:locale.obj
 0001:00204b00       ?equal@?$istreambuf_iterator@DU?$char_traits@D@std@@@std@@QBE_NABV12@@Z 00605b00 f i libcpmtd:locale.obj
 0001:00204b90       ?global@locale@std@@SA?AV12@ABV12@@Z 00605b90 f   libcpmtd:locale.obj
 0001:00204d80       ?tolower@?$ctype@D@std@@QBEDD@Z 00605d80 f i libcpmtd:locale.obj
 0001:00204dd0       ??1_Init_atexit@@QAE@XZ    00605dd0 f i libcpmtd:iosptrs.obj
 0001:00204e80       ?_Atexit@@YAXP6AXXZ@Z      00605e80 f   libcpmtd:iosptrs.obj
 0001:00204ee0       ??0?$__crt_scoped_stack_ptr@_W@@QAE@U?$__crt_scoped_stack_ptr_tag@_W@@@Z 00605ee0 f i libcpmtd:StlLCMapStringA.obj
 0001:00204f00       ??0?$__crt_scoped_stack_ptr_tag@_W@@QAE@QA_W@Z 00605f00 f i libcpmtd:StlLCMapStringA.obj
 0001:00204f20       ??1?$__crt_scoped_stack_ptr@_W@@QAE@XZ 00605f20 f i libcpmtd:StlLCMapStringA.obj
 0001:00204f40       ??B?$__crt_scoped_stack_ptr@_W@@QBE_NXZ 00605f40 f i libcpmtd:StlLCMapStringA.obj
 0001:00204f80       ?get@?$__crt_scoped_stack_ptr@_W@@QBEPA_WXZ 00605f80 f i libcpmtd:StlLCMapStringA.obj
 0001:00204fa0       __MallocaComputeSize       00605fa0 f i libcpmtd:StlLCMapStringA.obj
 0001:00204fe0       __MarkAllocaS              00605fe0 f i libcpmtd:StlLCMapStringA.obj
 0001:00205010       ___crtLCMapStringA         00606010 f   libcpmtd:StlLCMapStringA.obj
 0001:00205460       __freea_crt                00606460 f i libcpmtd:StlLCMapStringA.obj
 0001:002054f0       ??0_Cnd_internal_imp_t@@QAE@XZ 006064f0 f i libcpmtd:cond.obj
 0001:00205520       ?_Primitive_notify_all@@YAXQAU_Cnd_internal_imp_t@@@Z 00606520 f i libcpmtd:cond.obj
 0001:00205550       ?_Primitive_notify_one@@YAXQAU_Cnd_internal_imp_t@@@Z 00606550 f i libcpmtd:cond.obj
 0001:00205580       ?_Primitive_wait@@YAXQAU_Cnd_internal_imp_t@@QAU_Mtx_internal_imp_t@@@Z 00606580 f i libcpmtd:cond.obj
 0001:002055b0       __Cnd_broadcast            006065b0 f   libcpmtd:cond.obj
 0001:002055d0       __Cnd_destroy              006065d0 f   libcpmtd:cond.obj
 0001:002055f0       __Cnd_destroy_in_situ      006065f0 f   libcpmtd:cond.obj
 0001:00205600       __Cnd_init                 00606600 f   libcpmtd:cond.obj
 0001:00205660       __Cnd_init_in_situ         00606660 f   libcpmtd:cond.obj
 0001:00205690       __Cnd_signal               00606690 f   libcpmtd:cond.obj
 0001:002056b0       __Cnd_timedwait            006066b0 f   libcpmtd:cond.obj
 0001:002057b0       __Cnd_wait                 006067b0 f   libcpmtd:cond.obj
 0001:002057f0       __Mtx_clear_owner          006067f0 f   libcpmtd:cond.obj
 0001:00205820       __Mtx_reset_owner          00606820 f   libcpmtd:cond.obj
 0001:002058a0       ___crtCloseThreadpoolTimer 006068a0 f   libcpmtd:winapisupp.obj
 0001:002058c0       ___crtCloseThreadpoolWait  006068c0 f   libcpmtd:winapisupp.obj
 0001:002058e0       ___crtCreateEventExW       006068e0 f   libcpmtd:winapisupp.obj
 0001:00205910       ___crtCreateSemaphoreExW   00606910 f   libcpmtd:winapisupp.obj
 0001:00205940       ___crtCreateSymbolicLinkW  00606940 f   libcpmtd:winapisupp.obj
 0001:00205960       ___crtCreateThreadpoolTimer 00606960 f   libcpmtd:winapisupp.obj
 0001:00205980       ___crtCreateThreadpoolWait 00606980 f   libcpmtd:winapisupp.obj
 0001:002059a0       ___crtFlushProcessWriteBuffers 006069a0 f   libcpmtd:winapisupp.obj
 0001:002059b0       ___crtFreeLibraryWhenCallbackReturns 006069b0 f   libcpmtd:winapisupp.obj
 0001:002059d0       ___crtGetCurrentProcessorNumber 006069d0 f   libcpmtd:winapisupp.obj
 0001:002059e0       ___crtGetFileInformationByHandleEx 006069e0 f   libcpmtd:winapisupp.obj
 0001:00205a10       ___crtGetSystemTimePreciseAsFileTime 00606a10 f   libcpmtd:winapisupp.obj
 0001:00205aa0       ___crtGetTempPath2W@8      00606aa0 f   libcpmtd:winapisupp.obj
 0001:00205b40       ___crtGetTickCount64       00606b40 f   libcpmtd:winapisupp.obj
 0001:00205b50       ___crtInitOnceExecuteOnce  00606b50 f   libcpmtd:winapisupp.obj
 0001:00205b80       ___crtInitializeCriticalSectionEx 00606b80 f   libcpmtd:winapisupp.obj
 0001:00205ba0       ___crtIsPackagedApp        00606ba0 f   libcpmtd:winapisupp.obj
 0001:00205bb0       ___crtSetFileInformationByHandle 00606bb0 f   libcpmtd:winapisupp.obj
 0001:00205be0       ___crtSetThreadpoolTimer   00606be0 f   libcpmtd:winapisupp.obj
 0001:00205c10       ___crtSetThreadpoolWait    00606c10 f   libcpmtd:winapisupp.obj
 0001:00205c30       ___crtWaitForThreadpoolTimerCallbacks 00606c30 f   libcpmtd:winapisupp.obj
 0001:00205c50       ??$?0$$V@?$_Compressed_pair@V?$allocator@G@std@@V?$_String_val@U?$_Simple_types@G@std@@@2@$00@std@@QAE@U_Zero_then_variadic_args_t@1@@Z 00606c50 f i libcpmtd:wlocale.obj
 0001:00205c80       ??$?0$$V@?$_Compressed_pair@V?$allocator@_W@std@@V?$_String_val@U?$_Simple_types@_W@std@@@2@$00@std@@QAE@U_Zero_then_variadic_args_t@1@@Z 00606c80 f i libcpmtd:wlocale.obj
 0001:00205cb0       ??$?0G@?$allocator@U_Container_proxy@std@@@std@@QAE@ABV?$allocator@G@1@@Z 00606cb0 f i libcpmtd:wlocale.obj
 0001:00205cd0       ??$?0V?$allocator@G@std@@$$V@?$_Compressed_pair@V?$allocator@G@std@@V?$_String_val@U?$_Simple_types@G@std@@@2@$00@std@@QAE@U_One_then_variadic_args_t@1@$$QAV?$allocator@G@1@@Z 00606cd0 f i libcpmtd:wlocale.obj
 0001:00205cf0       ??$?0V?$allocator@_W@std@@$$V@?$_Compressed_pair@V?$allocator@_W@std@@V?$_String_val@U?$_Simple_types@_W@std@@@2@$00@std@@QAE@U_One_then_variadic_args_t@1@$$QAV?$allocator@_W@1@@Z 00606cf0 f i libcpmtd:wlocale.obj
 0001:00205d10       ??$?0_W@?$allocator@U_Container_proxy@std@@@std@@QAE@ABV?$allocator@_W@1@@Z 00606d10 f i libcpmtd:wlocale.obj
 0001:00205d30       ??$?8GU?$char_traits@G@std@@@std@@YA_NABV?$istreambuf_iterator@GU?$char_traits@G@std@@@0@0@Z 00606d30 f i libcpmtd:wlocale.obj
 0001:00205d50       ??$?8_WU?$char_traits@_W@std@@@std@@YA_NABV?$istreambuf_iterator@_WU?$char_traits@_W@std@@@0@0@Z 00606d50 f i libcpmtd:wlocale.obj
 0001:00205d70       ??$_Adl_verify_range@PAGPAG@std@@YAXABQAG0@Z 00606d70 f i libcpmtd:wlocale.obj
 0001:00205dd0       ??$_Adl_verify_range@PAGPBG@std@@YAXABQAGABQBG@Z 00606dd0 f i libcpmtd:wlocale.obj
 0001:00205e30       ??$_Adl_verify_range@PA_WPA_W@std@@YAXABQA_W0@Z 00606e30 f i libcpmtd:wlocale.obj
 0001:00205e90       ??$_Adl_verify_range@PA_WPB_W@std@@YAXABQA_WABQB_W@Z 00606e90 f i libcpmtd:wlocale.obj
 0001:00205ef0       ??$_Adl_verify_range@PBGPBG@std@@YAXABQBG0@Z 00606ef0 f i libcpmtd:wlocale.obj
 0001:00205f50       ??$_Adl_verify_range@PB_WPB_W@std@@YAXABQB_W0@Z 00606f50 f i libcpmtd:wlocale.obj
 0001:00205fb0       ??$_Adl_verify_range@V?$istreambuf_iterator@GU?$char_traits@G@std@@@std@@V12@@std@@YAXABV?$istreambuf_iterator@GU?$char_traits@G@std@@@0@0@Z 00606fb0 f i libcpmtd:wlocale.obj
 0001:00205fc0       ??$_Adl_verify_range@V?$istreambuf_iterator@_WU?$char_traits@_W@std@@@std@@V12@@std@@YAXABV?$istreambuf_iterator@_WU?$char_traits@_W@std@@@0@0@Z 00606fc0 f i libcpmtd:wlocale.obj
 0001:00205fd0       ??$_Allocate_at_least_helper@V?$allocator@G@std@@@std@@YAPAGAAV?$allocator@G@0@AAI@Z 00606fd0 f i libcpmtd:wlocale.obj
 0001:00205ff0       ??$_Allocate_at_least_helper@V?$allocator@_W@std@@@std@@YAPA_WAAV?$allocator@_W@0@AAI@Z 00606ff0 f i libcpmtd:wlocale.obj
 0001:00206010       ??$_Allocate_for_capacity@$0A@@?$basic_string@GU?$char_traits@G@std@@V?$allocator@G@2@@std@@CAPAGAAV?$allocator@G@1@AAI@Z 00607010 f i libcpmtd:wlocale.obj
 0001:002060c0       ??$_Allocate_for_capacity@$0A@@?$basic_string@_WU?$char_traits@_W@std@@V?$allocator@_W@2@@std@@CAPA_WAAV?$allocator@_W@1@AAI@Z 006070c0 f i libcpmtd:wlocale.obj
 0001:00206170       ??$_Construct@$00PBG@?$basic_string@GU?$char_traits@G@std@@V?$allocator@G@2@@std@@AAEXQBGI@Z 00607170 f i libcpmtd:wlocale.obj
 0001:00206380       ??$_Construct@$00PB_W@?$basic_string@_WU?$char_traits@_W@std@@V?$allocator@_W@2@@std@@AAEXQB_WI@Z 00607380 f i libcpmtd:wlocale.obj
 0001:00206590       ??$_Construct@$01PBG@?$basic_string@GU?$char_traits@G@std@@V?$allocator@G@2@@std@@AAEXQBGI@Z 00607590 f i libcpmtd:wlocale.obj
 0001:00206760       ??$_Construct@$01PB_W@?$basic_string@_WU?$char_traits@_W@std@@V?$allocator@_W@2@@std@@AAEXQB_WI@Z 00607760 f i libcpmtd:wlocale.obj
 0001:00206930       ??$_Construct@$0A@G@?$basic_string@GU?$char_traits@G@std@@V?$allocator@G@2@@std@@AAEXGI@Z 00607930 f i libcpmtd:wlocale.obj
 0001:00206b40       ??$_Construct@$0A@_W@?$basic_string@_WU?$char_traits@_W@std@@V?$allocator@_W@2@@std@@AAEX_WI@Z 00607b40 f i libcpmtd:wlocale.obj
 0001:00206d50       ??$_Construct_in_place@PAGAAPAG@std@@YAXAAPAG0@Z 00607d50 f i libcpmtd:wlocale.obj
 0001:00206dc0       ??$_Construct_in_place@PAGABQAG@std@@YAXAAPAGABQAG@Z 00607dc0 f i libcpmtd:wlocale.obj
 0001:00206e30       ??$_Construct_in_place@PA_WAAPA_W@std@@YAXAAPA_W0@Z 00607e30 f i libcpmtd:wlocale.obj
 0001:00206ea0       ??$_Construct_in_place@PA_WABQA_W@std@@YAXAAPA_WABQA_W@Z 00607ea0 f i libcpmtd:wlocale.obj
 0001:00206f10       ??$_Copy_unchecked@PA_WPA_WV?$ostreambuf_iterator@GU?$char_traits@G@std@@@std@@@std@@YA?AV?$ostreambuf_iterator@GU?$char_traits@G@std@@@0@PA_W0V10@@Z 00607f10 f i libcpmtd:wlocale.obj
 0001:00206f80       ??$_Copy_unchecked@PA_WPA_WV?$ostreambuf_iterator@_WU?$char_traits@_W@std@@@std@@@std@@YA?AV?$ostreambuf_iterator@_WU?$char_traits@_W@std@@@0@PA_W0V10@@Z 00607f80 f i libcpmtd:wlocale.obj
 0001:00206ff0       ??$_Could_compare_equal_to_value_type@PBGG@std@@YA_NABG@Z 00607ff0 f i libcpmtd:wlocale.obj
 0001:00207040       ??$_Could_compare_equal_to_value_type@PB_W_W@std@@YA_NAB_W@Z 00608040 f i libcpmtd:wlocale.obj
 0001:00207090       ??$_Destroy_in_place@PAG@std@@YAXAAPAG@Z 00608090 f i libcpmtd:wlocale.obj
 0001:002070a0       ??$_Destroy_in_place@PA_W@std@@YAXAAPA_W@Z 006080a0 f i libcpmtd:wlocale.obj
 0001:002070b0       ??$_Find_elem@G$0BL@@std@@YAIAAY0BL@$$CBGG@Z 006080b0 f i libcpmtd:wlocale.obj
 0001:002070e0       ??$_Find_elem@G$0BN@@std@@YAIAAY0BN@$$CBGG@Z 006080e0 f i libcpmtd:wlocale.obj
 0001:00207110       ??$_Find_elem@G$0M@@std@@YAIAAY0M@$$CBGG@Z 00608110 f i libcpmtd:wlocale.obj
 0001:00207140       ??$_Find_elem@_W$0BL@@std@@YAIAAY0BL@$$CB_W_W@Z 00608140 f i libcpmtd:wlocale.obj
 0001:00207170       ??$_Find_elem@_W$0BN@@std@@YAIAAY0BN@$$CB_W_W@Z 00608170 f i libcpmtd:wlocale.obj
 0001:002071a0       ??$_Find_elem@_W$0M@@std@@YAIAAY0M@$$CB_W_W@Z 006081a0 f i libcpmtd:wlocale.obj
 0001:002071d0       ??$_Find_unchecked@PBGG@std@@YAPBGPBGQBGABG@Z 006081d0 f i libcpmtd:wlocale.obj
 0001:002072a0       ??$_Find_unchecked@PB_W_W@std@@YAPB_WPB_WQB_WAB_W@Z 006082a0 f i libcpmtd:wlocale.obj
 0001:00207370       ??$_Find_vectorized@$$CBGG@std@@YAPBGQBG0G@Z 00608370 f i libcpmtd:wlocale.obj
 0001:00207390       ??$_Find_vectorized@$$CB_W_W@std@@YAPB_WQB_W0_W@Z 00608390 f i libcpmtd:wlocale.obj
 0001:002073b0       ??$_Fput_v3@$0A@@?$num_put@GV?$ostreambuf_iterator@GU?$char_traits@G@std@@@std@@@std@@ABE?AV?$ostreambuf_iterator@GU?$char_traits@G@std@@@1@V21@AAVios_base@1@GPBDI_N@Z 006083b0 f i libcpmtd:wlocale.obj
 0001:00207a10       ??$_Fput_v3@$0A@@?$num_put@_WV?$ostreambuf_iterator@_WU?$char_traits@_W@std@@@std@@@std@@ABE?AV?$ostreambuf_iterator@_WU?$char_traits@_W@std@@@1@V21@AAVios_base@1@_WPBDI_N@Z 00608a10 f i libcpmtd:wlocale.obj
 0001:00208070       ??$_Get_size_of_n@$01@std@@YAII@Z 00609070 f i libcpmtd:wlocale.obj
 0001:002080b0       ??$_Get_unwrapped@AAPA_W@std@@YA?A_TAAPA_W@Z 006090b0 f i libcpmtd:wlocale.obj
 0001:002080c0       ??$_Get_unwrapped_n@V?$ostreambuf_iterator@GU?$char_traits@G@std@@@std@@H@std@@YA?A_T$$QAV?$ostreambuf_iterator@GU?$char_traits@G@std@@@0@H@Z 006090c0 f i libcpmtd:wlocale.obj
 0001:002080d0       ??$_Get_unwrapped_n@V?$ostreambuf_iterator@_WU?$char_traits@_W@std@@@std@@H@std@@YA?A_T$$QAV?$ostreambuf_iterator@_WU?$char_traits@_W@std@@@0@H@Z 006090d0 f i libcpmtd:wlocale.obj
 0001:002080e0       ??$_Getint_v2@V?$istreambuf_iterator@GU?$char_traits@G@std@@@std@@G@std@@YAHAAV?$istreambuf_iterator@GU?$char_traits@G@std@@@0@0HHAAH1ABV?$ctype@G@0@@Z 006090e0 f i libcpmtd:wlocale.obj
 0001:00208470       ??$_Getint_v2@V?$istreambuf_iterator@_WU?$char_traits@_W@std@@@std@@_W@std@@YAHAAV?$istreambuf_iterator@_WU?$char_traits@_W@std@@@0@0HHAAH1ABV?$ctype@_W@0@@Z 00609470 f i libcpmtd:wlocale.obj
 0001:00208800       ??$_Getloctxt@V?$istreambuf_iterator@GU?$char_traits@G@std@@@std@@D@std@@YAHAAV?$istreambuf_iterator@GU?$char_traits@G@std@@@0@0IPBDW4_Case_sensitive@0@@Z 00609800 f i libcpmtd:wlocale.obj
 0001:00208bb0       ??$_Getloctxt@V?$istreambuf_iterator@GU?$char_traits@G@std@@@std@@G@std@@YAHAAV?$istreambuf_iterator@GU?$char_traits@G@std@@@0@0IPBGW4_Case_sensitive@0@@Z 00609bb0 f i libcpmtd:wlocale.obj
 0001:00208f70       ??$_Getloctxt@V?$istreambuf_iterator@_WU?$char_traits@_W@std@@@std@@D@std@@YAHAAV?$istreambuf_iterator@_WU?$char_traits@_W@std@@@0@0IPBDW4_Case_sensitive@0@@Z 00609f70 f i libcpmtd:wlocale.obj
 0001:00209320       ??$_Getloctxt@V?$istreambuf_iterator@_WU?$char_traits@_W@std@@@std@@_W@std@@YAHAAV?$istreambuf_iterator@_WU?$char_traits@_W@std@@@0@0IPB_WW4_Case_sensitive@0@@Z 0060a320 f i libcpmtd:wlocale.obj
 0001:002096e0       ??$_Getvals@G@?$time_get@GV?$istreambuf_iterator@GU?$char_traits@G@std@@@std@@@std@@IAEXGABV_Locinfo@1@@Z 0060a6e0 f i libcpmtd:wlocale.obj
 0001:002097b0       ??$_Getvals@_W@?$time_get@_WV?$istreambuf_iterator@_WU?$char_traits@_W@std@@@std@@@std@@IAEX_WABV_Locinfo@1@@Z 0060a7b0 f i libcpmtd:wlocale.obj
 0001:00209860       ??$_Hash_array_representation@G@std@@YAIQBGI@Z 0060a860 f i libcpmtd:wlocale.obj
 0001:00209890       ??$_Hash_array_representation@_W@std@@YAIQB_WI@Z 0060a890 f i libcpmtd:wlocale.obj
 0001:002098c0       ??$_Idl_distance@PA_WPA_W@std@@YA?A_PABQA_W0@Z 0060a8c0 f i libcpmtd:wlocale.obj
 0001:002098e0       ??$_LStrcoll@G@std@@YAHPBG000PBU_Collvec@@@Z 0060a8e0 f i libcpmtd:wlocale.obj
 0001:002099a0       ??$_LStrcoll@_W@std@@YAHPB_W000PBU_Collvec@@@Z 0060a9a0 f i libcpmtd:wlocale.obj
 0001:002099d0       ??$_LStrxfrm@G@std@@YAIPAG0PBG1PBU_Collvec@@@Z 0060a9d0 f i libcpmtd:wlocale.obj
 0001:00209a20       ??$_LStrxfrm@_W@std@@YAIPA_W0PB_W1PBU_Collvec@@@Z 0060aa20 f i libcpmtd:wlocale.obj
 0001:00209a50       ??$_Maklocchr@G@std@@YAGDPAGABU_Cvtvec@@@Z 0060aa50 f i libcpmtd:wlocale.obj
 0001:00209aa0       ??$_Maklocchr@_W@std@@YA_WDPA_WABU_Cvtvec@@@Z 0060aaa0 f i libcpmtd:wlocale.obj
 0001:00209af0       ??$_Maklocstr@G@std@@YAPAGPBDPAGABU_Cvtvec@@@Z 0060aaf0 f i libcpmtd:wlocale.obj
 0001:00209c60       ??$_Maklocstr@_W@std@@YAPA_WPBDPA_WABU_Cvtvec@@@Z 0060ac60 f i libcpmtd:wlocale.obj
 0001:00209dd0       ??$_Parse_fp_with_locale@$0A@@?$num_get@GV?$istreambuf_iterator@GU?$char_traits@G@std@@@std@@@std@@CA?AU_Num_get_parse_result@1@QADHAAV?$istreambuf_iterator@GU?$char_traits@G@std@@@1@1ABVlocale@1@@Z 0060add0 f i libcpmtd:wlocale.obj
 0001:0020b380       ??$_Parse_fp_with_locale@$0A@@?$num_get@_WV?$istreambuf_iterator@_WU?$char_traits@_W@std@@@std@@@std@@CA?AU_Num_get_parse_result@1@QADHAAV?$istreambuf_iterator@_WU?$char_traits@_W@std@@@1@1ABVlocale@1@@Z 0060c380 f i libcpmtd:wlocale.obj
 0001:0020c930       ??$_Parse_int_with_locale@$0A@@?$num_get@GV?$istreambuf_iterator@GU?$char_traits@G@std@@@std@@@std@@CA?AU_Num_get_parse_result@1@QADAAV?$istreambuf_iterator@GU?$char_traits@G@std@@@1@1HABVlocale@1@@Z 0060d930 f i libcpmtd:wlocale.obj
 0001:0020d2b0       ??$_Parse_int_with_locale@$0A@@?$num_get@_WV?$istreambuf_iterator@_WU?$char_traits@_W@std@@@std@@@std@@CA?AU_Num_get_parse_result@1@QADAAV?$istreambuf_iterator@_WU?$char_traits@_W@std@@@1@1HABVlocale@1@@Z 0060e2b0 f i libcpmtd:wlocale.obj
 0001:0020dc30       ??$_Pocma@V?$allocator@G@std@@@std@@YAXAAV?$allocator@G@0@0@Z 0060ec30 f i libcpmtd:wlocale.obj
 0001:0020dc40       ??$_Pocma@V?$allocator@_W@std@@@std@@YAXAAV?$allocator@_W@0@0@Z 0060ec40 f i libcpmtd:wlocale.obj
 0001:0020dc50       ??$_Reallocate_grow_by@V<lambda_1>@?1??append@?$basic_string@GU?$char_traits@G@std@@V?$allocator@G@2@@std@@QAEAAV34@IG@Z@IG@?$basic_string@GU?$char_traits@G@std@@V?$allocator@G@2@@std@@AAEAAV01@IV<lambda_1>@?1??append@01@QAEAAV01@IG@Z@IG@Z 0060ec50 f i libcpmtd:wlocale.obj
 0001:0020dde0       ??$_Reallocate_grow_by@V<lambda_1>@?1??append@?$basic_string@GU?$char_traits@G@std@@V?$allocator@G@2@@std@@QAEAAV34@QBGI@Z@PBGI@?$basic_string@GU?$char_traits@G@std@@V?$allocator@G@2@@std@@AAEAAV01@IV<lambda_1>@?1??append@01@QAEAAV01@QBGI@Z@PBGI@Z 0060ede0 f i libcpmtd:wlocale.obj
 0001:0020df70       ??$_Reallocate_grow_by@V<lambda_1>@?1??append@?$basic_string@_WU?$char_traits@_W@std@@V?$allocator@_W@2@@std@@QAEAAV34@I_W@Z@I_W@?$basic_string@_WU?$char_traits@_W@std@@V?$allocator@_W@2@@std@@AAEAAV01@IV<lambda_1>@?1??append@01@QAEAAV01@I_W@Z@I_W@Z 0060ef70 f i libcpmtd:wlocale.obj
 0001:0020e100       ??$_Reallocate_grow_by@V<lambda_1>@?1??append@?$basic_string@_WU?$char_traits@_W@std@@V?$allocator@_W@2@@std@@QAEAAV34@QB_WI@Z@PB_WI@?$basic_string@_WU?$char_traits@_W@std@@V?$allocator@_W@2@@std@@AAEAAV01@IV<lambda_1>@?1??append@01@QAEAAV01@QB_WI@Z@PB_WI@Z 0060f100 f i libcpmtd:wlocale.obj
 0001:0020e290       ??$_Reallocate_grow_by@V<lambda_1>@?1??insert@?$basic_string@GU?$char_traits@G@std@@V?$allocator@G@2@@std@@QAEAAV34@IIG@Z@IIG@?$basic_string@GU?$char_traits@G@std@@V?$allocator@G@2@@std@@AAEAAV01@IV<lambda_1>@?1??insert@01@QAEAAV01@IIG@Z@IIG@Z 0060f290 f i libcpmtd:wlocale.obj
 0001:0020e420       ??$_Reallocate_grow_by@V<lambda_1>@?1??insert@?$basic_string@_WU?$char_traits@_W@std@@V?$allocator@_W@2@@std@@QAEAAV34@II_W@Z@II_W@?$basic_string@_WU?$char_traits@_W@std@@V?$allocator@_W@2@@std@@AAEAAV01@IV<lambda_1>@?1??insert@01@QAEAAV01@II_W@Z@II_W@Z 0060f420 f i libcpmtd:wlocale.obj
 0001:0020e5b0       ??$_Reallocate_grow_by@V<lambda_1>@?1??push_back@?$basic_string@GU?$char_traits@G@std@@V?$allocator@G@2@@std@@QAEXG@Z@G@?$basic_string@GU?$char_traits@G@std@@V?$allocator@G@2@@std@@AAEAAV01@IV<lambda_1>@?1??push_back@01@QAEXG@Z@G@Z 0060f5b0 f i libcpmtd:wlocale.obj
 0001:0020e730       ??$_Reallocate_grow_by@V<lambda_1>@?1??push_back@?$basic_string@_WU?$char_traits@_W@std@@V?$allocator@_W@2@@std@@QAEX_W@Z@_W@?$basic_string@_WU?$char_traits@_W@std@@V?$allocator@_W@2@@std@@AAEAAV01@IV<lambda_1>@?1??push_back@01@QAEX_W@Z@_W@Z 0060f730 f i libcpmtd:wlocale.obj
 0001:0020e8b0       ??$_Refancy@PAG$0A@@std@@YAPAGPAG@Z 0060f8b0 f i libcpmtd:wlocale.obj
 0001:0020e8c0       ??$_Refancy@PA_W$0A@@std@@YAPA_WPA_W@Z 0060f8c0 f i libcpmtd:wlocale.obj
 0001:0020e8d0       ??$_Seek_wrapped@V?$ostreambuf_iterator@GU?$char_traits@G@std@@@std@@V12@@std@@YAXAAV?$ostreambuf_iterator@GU?$char_traits@G@std@@@0@$$QAV10@@Z 0060f8d0 f i libcpmtd:wlocale.obj
 0001:0020e8f0       ??$_Seek_wrapped@V?$ostreambuf_iterator@_WU?$char_traits@_W@std@@@std@@V12@@std@@YAXAAV?$ostreambuf_iterator@_WU?$char_traits@_W@std@@@0@$$QAV10@@Z 0060f8f0 f i libcpmtd:wlocale.obj
 0001:0020e910       ??$_To_address@PBG@std@@YA?A_PABQBG@Z 0060f910 f i libcpmtd:wlocale.obj
 0001:0020e930       ??$_To_address@PB_W@std@@YA?A_PABQB_W@Z 0060f930 f i libcpmtd:wlocale.obj
 0001:0020e950       ??$_Unfancy@$$CBG@std@@YAPBGPBG@Z 0060f950 f i libcpmtd:wlocale.obj
 0001:0020e960       ??$_Unfancy@$$CB_W@std@@YAPB_WPB_W@Z 0060f960 f i libcpmtd:wlocale.obj
 0001:0020e970       ??$_Unfancy@G@std@@YAPAGPAG@Z 0060f970 f i libcpmtd:wlocale.obj
 0001:0020e980       ??$_Unfancy@_W@std@@YAPA_WPA_W@Z 0060f980 f i libcpmtd:wlocale.obj
 0001:0020e990       ??$addressof@$$CBV?$moneypunct@G$00@std@@@std@@YAPBV?$moneypunct@G$00@0@ABV10@@Z 0060f990 f i libcpmtd:wlocale.obj
 0001:0020e9a0       ??$addressof@$$CBV?$moneypunct@G$0A@@std@@@std@@YAPBV?$moneypunct@G$0A@@0@ABV10@@Z 0060f9a0 f i libcpmtd:wlocale.obj
 0001:0020e9b0       ??$addressof@$$CBV?$moneypunct@_W$00@std@@@std@@YAPBV?$moneypunct@_W$00@0@ABV10@@Z 0060f9b0 f i libcpmtd:wlocale.obj
 0001:0020e9c0       ??$addressof@$$CBV?$moneypunct@_W$0A@@std@@@std@@YAPBV?$moneypunct@_W$0A@@0@ABV10@@Z 0060f9c0 f i libcpmtd:wlocale.obj
 0001:0020e9d0       ??$addressof@PAG@std@@YAPAPAGAAPAG@Z 0060f9d0 f i libcpmtd:wlocale.obj
 0001:0020e9e0       ??$addressof@PA_W@std@@YAPAPA_WAAPA_W@Z 0060f9e0 f i libcpmtd:wlocale.obj
 0001:0020e9f0       ??$addressof@V?$_String_val@U?$_Simple_types@G@std@@@std@@@std@@YAPAV?$_String_val@U?$_Simple_types@G@std@@@0@AAV10@@Z 0060f9f0 f i libcpmtd:wlocale.obj
 0001:0020ea00       ??$addressof@V?$_String_val@U?$_Simple_types@_W@std@@@std@@@std@@YAPAV?$_String_val@U?$_Simple_types@_W@std@@@0@AAV10@@Z 0060fa00 f i libcpmtd:wlocale.obj
 0001:0020ea10       ??$addressof@V?$basic_string@GU?$char_traits@G@std@@V?$allocator@G@2@@std@@@std@@YAPAV?$basic_string@GU?$char_traits@G@std@@V?$allocator@G@2@@0@AAV10@@Z 0060fa10 f i libcpmtd:wlocale.obj
 0001:0020ea20       ??$addressof@V?$basic_string@_WU?$char_traits@_W@std@@V?$allocator@_W@2@@std@@@std@@YAPAV?$basic_string@_WU?$char_traits@_W@std@@V?$allocator@_W@2@@0@AAV10@@Z 0060fa20 f i libcpmtd:wlocale.obj
 0001:0020ea30       ??$begin@$$CBD$0M@@std@@YAPBDAAY0M@$$CBD@Z 0060fa30 f i libcpmtd:wlocale.obj
 0001:0020ea40       ??$construct_at@G$$V@std@@YAPAGQAG@Z 0060fa40 f i libcpmtd:wlocale.obj
 0001:0020ea90       ??$construct_at@PAGAAPAG@std@@YAPAPAGQAPAGAAPAG@Z 0060fa90 f i libcpmtd:wlocale.obj
 0001:0020eac0       ??$construct_at@PAGABQAG@std@@YAPAPAGQAPAGABQAG@Z 0060fac0 f i libcpmtd:wlocale.obj
 0001:0020eaf0       ??$construct_at@PA_WAAPA_W@std@@YAPAPA_WQAPA_WAAPA_W@Z 0060faf0 f i libcpmtd:wlocale.obj
 0001:0020eb20       ??$construct_at@PA_WABQA_W@std@@YAPAPA_WQAPA_WABQA_W@Z 0060fb20 f i libcpmtd:wlocale.obj
 0001:0020eb50       ??$construct_at@_W$$V@std@@YAPA_WQA_W@Z 0060fb50 f i libcpmtd:wlocale.obj
 0001:0020eba0       ??$copy@PA_WV?$ostreambuf_iterator@GU?$char_traits@G@std@@@std@@@std@@YA?AV?$ostreambuf_iterator@GU?$char_traits@G@std@@@0@PA_W0V10@@Z 0060fba0 f i libcpmtd:wlocale.obj
 0001:0020ec60       ??$copy@PA_WV?$ostreambuf_iterator@_WU?$char_traits@_W@std@@@std@@@std@@YA?AV?$ostreambuf_iterator@_WU?$char_traits@_W@std@@@0@PA_W0V10@@Z 0060fc60 f i libcpmtd:wlocale.obj
 0001:0020ed20       ??$end@$$CBD$0M@@std@@YAPBDAAY0M@$$CBD@Z 0060fd20 f i libcpmtd:wlocale.obj
 0001:0020ed30       ??$to_address@$$CBG@std@@YAPBGQBG@Z 0060fd30 f i libcpmtd:wlocale.obj
 0001:0020ed40       ??$to_address@$$CB_W@std@@YAPB_WQB_W@Z 0060fd40 f i libcpmtd:wlocale.obj
 0001:0020ed50       ??$use_facet@V?$codecvt@GDU_Mbstatet@@@std@@@std@@YAABV?$codecvt@GDU_Mbstatet@@@0@ABVlocale@0@@Z 0060fd50 f i libcpmtd:wlocale.obj
 0001:0020eeb0       ??$use_facet@V?$codecvt@_WDU_Mbstatet@@@std@@@std@@YAABV?$codecvt@_WDU_Mbstatet@@@0@ABVlocale@0@@Z 0060feb0 f i libcpmtd:wlocale.obj
 0001:0020f010       ??$use_facet@V?$collate@G@std@@@std@@YAABV?$collate@G@0@ABVlocale@0@@Z 00610010 f i libcpmtd:wlocale.obj
 0001:0020f170       ??$use_facet@V?$collate@_W@std@@@std@@YAABV?$collate@_W@0@ABVlocale@0@@Z 00610170 f i libcpmtd:wlocale.obj
 0001:0020f2d0       ??$use_facet@V?$ctype@G@std@@@std@@YAABV?$ctype@G@0@ABVlocale@0@@Z 006102d0 f i libcpmtd:wlocale.obj
 0001:0020f430       ??$use_facet@V?$ctype@_W@std@@@std@@YAABV?$ctype@_W@0@ABVlocale@0@@Z 00610430 f i libcpmtd:wlocale.obj
 0001:0020f590       ??$use_facet@V?$messages@G@std@@@std@@YAABV?$messages@G@0@ABVlocale@0@@Z 00610590 f i libcpmtd:wlocale.obj
 0001:0020f6f0       ??$use_facet@V?$messages@_W@std@@@std@@YAABV?$messages@_W@0@ABVlocale@0@@Z 006106f0 f i libcpmtd:wlocale.obj
 0001:0020f850       ??$use_facet@V?$money_get@GV?$istreambuf_iterator@GU?$char_traits@G@std@@@std@@@std@@@std@@YAABV?$money_get@GV?$istreambuf_iterator@GU?$char_traits@G@std@@@std@@@0@ABVlocale@0@@Z 00610850 f i libcpmtd:wlocale.obj
 0001:0020f9b0       ??$use_facet@V?$money_get@_WV?$istreambuf_iterator@_WU?$char_traits@_W@std@@@std@@@std@@@std@@YAABV?$money_get@_WV?$istreambuf_iterator@_WU?$char_traits@_W@std@@@std@@@0@ABVlocale@0@@Z 006109b0 f i libcpmtd:wlocale.obj
 0001:0020fb10       ??$use_facet@V?$money_put@GV?$ostreambuf_iterator@GU?$char_traits@G@std@@@std@@@std@@@std@@YAABV?$money_put@GV?$ostreambuf_iterator@GU?$char_traits@G@std@@@std@@@0@ABVlocale@0@@Z 00610b10 f i libcpmtd:wlocale.obj
 0001:0020fc70       ??$use_facet@V?$money_put@_WV?$ostreambuf_iterator@_WU?$char_traits@_W@std@@@std@@@std@@@std@@YAABV?$money_put@_WV?$ostreambuf_iterator@_WU?$char_traits@_W@std@@@std@@@0@ABVlocale@0@@Z 00610c70 f i libcpmtd:wlocale.obj
 0001:0020fdd0       ??$use_facet@V?$moneypunct@G$00@std@@@std@@YAABV?$moneypunct@G$00@0@ABVlocale@0@@Z 00610dd0 f i libcpmtd:wlocale.obj
 0001:0020ff30       ??$use_facet@V?$moneypunct@G$0A@@std@@@std@@YAABV?$moneypunct@G$0A@@0@ABVlocale@0@@Z 00610f30 f i libcpmtd:wlocale.obj
 0001:00210090       ??$use_facet@V?$moneypunct@_W$00@std@@@std@@YAABV?$moneypunct@_W$00@0@ABVlocale@0@@Z 00611090 f i libcpmtd:wlocale.obj
 0001:002101f0       ??$use_facet@V?$moneypunct@_W$0A@@std@@@std@@YAABV?$moneypunct@_W$0A@@0@ABVlocale@0@@Z 006111f0 f i libcpmtd:wlocale.obj
 0001:00210350       ??$use_facet@V?$num_get@GV?$istreambuf_iterator@GU?$char_traits@G@std@@@std@@@std@@@std@@YAABV?$num_get@GV?$istreambuf_iterator@GU?$char_traits@G@std@@@std@@@0@ABVlocale@0@@Z 00611350 f i libcpmtd:wlocale.obj
 0001:002104b0       ??$use_facet@V?$num_get@_WV?$istreambuf_iterator@_WU?$char_traits@_W@std@@@std@@@std@@@std@@YAABV?$num_get@_WV?$istreambuf_iterator@_WU?$char_traits@_W@std@@@std@@@0@ABVlocale@0@@Z 006114b0 f i libcpmtd:wlocale.obj
 0001:00210610       ??$use_facet@V?$num_put@GV?$ostreambuf_iterator@GU?$char_traits@G@std@@@std@@@std@@@std@@YAABV?$num_put@GV?$ostreambuf_iterator@GU?$char_traits@G@std@@@std@@@0@ABVlocale@0@@Z 00611610 f i libcpmtd:wlocale.obj
 0001:00210770       ??$use_facet@V?$num_put@_WV?$ostreambuf_iterator@_WU?$char_traits@_W@std@@@std@@@std@@@std@@YAABV?$num_put@_WV?$ostreambuf_iterator@_WU?$char_traits@_W@std@@@std@@@0@ABVlocale@0@@Z 00611770 f i libcpmtd:wlocale.obj
 0001:002108d0       ??$use_facet@V?$numpunct@G@std@@@std@@YAABV?$numpunct@G@0@ABVlocale@0@@Z 006118d0 f i libcpmtd:wlocale.obj
 0001:00210a30       ??$use_facet@V?$numpunct@_W@std@@@std@@YAABV?$numpunct@_W@0@ABVlocale@0@@Z 00611a30 f i libcpmtd:wlocale.obj
 0001:00210b90       ??$use_facet@V?$time_get@GV?$istreambuf_iterator@GU?$char_traits@G@std@@@std@@@std@@@std@@YAABV?$time_get@GV?$istreambuf_iterator@GU?$char_traits@G@std@@@std@@@0@ABVlocale@0@@Z 00611b90 f i libcpmtd:wlocale.obj
 0001:00210cf0       ??$use_facet@V?$time_get@_WV?$istreambuf_iterator@_WU?$char_traits@_W@std@@@std@@@std@@@std@@YAABV?$time_get@_WV?$istreambuf_iterator@_WU?$char_traits@_W@std@@@std@@@0@ABVlocale@0@@Z 00611cf0 f i libcpmtd:wlocale.obj
 0001:00210e50       ??$use_facet@V?$time_put@GV?$ostreambuf_iterator@GU?$char_traits@G@std@@@std@@@std@@@std@@YAABV?$time_put@GV?$ostreambuf_iterator@GU?$char_traits@G@std@@@std@@@0@ABVlocale@0@@Z 00611e50 f i libcpmtd:wlocale.obj
 0001:00210fb0       ??$use_facet@V?$time_put@_WV?$ostreambuf_iterator@_WU?$char_traits@_W@std@@@std@@@std@@@std@@YAABV?$time_put@_WV?$ostreambuf_iterator@_WU?$char_traits@_W@std@@@std@@@0@ABVlocale@0@@Z 00611fb0 f i libcpmtd:wlocale.obj
 0001:00211110       ??0?$_Mpunct@G@std@@QAE@ABV_Locinfo@1@I_N1@Z 00612110 f i libcpmtd:wlocale.obj
 0001:002111b0       ??0?$_Mpunct@_W@std@@QAE@ABV_Locinfo@1@I_N1@Z 006121b0 f i libcpmtd:wlocale.obj
 0001:00211250       ??0?$_String_const_iterator@V?$_String_val@U?$_Simple_types@G@std@@@std@@@std@@QAE@$$QAV01@@Z 00612250 f i libcpmtd:wlocale.obj
 0001:00211290       ??0?$_String_const_iterator@V?$_String_val@U?$_Simple_types@G@std@@@std@@@std@@QAE@ABV01@@Z 00612290 f i libcpmtd:wlocale.obj
 0001:002112d0       ??0?$_String_const_iterator@V?$_String_val@U?$_Simple_types@G@std@@@std@@@std@@QAE@PBGPBU_Container_base12@1@@Z 006122d0 f i libcpmtd:wlocale.obj
 0001:00211310       ??0?$_String_const_iterator@V?$_String_val@U?$_Simple_types@G@std@@@std@@@std@@QAE@XZ 00612310 f i libcpmtd:wlocale.obj
 0001:00211340       ??0?$_String_const_iterator@V?$_String_val@U?$_Simple_types@_W@std@@@std@@@std@@QAE@$$QAV01@@Z 00612340 f i libcpmtd:wlocale.obj
 0001:00211380       ??0?$_String_const_iterator@V?$_String_val@U?$_Simple_types@_W@std@@@std@@@std@@QAE@ABV01@@Z 00612380 f i libcpmtd:wlocale.obj
 0001:002113c0       ??0?$_String_const_iterator@V?$_String_val@U?$_Simple_types@_W@std@@@std@@@std@@QAE@PB_WPBU_Container_base12@1@@Z 006123c0 f i libcpmtd:wlocale.obj
 0001:00211400       ??0?$_String_const_iterator@V?$_String_val@U?$_Simple_types@_W@std@@@std@@@std@@QAE@XZ 00612400 f i libcpmtd:wlocale.obj
 0001:00211430       ??0?$_String_iterator@V?$_String_val@U?$_Simple_types@G@std@@@std@@@std@@QAE@ABV01@@Z 00612430 f i libcpmtd:wlocale.obj
 0001:00211460       ??0?$_String_iterator@V?$_String_val@U?$_Simple_types@G@std@@@std@@@std@@QAE@PBGPBU_Container_base12@1@@Z 00612460 f i libcpmtd:wlocale.obj
 0001:00211490       ??0?$_String_iterator@V?$_String_val@U?$_Simple_types@_W@std@@@std@@@std@@QAE@ABV01@@Z 00612490 f i libcpmtd:wlocale.obj
 0001:002114c0       ??0?$_String_iterator@V?$_String_val@U?$_Simple_types@_W@std@@@std@@@std@@QAE@PB_WPBU_Container_base12@1@@Z 006124c0 f i libcpmtd:wlocale.obj
 0001:002114f0       ??0?$_String_val@U?$_Simple_types@G@std@@@std@@QAE@XZ 006124f0 f i libcpmtd:wlocale.obj
 0001:00211540       ??0?$_String_val@U?$_Simple_types@_W@std@@@std@@QAE@XZ 00612540 f i libcpmtd:wlocale.obj
 0001:00211590       ??0?$allocator@G@std@@QAE@XZ 00612590 f i libcpmtd:wlocale.obj
 0001:002115b0       ??0?$allocator@_W@std@@QAE@XZ 006125b0 f i libcpmtd:wlocale.obj
 0001:002115d0       ??0?$basic_string@GU?$char_traits@G@std@@V?$allocator@G@2@@std@@QAE@ABV01@@Z 006125d0 f i libcpmtd:wlocale.obj
 0001:002116a0       ??0?$basic_string@GU?$char_traits@G@std@@V?$allocator@G@2@@std@@QAE@IG@Z 006126a0 f i libcpmtd:wlocale.obj
 0001:00211730       ??0?$basic_string@GU?$char_traits@G@std@@V?$allocator@G@2@@std@@QAE@QBG@Z 00612730 f i libcpmtd:wlocale.obj
 0001:002117d0       ??0?$basic_string@GU?$char_traits@G@std@@V?$allocator@G@2@@std@@QAE@QBGI@Z 006127d0 f i libcpmtd:wlocale.obj
 0001:00211860       ??0?$basic_string@GU?$char_traits@G@std@@V?$allocator@G@2@@std@@QAE@XZ 00612860 f i libcpmtd:wlocale.obj
 0001:002118e0       ??0?$basic_string@_WU?$char_traits@_W@std@@V?$allocator@_W@2@@std@@QAE@ABV01@@Z 006128e0 f i libcpmtd:wlocale.obj
 0001:002119b0       ??0?$basic_string@_WU?$char_traits@_W@std@@V?$allocator@_W@2@@std@@QAE@I_W@Z 006129b0 f i libcpmtd:wlocale.obj
 0001:00211a40       ??0?$basic_string@_WU?$char_traits@_W@std@@V?$allocator@_W@2@@std@@QAE@QB_W@Z 00612a40 f i libcpmtd:wlocale.obj
 0001:00211ae0       ??0?$basic_string@_WU?$char_traits@_W@std@@V?$allocator@_W@2@@std@@QAE@QB_WI@Z 00612ae0 f i libcpmtd:wlocale.obj
 0001:00211b70       ??0?$basic_string@_WU?$char_traits@_W@std@@V?$allocator@_W@2@@std@@QAE@XZ 00612b70 f i libcpmtd:wlocale.obj
 0001:00211bf0       ??0?$codecvt@GDU_Mbstatet@@@std@@QAE@ABV_Locinfo@1@I@Z 00612bf0 f i libcpmtd:wlocale.obj
 0001:00211c80       ??0?$codecvt@_WDU_Mbstatet@@@std@@QAE@ABV_Locinfo@1@I@Z 00612c80 f i libcpmtd:wlocale.obj
 0001:00211d10       ??0?$collate@G@std@@QAE@ABV_Locinfo@1@I@Z 00612d10 f i libcpmtd:wlocale.obj
 0001:00211da0       ??0?$collate@_W@std@@QAE@ABV_Locinfo@1@I@Z 00612da0 f i libcpmtd:wlocale.obj
 0001:00211e30       ??0?$ctype@G@std@@QAE@ABV_Locinfo@1@I@Z 00612e30 f i libcpmtd:wlocale.obj
 0001:00211ec0       ??0?$ctype@_W@std@@QAE@ABV_Locinfo@1@I@Z 00612ec0 f i libcpmtd:wlocale.obj
 0001:00211f50       ??0?$messages@G@std@@QAE@ABV_Locinfo@1@I@Z 00612f50 f i libcpmtd:wlocale.obj
 0001:00211fe0       ??0?$messages@_W@std@@QAE@ABV_Locinfo@1@I@Z 00612fe0 f i libcpmtd:wlocale.obj
 0001:00212070       ??0?$money_get@GV?$istreambuf_iterator@GU?$char_traits@G@std@@@std@@@std@@QAE@ABV_Locinfo@1@I@Z 00613070 f i libcpmtd:wlocale.obj
 0001:00212100       ??0?$money_get@_WV?$istreambuf_iterator@_WU?$char_traits@_W@std@@@std@@@std@@QAE@ABV_Locinfo@1@I@Z 00613100 f i libcpmtd:wlocale.obj
 0001:00212190       ??0?$money_put@GV?$ostreambuf_iterator@GU?$char_traits@G@std@@@std@@@std@@QAE@ABV_Locinfo@1@I@Z 00613190 f i libcpmtd:wlocale.obj
 0001:00212220       ??0?$money_put@_WV?$ostreambuf_iterator@_WU?$char_traits@_W@std@@@std@@@std@@QAE@ABV_Locinfo@1@I@Z 00613220 f i libcpmtd:wlocale.obj
 0001:002122b0       ??0?$moneypunct@G$00@std@@QAE@ABV_Locinfo@1@I_N@Z 006132b0 f i libcpmtd:wlocale.obj
 0001:002122f0       ??0?$moneypunct@G$0A@@std@@QAE@ABV_Locinfo@1@I_N@Z 006132f0 f i libcpmtd:wlocale.obj
 0001:00212330       ??0?$moneypunct@_W$00@std@@QAE@ABV_Locinfo@1@I_N@Z 00613330 f i libcpmtd:wlocale.obj
 0001:00212370       ??0?$moneypunct@_W$0A@@std@@QAE@ABV_Locinfo@1@I_N@Z 00613370 f i libcpmtd:wlocale.obj
 0001:002123b0       ??0?$num_get@GV?$istreambuf_iterator@GU?$char_traits@G@std@@@std@@@std@@QAE@ABV_Locinfo@1@I@Z 006133b0 f i libcpmtd:wlocale.obj
 0001:00212440       ??0?$num_get@_WV?$istreambuf_iterator@_WU?$char_traits@_W@std@@@std@@@std@@QAE@ABV_Locinfo@1@I@Z 00613440 f i libcpmtd:wlocale.obj
 0001:002124d0       ??0?$num_put@GV?$ostreambuf_iterator@GU?$char_traits@G@std@@@std@@@std@@QAE@ABV_Locinfo@1@I@Z 006134d0 f i libcpmtd:wlocale.obj
 0001:00212560       ??0?$num_put@_WV?$ostreambuf_iterator@_WU?$char_traits@_W@std@@@std@@@std@@QAE@ABV_Locinfo@1@I@Z 00613560 f i libcpmtd:wlocale.obj
 0001:002125f0       ??0?$numpunct@G@std@@QAE@ABV_Locinfo@1@I_N@Z 006135f0 f i libcpmtd:wlocale.obj
 0001:00212680       ??0?$numpunct@_W@std@@QAE@ABV_Locinfo@1@I_N@Z 00613680 f i libcpmtd:wlocale.obj
 0001:00212710       ??0?$time_get@GV?$istreambuf_iterator@GU?$char_traits@G@std@@@std@@@std@@QAE@ABV_Locinfo@1@I@Z 00613710 f i libcpmtd:wlocale.obj
 0001:002127a0       ??0?$time_get@_WV?$istreambuf_iterator@_WU?$char_traits@_W@std@@@std@@@std@@QAE@ABV_Locinfo@1@I@Z 006137a0 f i libcpmtd:wlocale.obj
 0001:00212830       ??0?$time_put@GV?$ostreambuf_iterator@GU?$char_traits@G@std@@@std@@@std@@QAE@ABV_Locinfo@1@I@Z 00613830 f i libcpmtd:wlocale.obj
 0001:002128e0       ??0?$time_put@_WV?$ostreambuf_iterator@_WU?$char_traits@_W@std@@@std@@@std@@QAE@ABV_Locinfo@1@I@Z 006138e0 f i libcpmtd:wlocale.obj
 0001:00212990       ??0_Bxty@?$_String_val@U?$_Simple_types@G@std@@@std@@QAE@XZ 00613990 f i libcpmtd:wlocale.obj
 0001:002129c0       ??0_Bxty@?$_String_val@U?$_Simple_types@_W@std@@@std@@QAE@XZ 006139c0 f i libcpmtd:wlocale.obj
 0001:002129f0       ??0_Timevec@std@@QAE@PAX@Z 006139f0 f i libcpmtd:wlocale.obj
 0001:00212a10       ??0messages_base@std@@QAE@I@Z 00613a10 f i libcpmtd:wlocale.obj
 0001:00212a40       ??0money_base@std@@QAE@I@Z 00613a40 f i libcpmtd:wlocale.obj
 0001:00212a70       ??0time_base@std@@QAE@I@Z  00613a70 f i libcpmtd:wlocale.obj
 0001:00212aa0       ??1?$_Compressed_pair@V?$allocator@G@std@@V?$_String_val@U?$_Simple_types@G@std@@@2@$00@std@@QAE@XZ 00613aa0 f i libcpmtd:wlocale.obj
 0001:00212ac0       ??1?$_Compressed_pair@V?$allocator@_W@std@@V?$_String_val@U?$_Simple_types@_W@std@@@2@$00@std@@QAE@XZ 00613ac0 f i libcpmtd:wlocale.obj
 0001:00212ae0       ??1?$_Mpunct@G@std@@MAE@XZ 00613ae0 f i libcpmtd:wlocale.obj
 0001:00212b10       ??1?$_Mpunct@_W@std@@MAE@XZ 00613b10 f i libcpmtd:wlocale.obj
 0001:00212b40       ??1?$_String_const_iterator@V?$_String_val@U?$_Simple_types@G@std@@@std@@@std@@QAE@XZ 00613b40 f i libcpmtd:wlocale.obj
 0001:00212b60       ??1?$_String_const_iterator@V?$_String_val@U?$_Simple_types@_W@std@@@std@@@std@@QAE@XZ 00613b60 f i libcpmtd:wlocale.obj
 0001:00212b80       ??1?$_String_iterator@V?$_String_val@U?$_Simple_types@G@std@@@std@@@std@@QAE@XZ 00613b80 f i libcpmtd:wlocale.obj
 0001:00212ba0       ??1?$_String_iterator@V?$_String_val@U?$_Simple_types@_W@std@@@std@@@std@@QAE@XZ 00613ba0 f i libcpmtd:wlocale.obj
 0001:00212bc0       ??1?$_String_val@U?$_Simple_types@G@std@@@std@@QAE@XZ 00613bc0 f i libcpmtd:wlocale.obj
 0001:00212be0       ??1?$_String_val@U?$_Simple_types@_W@std@@@std@@QAE@XZ 00613be0 f i libcpmtd:wlocale.obj
 0001:00212c00       ??1?$_Tidy_guard@V?$_Mpunct@G@std@@@std@@QAE@XZ 00613c00 f i libcpmtd:wlocale.obj
 0001:00212c30       ??1?$_Tidy_guard@V?$_Mpunct@_W@std@@@std@@QAE@XZ 00613c30 f i libcpmtd:wlocale.obj
 0001:00212c60       ??1?$_Tidy_guard@V?$numpunct@G@std@@@std@@QAE@XZ 00613c60 f i libcpmtd:wlocale.obj
 0001:00212c90       ??1?$_Tidy_guard@V?$numpunct@_W@std@@@std@@QAE@XZ 00613c90 f i libcpmtd:wlocale.obj
 0001:00212cc0       ??1?$_Tidy_guard@V?$time_get@GV?$istreambuf_iterator@GU?$char_traits@G@std@@@std@@@std@@@std@@QAE@XZ 00613cc0 f i libcpmtd:wlocale.obj
 0001:00212cf0       ??1?$_Tidy_guard@V?$time_get@_WV?$istreambuf_iterator@_WU?$char_traits@_W@std@@@std@@@std@@@std@@QAE@XZ 00613cf0 f i libcpmtd:wlocale.obj
 0001:00212d20       ??1?$basic_string@GU?$char_traits@G@std@@V?$allocator@G@2@@std@@QAE@XZ 00613d20 f i libcpmtd:wlocale.obj
 0001:00212d90       ??1?$basic_string@_WU?$char_traits@_W@std@@V?$allocator@_W@2@@std@@QAE@XZ 00613d90 f i libcpmtd:wlocale.obj
 0001:00212e00       ??1?$codecvt@GDU_Mbstatet@@@std@@MAE@XZ 00613e00 f i libcpmtd:wlocale.obj
 0001:00212e30       ??1?$codecvt@_WDU_Mbstatet@@@std@@MAE@XZ 00613e30 f i libcpmtd:wlocale.obj
 0001:00212e60       ??1?$collate@G@std@@MAE@XZ 00613e60 f i libcpmtd:wlocale.obj
 0001:00212ea0       ??1?$collate@_W@std@@MAE@XZ 00613ea0 f i libcpmtd:wlocale.obj
 0001:00212ee0       ??1?$ctype@G@std@@MAE@XZ   00613ee0 f i libcpmtd:wlocale.obj
 0001:00212f40       ??1?$ctype@_W@std@@MAE@XZ  00613f40 f i libcpmtd:wlocale.obj
 0001:00212fa0       ??1?$messages@G@std@@MAE@XZ 00613fa0 f i libcpmtd:wlocale.obj
 0001:00212fd0       ??1?$messages@_W@std@@MAE@XZ 00613fd0 f i libcpmtd:wlocale.obj
 0001:00213000       ??1?$money_get@GV?$istreambuf_iterator@GU?$char_traits@G@std@@@std@@@std@@MAE@XZ 00614000 f i libcpmtd:wlocale.obj
 0001:00213030       ??1?$money_get@_WV?$istreambuf_iterator@_WU?$char_traits@_W@std@@@std@@@std@@MAE@XZ 00614030 f i libcpmtd:wlocale.obj
 0001:00213060       ??1?$money_put@GV?$ostreambuf_iterator@GU?$char_traits@G@std@@@std@@@std@@MAE@XZ 00614060 f i libcpmtd:wlocale.obj
 0001:00213090       ??1?$money_put@_WV?$ostreambuf_iterator@_WU?$char_traits@_W@std@@@std@@@std@@MAE@XZ 00614090 f i libcpmtd:wlocale.obj
 0001:002130c0       ??1?$moneypunct@G$00@std@@MAE@XZ 006140c0 f i libcpmtd:wlocale.obj
 0001:002130f0       ??1?$moneypunct@G$0A@@std@@MAE@XZ 006140f0 f i libcpmtd:wlocale.obj
 0001:00213120       ??1?$moneypunct@_W$00@std@@MAE@XZ 00614120 f i libcpmtd:wlocale.obj
 0001:00213150       ??1?$moneypunct@_W$0A@@std@@MAE@XZ 00614150 f i libcpmtd:wlocale.obj
 0001:00213180       ??1?$num_get@GV?$istreambuf_iterator@GU?$char_traits@G@std@@@std@@@std@@MAE@XZ 00614180 f i libcpmtd:wlocale.obj
 0001:002131b0       ??1?$num_get@_WV?$istreambuf_iterator@_WU?$char_traits@_W@std@@@std@@@std@@MAE@XZ 006141b0 f i libcpmtd:wlocale.obj
 0001:002131e0       ??1?$num_put@GV?$ostreambuf_iterator@GU?$char_traits@G@std@@@std@@@std@@MAE@XZ 006141e0 f i libcpmtd:wlocale.obj
 0001:00213210       ??1?$num_put@_WV?$ostreambuf_iterator@_WU?$char_traits@_W@std@@@std@@@std@@MAE@XZ 00614210 f i libcpmtd:wlocale.obj
 0001:00213240       ??1?$numpunct@G@std@@MAE@XZ 00614240 f i libcpmtd:wlocale.obj
 0001:00213270       ??1?$numpunct@_W@std@@MAE@XZ 00614270 f i libcpmtd:wlocale.obj
 0001:002132a0       ??1?$time_get@GV?$istreambuf_iterator@GU?$char_traits@G@std@@@std@@@std@@MAE@XZ 006142a0 f i libcpmtd:wlocale.obj
 0001:002132d0       ??1?$time_get@_WV?$istreambuf_iterator@_WU?$char_traits@_W@std@@@std@@@std@@MAE@XZ 006142d0 f i libcpmtd:wlocale.obj
 0001:00213300       ??1?$time_put@GV?$ostreambuf_iterator@GU?$char_traits@G@std@@@std@@@std@@MAE@XZ 00614300 f i libcpmtd:wlocale.obj
 0001:00213340       ??1?$time_put@_WV?$ostreambuf_iterator@_WU?$char_traits@_W@std@@@std@@@std@@MAE@XZ 00614340 f i libcpmtd:wlocale.obj
 0001:00213380       ??1_Bxty@?$_String_val@U?$_Simple_types@G@std@@@std@@QAE@XZ 00614380 f i libcpmtd:wlocale.obj
 0001:00213390       ??1_Bxty@?$_String_val@U?$_Simple_types@_W@std@@@std@@QAE@XZ 00614390 f i libcpmtd:wlocale.obj
 0001:002133a0       ??1_Timevec@std@@QAE@XZ    006143a0 f i libcpmtd:wlocale.obj
 0001:002133c0       ??1messages_base@std@@UAE@XZ 006143c0 f i libcpmtd:wlocale.obj
 0001:002133e0       ??1money_base@std@@UAE@XZ  006143e0 f i libcpmtd:wlocale.obj
 0001:00213400       ??1time_base@std@@UAE@XZ   00614400 f i libcpmtd:wlocale.obj
 0001:00213430       ??4?$_String_const_iterator@V?$_String_val@U?$_Simple_types@G@std@@@std@@@std@@QAEAAV01@$$QAV01@@Z 00614430 f i libcpmtd:wlocale.obj
 0001:00213470       ??4?$_String_const_iterator@V?$_String_val@U?$_Simple_types@_W@std@@@std@@@std@@QAEAAV01@$$QAV01@@Z 00614470 f i libcpmtd:wlocale.obj
 0001:002134b0       ??4?$_Yarn@_W@std@@QAEAAV01@PB_W@Z 006144b0 f i libcpmtd:wlocale.obj
 0001:00213570       ??4?$basic_string@GU?$char_traits@G@std@@V?$allocator@G@2@@std@@QAEAAV01@$$QAV01@@Z 00614570 f i libcpmtd:wlocale.obj
 0001:00213600       ??4?$basic_string@_WU?$char_traits@_W@std@@V?$allocator@_W@2@@std@@QAEAAV01@$$QAV01@@Z 00614600 f i libcpmtd:wlocale.obj
 0001:00213690       ??4?$ostreambuf_iterator@GU?$char_traits@G@std@@@std@@QAEAAV01@G@Z 00614690 f i libcpmtd:wlocale.obj
 0001:00213710       ??4?$ostreambuf_iterator@_WU?$char_traits@_W@std@@@std@@QAEAAV01@_W@Z 00614710 f i libcpmtd:wlocale.obj
 0001:00213790       ??4_Timevec@std@@QAEAAV01@ABV01@@Z 00614790 f i libcpmtd:wlocale.obj
 0001:002137e0       ??8?$_String_const_iterator@V?$_String_val@U?$_Simple_types@G@std@@@std@@@std@@QBE_NABV01@@Z 006147e0 f i libcpmtd:wlocale.obj
 0001:00213830       ??8?$_String_const_iterator@V?$_String_val@U?$_Simple_types@_W@std@@@std@@@std@@QBE_NABV01@@Z 00614830 f i libcpmtd:wlocale.obj
 0001:00213880       ??A?$basic_string@GU?$char_traits@G@std@@V?$allocator@G@2@@std@@QAEAAGI@Z 00614880 f i libcpmtd:wlocale.obj
 0001:00213900       ??A?$basic_string@GU?$char_traits@G@std@@V?$allocator@G@2@@std@@QBEABGI@Z 00614900 f i libcpmtd:wlocale.obj
 0001:00213980       ??A?$basic_string@_WU?$char_traits@_W@std@@V?$allocator@_W@2@@std@@QAEAA_WI@Z 00614980 f i libcpmtd:wlocale.obj
 0001:00213a00       ??A?$basic_string@_WU?$char_traits@_W@std@@V?$allocator@_W@2@@std@@QBEAB_WI@Z 00614a00 f i libcpmtd:wlocale.obj
 0001:00213a80       ??D?$_String_const_iterator@V?$_String_val@U?$_Simple_types@G@std@@@std@@@std@@QBEABGXZ 00614a80 f i libcpmtd:wlocale.obj
 0001:00213bc0       ??D?$_String_const_iterator@V?$_String_val@U?$_Simple_types@_W@std@@@std@@@std@@QBEAB_WXZ 00614bc0 f i libcpmtd:wlocale.obj
 0001:00213d00       ??D?$_String_iterator@V?$_String_val@U?$_Simple_types@G@std@@@std@@@std@@QBEAAGXZ 00614d00 f i libcpmtd:wlocale.obj
 0001:00213d20       ??D?$_String_iterator@V?$_String_val@U?$_Simple_types@_W@std@@@std@@@std@@QBEAA_WXZ 00614d20 f i libcpmtd:wlocale.obj
 0001:00213d40       ??D?$istreambuf_iterator@GU?$char_traits@G@std@@@std@@QBEGXZ 00614d40 f i libcpmtd:wlocale.obj
 0001:00213dc0       ??D?$istreambuf_iterator@_WU?$char_traits@_W@std@@@std@@QBE_WXZ 00614dc0 f i libcpmtd:wlocale.obj
 0001:00213e40       ??D?$ostreambuf_iterator@GU?$char_traits@G@std@@@std@@QAEAAV01@XZ 00614e40 f i libcpmtd:wlocale.obj
 0001:00213e60       ??D?$ostreambuf_iterator@_WU?$char_traits@_W@std@@@std@@QAEAAV01@XZ 00614e60 f i libcpmtd:wlocale.obj
 0001:00213e80       ??E?$_String_const_iterator@V?$_String_val@U?$_Simple_types@G@std@@@std@@@std@@QAEAAV01@XZ 00614e80 f i libcpmtd:wlocale.obj
 0001:00213fc0       ??E?$_String_const_iterator@V?$_String_val@U?$_Simple_types@_W@std@@@std@@@std@@QAEAAV01@XZ 00614fc0 f i libcpmtd:wlocale.obj
 0001:00214100       ??E?$_String_iterator@V?$_String_val@U?$_Simple_types@G@std@@@std@@@std@@QAEAAV01@XZ 00615100 f i libcpmtd:wlocale.obj
 0001:00214120       ??E?$_String_iterator@V?$_String_val@U?$_Simple_types@_W@std@@@std@@@std@@QAEAAV01@XZ 00615120 f i libcpmtd:wlocale.obj
 0001:00214140       ??E?$istreambuf_iterator@GU?$char_traits@G@std@@@std@@QAEAAV01@XZ 00615140 f i libcpmtd:wlocale.obj
 0001:002141b0       ??E?$istreambuf_iterator@_WU?$char_traits@_W@std@@@std@@QAEAAV01@XZ 006151b0 f i libcpmtd:wlocale.obj
 0001:00214220       ??E?$ostreambuf_iterator@GU?$char_traits@G@std@@@std@@QAEAAV01@H@Z 00615220 f i libcpmtd:wlocale.obj
 0001:00214240       ??E?$ostreambuf_iterator@GU?$char_traits@G@std@@@std@@QAEAAV01@XZ 00615240 f i libcpmtd:wlocale.obj
 0001:00214260       ??E?$ostreambuf_iterator@_WU?$char_traits@_W@std@@@std@@QAEAAV01@H@Z 00615260 f i libcpmtd:wlocale.obj
 0001:00214280       ??E?$ostreambuf_iterator@_WU?$char_traits@_W@std@@@std@@QAEAAV01@XZ 00615280 f i libcpmtd:wlocale.obj
 0001:002142a0       ??G?$_String_iterator@V?$_String_val@U?$_Simple_types@G@std@@@std@@@std@@QBE?AV01@H@Z 006152a0 f i libcpmtd:wlocale.obj
 0001:002142e0       ??G?$_String_iterator@V?$_String_val@U?$_Simple_types@_W@std@@@std@@@std@@QBE?AV01@H@Z 006152e0 f i libcpmtd:wlocale.obj
 0001:00214320       ??H?$_String_iterator@V?$_String_val@U?$_Simple_types@G@std@@@std@@@std@@QBE?AV01@H@Z 00615320 f i libcpmtd:wlocale.obj
 0001:00214360       ??H?$_String_iterator@V?$_String_val@U?$_Simple_types@_W@std@@@std@@@std@@QBE?AV01@H@Z 00615360 f i libcpmtd:wlocale.obj
 0001:002143a0       ??R<lambda_1>@?1??append@?$basic_string@GU?$char_traits@G@std@@V?$allocator@G@2@@std@@QAEAAV23@IG@Z@QBE@QAGQBGIIG@Z 006153a0 f i libcpmtd:wlocale.obj
 0001:00214420       ??R<lambda_1>@?1??append@?$basic_string@GU?$char_traits@G@std@@V?$allocator@G@2@@std@@QAEAAV23@QBGI@Z@QBE@QAG0I0I@Z 00615420 f i libcpmtd:wlocale.obj
 0001:002144a0       ??R<lambda_1>@?1??append@?$basic_string@_WU?$char_traits@_W@std@@V?$allocator@_W@2@@std@@QAEAAV23@I_W@Z@QBE@QA_WQB_WII0@Z 006154a0 f i libcpmtd:wlocale.obj
 0001:00214520       ??R<lambda_1>@?1??append@?$basic_string@_WU?$char_traits@_W@std@@V?$allocator@_W@2@@std@@QAEAAV23@QB_WI@Z@QBE@QA_W0I0I@Z 00615520 f i libcpmtd:wlocale.obj
 0001:002145a0       ??R<lambda_1>@?1??insert@?$basic_string@GU?$char_traits@G@std@@V?$allocator@G@2@@std@@QAEAAV23@IIG@Z@QBE@QAGQBGIIIG@Z 006155a0 f i libcpmtd:wlocale.obj
 0001:00214630       ??R<lambda_1>@?1??insert@?$basic_string@_WU?$char_traits@_W@std@@V?$allocator@_W@2@@std@@QAEAAV23@II_W@Z@QBE@QA_WQB_WIII0@Z 00615630 f i libcpmtd:wlocale.obj
 0001:002146c0       ??R<lambda_1>@?1??push_back@?$basic_string@GU?$char_traits@G@std@@V?$allocator@G@2@@std@@QAEXG@Z@QBE@QAGQBGIG@Z 006156c0 f i libcpmtd:wlocale.obj
 0001:00214730       ??R<lambda_1>@?1??push_back@?$basic_string@_WU?$char_traits@_W@std@@V?$allocator@_W@2@@std@@QAEX_W@Z@QBE@QA_WQB_WI0@Z 00615730 f i libcpmtd:wlocale.obj
 0001:002147a0       ??Y?$_String_const_iterator@V?$_String_val@U?$_Simple_types@G@std@@@std@@@std@@QAEAAV01@H@Z 006157a0 f i libcpmtd:wlocale.obj
 0001:002147e0       ??Y?$_String_const_iterator@V?$_String_val@U?$_Simple_types@_W@std@@@std@@@std@@QAEAAV01@H@Z 006157e0 f i libcpmtd:wlocale.obj
 0001:00214820       ??Y?$_String_iterator@V?$_String_val@U?$_Simple_types@G@std@@@std@@@std@@QAEAAV01@H@Z 00615820 f i libcpmtd:wlocale.obj
 0001:00214850       ??Y?$_String_iterator@V?$_String_val@U?$_Simple_types@_W@std@@@std@@@std@@QAEAAV01@H@Z 00615850 f i libcpmtd:wlocale.obj
 0001:00214880       ??Y?$basic_string@GU?$char_traits@G@std@@V?$allocator@G@2@@std@@QAEAAV01@ABV01@@Z 00615880 f i libcpmtd:wlocale.obj
 0001:002148a0       ??Y?$basic_string@_WU?$char_traits@_W@std@@V?$allocator@_W@2@@std@@QAEAAV01@ABV01@@Z 006158a0 f i libcpmtd:wlocale.obj
 0001:002148c0       ??Z?$_String_const_iterator@V?$_String_val@U?$_Simple_types@G@std@@@std@@@std@@QAEAAV01@H@Z 006158c0 f i libcpmtd:wlocale.obj
 0001:002148f0       ??Z?$_String_const_iterator@V?$_String_val@U?$_Simple_types@_W@std@@@std@@@std@@QAEAAV01@H@Z 006158f0 f i libcpmtd:wlocale.obj
 0001:00214920       ??Z?$_String_iterator@V?$_String_val@U?$_Simple_types@G@std@@@std@@@std@@QAEAAV01@H@Z 00615920 f i libcpmtd:wlocale.obj
 0001:00214950       ??Z?$_String_iterator@V?$_String_val@U?$_Simple_types@_W@std@@@std@@@std@@QAEAAV01@H@Z 00615950 f i libcpmtd:wlocale.obj
 0001:00214980       ??_E?$_Mpunct@G@std@@MAEPAXI@Z 00615980 f i libcpmtd:wlocale.obj
 0001:00214980       ??_G?$_Mpunct@G@std@@MAEPAXI@Z 00615980 f i libcpmtd:wlocale.obj
 0001:002149e0       ??_E?$_Mpunct@_W@std@@MAEPAXI@Z 006159e0 f i libcpmtd:wlocale.obj
 0001:002149e0       ??_G?$_Mpunct@_W@std@@MAEPAXI@Z 006159e0 f i libcpmtd:wlocale.obj
 0001:00214a40       ??_E?$codecvt@GDU_Mbstatet@@@std@@MAEPAXI@Z 00615a40 f i libcpmtd:wlocale.obj
 0001:00214a40       ??_G?$codecvt@GDU_Mbstatet@@@std@@MAEPAXI@Z 00615a40 f i libcpmtd:wlocale.obj
 0001:00214aa0       ??_E?$codecvt@_WDU_Mbstatet@@@std@@MAEPAXI@Z 00615aa0 f i libcpmtd:wlocale.obj
 0001:00214aa0       ??_G?$codecvt@_WDU_Mbstatet@@@std@@MAEPAXI@Z 00615aa0 f i libcpmtd:wlocale.obj
 0001:00214b00       ??_E?$collate@G@std@@MAEPAXI@Z 00615b00 f i libcpmtd:wlocale.obj
 0001:00214b00       ??_G?$collate@G@std@@MAEPAXI@Z 00615b00 f i libcpmtd:wlocale.obj
 0001:00214b60       ??_E?$collate@_W@std@@MAEPAXI@Z 00615b60 f i libcpmtd:wlocale.obj
 0001:00214b60       ??_G?$collate@_W@std@@MAEPAXI@Z 00615b60 f i libcpmtd:wlocale.obj
 0001:00214bc0       ??_E?$ctype@G@std@@MAEPAXI@Z 00615bc0 f i libcpmtd:wlocale.obj
 0001:00214bc0       ??_G?$ctype@G@std@@MAEPAXI@Z 00615bc0 f i libcpmtd:wlocale.obj
 0001:00214c20       ??_E?$ctype@_W@std@@MAEPAXI@Z 00615c20 f i libcpmtd:wlocale.obj
 0001:00214c20       ??_G?$ctype@_W@std@@MAEPAXI@Z 00615c20 f i libcpmtd:wlocale.obj
 0001:00214c80       ??_E?$messages@G@std@@MAEPAXI@Z 00615c80 f i libcpmtd:wlocale.obj
 0001:00214c80       ??_G?$messages@G@std@@MAEPAXI@Z 00615c80 f i libcpmtd:wlocale.obj
 0001:00214ce0       ??_E?$messages@_W@std@@MAEPAXI@Z 00615ce0 f i libcpmtd:wlocale.obj
 0001:00214ce0       ??_G?$messages@_W@std@@MAEPAXI@Z 00615ce0 f i libcpmtd:wlocale.obj
 0001:00214d40       ??_E?$money_get@GV?$istreambuf_iterator@GU?$char_traits@G@std@@@std@@@std@@MAEPAXI@Z 00615d40 f i libcpmtd:wlocale.obj
 0001:00214d40       ??_G?$money_get@GV?$istreambuf_iterator@GU?$char_traits@G@std@@@std@@@std@@MAEPAXI@Z 00615d40 f i libcpmtd:wlocale.obj
 0001:00214da0       ??_E?$money_get@_WV?$istreambuf_iterator@_WU?$char_traits@_W@std@@@std@@@std@@MAEPAXI@Z 00615da0 f i libcpmtd:wlocale.obj
 0001:00214da0       ??_G?$money_get@_WV?$istreambuf_iterator@_WU?$char_traits@_W@std@@@std@@@std@@MAEPAXI@Z 00615da0 f i libcpmtd:wlocale.obj
 0001:00214e00       ??_E?$money_put@GV?$ostreambuf_iterator@GU?$char_traits@G@std@@@std@@@std@@MAEPAXI@Z 00615e00 f i libcpmtd:wlocale.obj
 0001:00214e00       ??_G?$money_put@GV?$ostreambuf_iterator@GU?$char_traits@G@std@@@std@@@std@@MAEPAXI@Z 00615e00 f i libcpmtd:wlocale.obj
 0001:00214e60       ??_E?$money_put@_WV?$ostreambuf_iterator@_WU?$char_traits@_W@std@@@std@@@std@@MAEPAXI@Z 00615e60 f i libcpmtd:wlocale.obj
 0001:00214e60       ??_G?$money_put@_WV?$ostreambuf_iterator@_WU?$char_traits@_W@std@@@std@@@std@@MAEPAXI@Z 00615e60 f i libcpmtd:wlocale.obj
 0001:00214ec0       ??_E?$moneypunct@G$00@std@@MAEPAXI@Z 00615ec0 f i libcpmtd:wlocale.obj
 0001:00214ec0       ??_G?$moneypunct@G$00@std@@MAEPAXI@Z 00615ec0 f i libcpmtd:wlocale.obj
 0001:00214f20       ??_E?$moneypunct@G$0A@@std@@MAEPAXI@Z 00615f20 f i libcpmtd:wlocale.obj
 0001:00214f20       ??_G?$moneypunct@G$0A@@std@@MAEPAXI@Z 00615f20 f i libcpmtd:wlocale.obj
 0001:00214f80       ??_E?$moneypunct@_W$00@std@@MAEPAXI@Z 00615f80 f i libcpmtd:wlocale.obj
 0001:00214f80       ??_G?$moneypunct@_W$00@std@@MAEPAXI@Z 00615f80 f i libcpmtd:wlocale.obj
 0001:00214fe0       ??_E?$moneypunct@_W$0A@@std@@MAEPAXI@Z 00615fe0 f i libcpmtd:wlocale.obj
 0001:00214fe0       ??_G?$moneypunct@_W$0A@@std@@MAEPAXI@Z 00615fe0 f i libcpmtd:wlocale.obj
 0001:00215040       ??_E?$num_get@GV?$istreambuf_iterator@GU?$char_traits@G@std@@@std@@@std@@MAEPAXI@Z 00616040 f i libcpmtd:wlocale.obj
 0001:00215040       ??_G?$num_get@GV?$istreambuf_iterator@GU?$char_traits@G@std@@@std@@@std@@MAEPAXI@Z 00616040 f i libcpmtd:wlocale.obj
 0001:002150a0       ??_E?$num_get@_WV?$istreambuf_iterator@_WU?$char_traits@_W@std@@@std@@@std@@MAEPAXI@Z 006160a0 f i libcpmtd:wlocale.obj
 0001:002150a0       ??_G?$num_get@_WV?$istreambuf_iterator@_WU?$char_traits@_W@std@@@std@@@std@@MAEPAXI@Z 006160a0 f i libcpmtd:wlocale.obj
 0001:00215100       ??_E?$num_put@GV?$ostreambuf_iterator@GU?$char_traits@G@std@@@std@@@std@@MAEPAXI@Z 00616100 f i libcpmtd:wlocale.obj
 0001:00215100       ??_G?$num_put@GV?$ostreambuf_iterator@GU?$char_traits@G@std@@@std@@@std@@MAEPAXI@Z 00616100 f i libcpmtd:wlocale.obj
 0001:00215160       ??_E?$num_put@_WV?$ostreambuf_iterator@_WU?$char_traits@_W@std@@@std@@@std@@MAEPAXI@Z 00616160 f i libcpmtd:wlocale.obj
 0001:00215160       ??_G?$num_put@_WV?$ostreambuf_iterator@_WU?$char_traits@_W@std@@@std@@@std@@MAEPAXI@Z 00616160 f i libcpmtd:wlocale.obj
 0001:002151c0       ??_E?$numpunct@G@std@@MAEPAXI@Z 006161c0 f i libcpmtd:wlocale.obj
 0001:002151c0       ??_G?$numpunct@G@std@@MAEPAXI@Z 006161c0 f i libcpmtd:wlocale.obj
 0001:00215220       ??_E?$numpunct@_W@std@@MAEPAXI@Z 00616220 f i libcpmtd:wlocale.obj
 0001:00215220       ??_G?$numpunct@_W@std@@MAEPAXI@Z 00616220 f i libcpmtd:wlocale.obj
 0001:00215280       ??_E?$time_get@GV?$istreambuf_iterator@GU?$char_traits@G@std@@@std@@@std@@MAEPAXI@Z 00616280 f i libcpmtd:wlocale.obj
 0001:00215280       ??_G?$time_get@GV?$istreambuf_iterator@GU?$char_traits@G@std@@@std@@@std@@MAEPAXI@Z 00616280 f i libcpmtd:wlocale.obj
 0001:002152e0       ??_E?$time_get@_WV?$istreambuf_iterator@_WU?$char_traits@_W@std@@@std@@@std@@MAEPAXI@Z 006162e0 f i libcpmtd:wlocale.obj
 0001:002152e0       ??_G?$time_get@_WV?$istreambuf_iterator@_WU?$char_traits@_W@std@@@std@@@std@@MAEPAXI@Z 006162e0 f i libcpmtd:wlocale.obj
 0001:00215340       ??_E?$time_put@GV?$ostreambuf_iterator@GU?$char_traits@G@std@@@std@@@std@@MAEPAXI@Z 00616340 f i libcpmtd:wlocale.obj
 0001:00215340       ??_G?$time_put@GV?$ostreambuf_iterator@GU?$char_traits@G@std@@@std@@@std@@MAEPAXI@Z 00616340 f i libcpmtd:wlocale.obj
 0001:002153a0       ??_E?$time_put@_WV?$ostreambuf_iterator@_WU?$char_traits@_W@std@@@std@@@std@@MAEPAXI@Z 006163a0 f i libcpmtd:wlocale.obj
 0001:002153a0       ??_G?$time_put@_WV?$ostreambuf_iterator@_WU?$char_traits@_W@std@@@std@@@std@@MAEPAXI@Z 006163a0 f i libcpmtd:wlocale.obj
 0001:00215400       ??_Emessages_base@std@@UAEPAXI@Z 00616400 f i libcpmtd:wlocale.obj
 0001:00215400       ??_Gmessages_base@std@@UAEPAXI@Z 00616400 f i libcpmtd:wlocale.obj
 0001:00215460       ??_Emoney_base@std@@UAEPAXI@Z 00616460 f i libcpmtd:wlocale.obj
 0001:00215460       ??_Gmoney_base@std@@UAEPAXI@Z 00616460 f i libcpmtd:wlocale.obj
 0001:002154c0       ??_Etime_base@std@@UAEPAXI@Z 006164c0 f i libcpmtd:wlocale.obj
 0001:002154c0       ??_Gtime_base@std@@UAEPAXI@Z 006164c0 f i libcpmtd:wlocale.obj
 0001:00215520       ?_Activate_SSO_buffer@?$_String_val@U?$_Simple_types@G@std@@@std@@QAEXXZ 00616520 f i libcpmtd:wlocale.obj
 0001:00215570       ?_Activate_SSO_buffer@?$_String_val@U?$_Simple_types@_W@std@@@std@@QAEXXZ 00616570 f i libcpmtd:wlocale.obj
 0001:002155c0       ?_Apply_annotation@?$basic_string@GU?$char_traits@G@std@@V?$allocator@G@2@@std@@CAXQBGIII@Z 006165c0 f i libcpmtd:wlocale.obj
 0001:002156a0       ?_Apply_annotation@?$basic_string@_WU?$char_traits@_W@std@@V?$allocator@_W@2@@std@@CAXQB_WIII@Z 006166a0 f i libcpmtd:wlocale.obj
 0001:00215780       ?_C_str@?$_Yarn@_W@std@@QBEPB_WXZ 00616780 f i libcpmtd:wlocale.obj
 0001:002157c0       ?_Calculate_growth@?$basic_string@GU?$char_traits@G@std@@V?$allocator@G@2@@std@@ABEII@Z 006167c0 f i libcpmtd:wlocale.obj
 0001:00215810       ?_Calculate_growth@?$basic_string@GU?$char_traits@G@std@@V?$allocator@G@2@@std@@CAIIII@Z 00616810 f i libcpmtd:wlocale.obj
 0001:00215880       ?_Calculate_growth@?$basic_string@_WU?$char_traits@_W@std@@V?$allocator@_W@2@@std@@ABEII@Z 00616880 f i libcpmtd:wlocale.obj
 0001:002158d0       ?_Calculate_growth@?$basic_string@_WU?$char_traits@_W@std@@V?$allocator@_W@2@@std@@CAIIII@Z 006168d0 f i libcpmtd:wlocale.obj
 0001:00215940       ?_Check_offset@?$_String_val@U?$_Simple_types@G@std@@@std@@QBEXI@Z 00616940 f i libcpmtd:wlocale.obj
 0001:00215970       ?_Check_offset@?$_String_val@U?$_Simple_types@_W@std@@@std@@QBEXI@Z 00616970 f i libcpmtd:wlocale.obj
 0001:002159a0       ?_Compat@?$_String_const_iterator@V?$_String_val@U?$_Simple_types@G@std@@@std@@@std@@QBEXABV12@@Z 006169a0 f i libcpmtd:wlocale.obj
 0001:00215a20       ?_Compat@?$_String_const_iterator@V?$_String_val@U?$_Simple_types@_W@std@@@std@@@std@@QBEXABV12@@Z 00616a20 f i libcpmtd:wlocale.obj
 0001:00215aa0       ?_Construct_empty@?$basic_string@GU?$char_traits@G@std@@V?$allocator@G@2@@std@@AAEXXZ 00616aa0 f i libcpmtd:wlocale.obj
 0001:00215b30       ?_Construct_empty@?$basic_string@_WU?$char_traits@_W@std@@V?$allocator@_W@2@@std@@AAEXXZ 00616b30 f i libcpmtd:wlocale.obj
 0001:00215bc0       ?_Create_annotation@?$basic_string@GU?$char_traits@G@std@@V?$allocator@G@2@@std@@ABEXXZ 00616bc0 f i libcpmtd:wlocale.obj
 0001:00215c30       ?_Create_annotation@?$basic_string@_WU?$char_traits@_W@std@@V?$allocator@_W@2@@std@@ABEXXZ 00616c30 f i libcpmtd:wlocale.obj
 0001:00215ca0       ?_Deallocate_for_capacity@?$basic_string@GU?$char_traits@G@std@@V?$allocator@G@2@@std@@CAXAAV?$allocator@G@2@QAGI@Z 00616ca0 f i libcpmtd:wlocale.obj
 0001:00215cc0       ?_Deallocate_for_capacity@?$basic_string@_WU?$char_traits@_W@std@@V?$allocator@_W@2@@std@@CAXAAV?$allocator@_W@2@QA_WI@Z 00616cc0 f i libcpmtd:wlocale.obj
 0001:00215ce0       ?_Donarrow@?$ctype@G@std@@IBEDGD@Z 00616ce0 f i libcpmtd:wlocale.obj
 0001:00215d60       ?_Donarrow@?$ctype@_W@std@@IBED_WD@Z 00616d60 f i libcpmtd:wlocale.obj
 0001:00215de0       ?_Dowiden@?$ctype@G@std@@IBEGD@Z 00616de0 f i libcpmtd:wlocale.obj
 0001:00215e40       ?_Dowiden@?$ctype@_W@std@@IBE_WD@Z 00616e40 f i libcpmtd:wlocale.obj
 0001:00215eb0       ?_Empty@?$_Yarn@_W@std@@QBE_NXZ 00616eb0 f i libcpmtd:wlocale.obj
 0001:00215ef0       ?_Eos@?$basic_string@GU?$char_traits@G@std@@V?$allocator@G@2@@std@@AAEXI@Z 00616ef0 f i libcpmtd:wlocale.obj
 0001:00215f50       ?_Eos@?$basic_string@_WU?$char_traits@_W@std@@V?$allocator@_W@2@@std@@AAEXI@Z 00616f50 f i libcpmtd:wlocale.obj
 0001:00215fb0       ?_Ffmt@?$num_put@GV?$ostreambuf_iterator@GU?$char_traits@G@std@@@std@@@std@@ABAPADPADDH@Z 00616fb0 f i libcpmtd:wlocale.obj
 0001:00216110       ?_Ffmt@?$num_put@_WV?$ostreambuf_iterator@_WU?$char_traits@_W@std@@@std@@@std@@ABAPADPADDH@Z 00617110 f i libcpmtd:wlocale.obj
 0001:00216270       ?_Fnv1a_append_bytes@std@@YAIIQBEI@Z 00617270 f i libcpmtd:wlocale.obj
 0001:002162c0       ?_Get_first@?$_Compressed_pair@V?$allocator@G@std@@V?$_String_val@U?$_Simple_types@G@std@@@2@$00@std@@QAEAAV?$allocator@G@2@XZ 006172c0 f i libcpmtd:wlocale.obj
 0001:002162e0       ?_Get_first@?$_Compressed_pair@V?$allocator@G@std@@V?$_String_val@U?$_Simple_types@G@std@@@2@$00@std@@QBEABV?$allocator@G@2@XZ 006172e0 f i libcpmtd:wlocale.obj
 0001:00216300       ?_Get_first@?$_Compressed_pair@V?$allocator@_W@std@@V?$_String_val@U?$_Simple_types@_W@std@@@2@$00@std@@QAEAAV?$allocator@_W@2@XZ 00617300 f i libcpmtd:wlocale.obj
 0001:00216320       ?_Get_first@?$_Compressed_pair@V?$allocator@_W@std@@V?$_String_val@U?$_Simple_types@_W@std@@@2@$00@std@@QBEABV?$allocator@_W@2@XZ 00617320 f i libcpmtd:wlocale.obj
 0001:00216340       ?_Getal@?$basic_string@GU?$char_traits@G@std@@V?$allocator@G@2@@std@@AAEAAV?$allocator@G@2@XZ 00617340 f i libcpmtd:wlocale.obj
 0001:00216360       ?_Getal@?$basic_string@GU?$char_traits@G@std@@V?$allocator@G@2@@std@@ABEABV?$allocator@G@2@XZ 00617360 f i libcpmtd:wlocale.obj
 0001:00216380       ?_Getal@?$basic_string@_WU?$char_traits@_W@std@@V?$allocator@_W@2@@std@@AAEAAV?$allocator@_W@2@XZ 00617380 f i libcpmtd:wlocale.obj
 0001:002163a0       ?_Getal@?$basic_string@_WU?$char_traits@_W@std@@V?$allocator@_W@2@@std@@ABEABV?$allocator@_W@2@XZ 006173a0 f i libcpmtd:wlocale.obj
 0001:002163c0       ?_Getcat@?$codecvt@GDU_Mbstatet@@@std@@SAIPAPBVfacet@locale@2@PBV42@@Z 006173c0 f i libcpmtd:wlocale.obj
 0001:002164f0       ?_Getcat@?$codecvt@_WDU_Mbstatet@@@std@@SAIPAPBVfacet@locale@2@PBV42@@Z 006174f0 f i libcpmtd:wlocale.obj
 0001:00216620       ?_Getcat@?$collate@G@std@@SAIPAPBVfacet@locale@2@PBV42@@Z 00617620 f i libcpmtd:wlocale.obj
 0001:002167b0       ?_Getcat@?$collate@_W@std@@SAIPAPBVfacet@locale@2@PBV42@@Z 006177b0 f i libcpmtd:wlocale.obj
 0001:00216940       ?_Getcat@?$ctype@G@std@@SAIPAPBVfacet@locale@2@PBV42@@Z 00617940 f i libcpmtd:wlocale.obj
 0001:00216a70       ?_Getcat@?$ctype@_W@std@@SAIPAPBVfacet@locale@2@PBV42@@Z 00617a70 f i libcpmtd:wlocale.obj
 0001:00216ba0       ?_Getcat@?$messages@G@std@@SAIPAPBVfacet@locale@2@PBV42@@Z 00617ba0 f i libcpmtd:wlocale.obj
 0001:00216cd0       ?_Getcat@?$messages@_W@std@@SAIPAPBVfacet@locale@2@PBV42@@Z 00617cd0 f i libcpmtd:wlocale.obj
 0001:00216e00       ?_Getcat@?$money_get@GV?$istreambuf_iterator@GU?$char_traits@G@std@@@std@@@std@@SAIPAPBVfacet@locale@2@PBV42@@Z 00617e00 f i libcpmtd:wlocale.obj
 0001:00216f30       ?_Getcat@?$money_get@_WV?$istreambuf_iterator@_WU?$char_traits@_W@std@@@std@@@std@@SAIPAPBVfacet@locale@2@PBV42@@Z 00617f30 f i libcpmtd:wlocale.obj
 0001:00217060       ?_Getcat@?$money_put@GV?$ostreambuf_iterator@GU?$char_traits@G@std@@@std@@@std@@SAIPAPBVfacet@locale@2@PBV42@@Z 00618060 f i libcpmtd:wlocale.obj
 0001:00217190       ?_Getcat@?$money_put@_WV?$ostreambuf_iterator@_WU?$char_traits@_W@std@@@std@@@std@@SAIPAPBVfacet@locale@2@PBV42@@Z 00618190 f i libcpmtd:wlocale.obj
 0001:002172c0       ?_Getcat@?$moneypunct@G$00@std@@SAIPAPBVfacet@locale@2@PBV42@@Z 006182c0 f i libcpmtd:wlocale.obj
 0001:002173f0       ?_Getcat@?$moneypunct@G$0A@@std@@SAIPAPBVfacet@locale@2@PBV42@@Z 006183f0 f i libcpmtd:wlocale.obj
 0001:00217520       ?_Getcat@?$moneypunct@_W$00@std@@SAIPAPBVfacet@locale@2@PBV42@@Z 00618520 f i libcpmtd:wlocale.obj
 0001:00217650       ?_Getcat@?$moneypunct@_W$0A@@std@@SAIPAPBVfacet@locale@2@PBV42@@Z 00618650 f i libcpmtd:wlocale.obj
 0001:00217780       ?_Getcat@?$num_get@GV?$istreambuf_iterator@GU?$char_traits@G@std@@@std@@@std@@SAIPAPBVfacet@locale@2@PBV42@@Z 00618780 f i libcpmtd:wlocale.obj
 0001:002178b0       ?_Getcat@?$num_get@_WV?$istreambuf_iterator@_WU?$char_traits@_W@std@@@std@@@std@@SAIPAPBVfacet@locale@2@PBV42@@Z 006188b0 f i libcpmtd:wlocale.obj
 0001:002179e0       ?_Getcat@?$num_put@GV?$ostreambuf_iterator@GU?$char_traits@G@std@@@std@@@std@@SAIPAPBVfacet@locale@2@PBV42@@Z 006189e0 f i libcpmtd:wlocale.obj
 0001:00217b10       ?_Getcat@?$num_put@_WV?$ostreambuf_iterator@_WU?$char_traits@_W@std@@@std@@@std@@SAIPAPBVfacet@locale@2@PBV42@@Z 00618b10 f i libcpmtd:wlocale.obj
 0001:00217c40       ?_Getcat@?$numpunct@G@std@@SAIPAPBVfacet@locale@2@PBV42@@Z 00618c40 f i libcpmtd:wlocale.obj
 0001:00217d70       ?_Getcat@?$numpunct@_W@std@@SAIPAPBVfacet@locale@2@PBV42@@Z 00618d70 f i libcpmtd:wlocale.obj
 0001:00217ea0       ?_Getcat@?$time_get@GV?$istreambuf_iterator@GU?$char_traits@G@std@@@std@@@std@@SAIPAPBVfacet@locale@2@PBV42@@Z 00618ea0 f i libcpmtd:wlocale.obj
 0001:00217fd0       ?_Getcat@?$time_get@_WV?$istreambuf_iterator@_WU?$char_traits@_W@std@@@std@@@std@@SAIPAPBVfacet@locale@2@PBV42@@Z 00618fd0 f i libcpmtd:wlocale.obj
 0001:00218100       ?_Getcat@?$time_put@GV?$ostreambuf_iterator@GU?$char_traits@G@std@@@std@@@std@@SAIPAPBVfacet@locale@2@PBV42@@Z 00619100 f i libcpmtd:wlocale.obj
 0001:00218230       ?_Getcat@?$time_put@_WV?$ostreambuf_iterator@_WU?$char_traits@_W@std@@@std@@@std@@SAIPAPBVfacet@locale@2@PBV42@@Z 00619230 f i libcpmtd:wlocale.obj
 0001:00218360       ?_Getcoll@_Locinfo@std@@QBE?AU_Collvec@@XZ 00619360 f i libcpmtd:wlocale.obj
 0001:00218390       ?_Getdateorder@_Locinfo@std@@QBEHXZ 00619390 f i libcpmtd:wlocale.obj
 0001:002183b0       ?_Getdays@_Locinfo@std@@QBEPBDXZ 006193b0 f i libcpmtd:wlocale.obj
 0001:00218430       ?_Getfmt@?$time_get@GV?$istreambuf_iterator@GU?$char_traits@G@std@@@std@@@std@@IBE?AV?$istreambuf_iterator@GU?$char_traits@G@std@@@2@V32@0AAVios_base@2@AAHPAUtm@@PBD@Z 00619430 f i libcpmtd:wlocale.obj
 0001:002186a0       ?_Getfmt@?$time_get@_WV?$istreambuf_iterator@_WU?$char_traits@_W@std@@@std@@@std@@IBE?AV?$istreambuf_iterator@_WU?$char_traits@_W@std@@@2@V32@0AAVios_base@2@AAHPAUtm@@PBD@Z 006196a0 f i libcpmtd:wlocale.obj
 0001:00218910       ?_Getint@?$time_get@GV?$istreambuf_iterator@GU?$char_traits@G@std@@@std@@@std@@ABAHAAV?$istreambuf_iterator@GU?$char_traits@G@std@@@2@0HHAAHABV?$ctype@G@2@@Z 00619910 f i libcpmtd:wlocale.obj
 0001:00218950       ?_Getint@?$time_get@_WV?$istreambuf_iterator@_WU?$char_traits@_W@std@@@std@@@std@@ABAHAAV?$istreambuf_iterator@_WU?$char_traits@_W@std@@@2@0HHAAHABV?$ctype@_W@2@@Z 00619950 f i libcpmtd:wlocale.obj
 0001:00218990       ?_Getmfld@?$money_get@GV?$istreambuf_iterator@GU?$char_traits@G@std@@@std@@@std@@ABE?AV?$basic_string@DU?$char_traits@D@std@@V?$allocator@D@2@@2@AAV?$istreambuf_iterator@GU?$char_traits@G@std@@@2@0_NAAVios_base@2@AAY0M@G@Z 00619990 f i libcpmtd:wlocale.obj
 0001:00219e40       ?_Getmfld@?$money_get@_WV?$istreambuf_iterator@_WU?$char_traits@_W@std@@@std@@@std@@ABE?AV?$basic_string@DU?$char_traits@D@std@@V?$allocator@D@2@@2@AAV?$istreambuf_iterator@_WU?$char_traits@_W@std@@@2@0_NAAVios_base@2@AAY0M@_W@Z 0061ae40 f i libcpmtd:wlocale.obj
 0001:0021b2f0       ?_Getmonths@_Locinfo@std@@QBEPBDXZ 0061c2f0 f i libcpmtd:wlocale.obj
 0001:0021b370       ?_Getptr@_Timevec@std@@QBEPAXXZ 0061c370 f i libcpmtd:wlocale.obj
 0001:0021b390       ?_Gnavail@?$basic_streambuf@GU?$char_traits@G@std@@@std@@IBE_JXZ 0061c390 f i libcpmtd:wlocale.obj
 0001:0021b3d0       ?_Gnavail@?$basic_streambuf@_WU?$char_traits@_W@std@@@std@@IBE_JXZ 0061c3d0 f i libcpmtd:wlocale.obj
 0001:0021b410       ?_Gninc@?$basic_streambuf@GU?$char_traits@G@std@@@std@@IAEPAGXZ 0061c410 f i libcpmtd:wlocale.obj
 0001:0021b470       ?_Gninc@?$basic_streambuf@_WU?$char_traits@_W@std@@@std@@IAEPA_WXZ 0061c470 f i libcpmtd:wlocale.obj
 0001:0021b4d0       ?_Ifmt@?$num_put@GV?$ostreambuf_iterator@GU?$char_traits@G@std@@@std@@@std@@ABAPADPADPBDH@Z 0061c4d0 f i libcpmtd:wlocale.obj
 0001:0021b640       ?_Ifmt@?$num_put@_WV?$ostreambuf_iterator@_WU?$char_traits@_W@std@@@std@@@std@@ABAPADPADPBDH@Z 0061c640 f i libcpmtd:wlocale.obj
 0001:0021b7b0       ?_Inc@?$istreambuf_iterator@GU?$char_traits@G@std@@@std@@AAEXXZ 0061c7b0 f i libcpmtd:wlocale.obj
 0001:0021b830       ?_Inc@?$istreambuf_iterator@_WU?$char_traits@_W@std@@@std@@AAEXXZ 0061c830 f i libcpmtd:wlocale.obj
 0001:0021b8b0       ?_Init@?$_Mpunct@G@std@@IAEXABV_Locinfo@2@_N@Z 0061c8b0 f i libcpmtd:wlocale.obj
 0001:0021bc20       ?_Init@?$_Mpunct@_W@std@@IAEXABV_Locinfo@2@_N@Z 0061cc20 f i libcpmtd:wlocale.obj
 0001:0021bf20       ?_Init@?$codecvt@GDU_Mbstatet@@@std@@IAEXABV_Locinfo@2@@Z 0061cf20 f i libcpmtd:wlocale.obj
 0001:0021bf80       ?_Init@?$codecvt@_WDU_Mbstatet@@@std@@IAEXABV_Locinfo@2@@Z 0061cf80 f i libcpmtd:wlocale.obj
 0001:0021bfe0       ?_Init@?$collate@G@std@@IAEXABV_Locinfo@2@@Z 0061cfe0 f i libcpmtd:wlocale.obj
 0001:0021c020       ?_Init@?$collate@_W@std@@IAEXABV_Locinfo@2@@Z 0061d020 f i libcpmtd:wlocale.obj
 0001:0021c060       ?_Init@?$ctype@G@std@@IAEXABV_Locinfo@2@@Z 0061d060 f i libcpmtd:wlocale.obj
 0001:0021c0f0       ?_Init@?$ctype@_W@std@@IAEXABV_Locinfo@2@@Z 0061d0f0 f i libcpmtd:wlocale.obj
 0001:0021c180       ?_Init@?$messages@G@std@@IAEXABV_Locinfo@2@@Z 0061d180 f i libcpmtd:wlocale.obj
 0001:0021c190       ?_Init@?$messages@_W@std@@IAEXABV_Locinfo@2@@Z 0061d190 f i libcpmtd:wlocale.obj
 0001:0021c1a0       ?_Init@?$money_get@GV?$istreambuf_iterator@GU?$char_traits@G@std@@@std@@@std@@IAEXABV_Locinfo@2@@Z 0061d1a0 f i libcpmtd:wlocale.obj
 0001:0021c1b0       ?_Init@?$money_get@_WV?$istreambuf_iterator@_WU?$char_traits@_W@std@@@std@@@std@@IAEXABV_Locinfo@2@@Z 0061d1b0 f i libcpmtd:wlocale.obj
 0001:0021c1c0       ?_Init@?$money_put@GV?$ostreambuf_iterator@GU?$char_traits@G@std@@@std@@@std@@IAEXABV_Locinfo@2@@Z 0061d1c0 f i libcpmtd:wlocale.obj
 0001:0021c1d0       ?_Init@?$money_put@_WV?$ostreambuf_iterator@_WU?$char_traits@_W@std@@@std@@@std@@IAEXABV_Locinfo@2@@Z 0061d1d0 f i libcpmtd:wlocale.obj
 0001:0021c1e0       ?_Init@?$num_get@GV?$istreambuf_iterator@GU?$char_traits@G@std@@@std@@@std@@IAEXABV_Locinfo@2@@Z 0061d1e0 f i libcpmtd:wlocale.obj
 0001:0021c1f0       ?_Init@?$num_get@_WV?$istreambuf_iterator@_WU?$char_traits@_W@std@@@std@@@std@@IAEXABV_Locinfo@2@@Z 0061d1f0 f i libcpmtd:wlocale.obj
 0001:0021c200       ?_Init@?$num_put@GV?$ostreambuf_iterator@GU?$char_traits@G@std@@@std@@@std@@IAEXABV_Locinfo@2@@Z 0061d200 f i libcpmtd:wlocale.obj
 0001:0021c210       ?_Init@?$num_put@_WV?$ostreambuf_iterator@_WU?$char_traits@_W@std@@@std@@@std@@IAEXABV_Locinfo@2@@Z 0061d210 f i libcpmtd:wlocale.obj
 0001:0021c220       ?_Init@?$numpunct@G@std@@IAEXABV_Locinfo@2@_N@Z 0061d220 f i libcpmtd:wlocale.obj
 0001:0021c420       ?_Init@?$numpunct@_W@std@@IAEXABV_Locinfo@2@_N@Z 0061d420 f i libcpmtd:wlocale.obj
 0001:0021c600       ?_Init@?$time_get@GV?$istreambuf_iterator@GU?$char_traits@G@std@@@std@@@std@@IAEXABV_Locinfo@2@@Z 0061d600 f i libcpmtd:wlocale.obj
 0001:0021c6c0       ?_Init@?$time_get@_WV?$istreambuf_iterator@_WU?$char_traits@_W@std@@@std@@@std@@IAEXABV_Locinfo@2@@Z 0061d6c0 f i libcpmtd:wlocale.obj
 0001:0021c780       ?_Init@?$time_put@GV?$ostreambuf_iterator@GU?$char_traits@G@std@@@std@@@std@@IAEXABV_Locinfo@2@@Z 0061d780 f i libcpmtd:wlocale.obj
 0001:0021c820       ?_Init@?$time_put@_WV?$ostreambuf_iterator@_WU?$char_traits@_W@std@@@std@@@std@@IAEXABV_Locinfo@2@@Z 0061d820 f i libcpmtd:wlocale.obj
 0001:0021c8c0       ?_Iput@?$num_put@GV?$ostreambuf_iterator@GU?$char_traits@G@std@@@std@@@std@@ABA?AV?$ostreambuf_iterator@GU?$char_traits@G@std@@@2@V32@AAVios_base@2@GPADI@Z 0061d8c0 f i libcpmtd:wlocale.obj
 0001:0021cdf0       ?_Iput@?$num_put@_WV?$ostreambuf_iterator@_WU?$char_traits@_W@std@@@std@@@std@@ABA?AV?$ostreambuf_iterator@_WU?$char_traits@_W@std@@@2@V32@AAVios_base@2@_WPADI@Z 0061ddf0 f i libcpmtd:wlocale.obj
 0001:0021d320       ?_Large_mode_engaged@?$_String_val@U?$_Simple_types@G@std@@@std@@QBE_NXZ 0061e320 f i libcpmtd:wlocale.obj
 0001:0021d360       ?_Large_mode_engaged@?$_String_val@U?$_Simple_types@_W@std@@@std@@QBE_NXZ 0061e360 f i libcpmtd:wlocale.obj
 0001:0021d3a0       ?_Makeushloc@_Locimp@locale@std@@CAXABV_Locinfo@3@HPAV123@PBV23@@Z 0061e3a0 f   libcpmtd:wlocale.obj
 0001:0021e1a0       ?_Makewloc@_Locimp@locale@std@@CAXABV_Locinfo@3@HPAV123@PBV23@@Z 0061f1a0 f   libcpmtd:wlocale.obj
 0001:0021efa0       ?_Maklocwcs@std@@YAPA_WPB_W@Z 0061ffa0 f i libcpmtd:wlocale.obj
 0001:0021f010       ?_Makpat@?$_Mpunct@G@std@@AAEXAAUpattern@money_base@2@III@Z 00620010 f i libcpmtd:wlocale.obj
 0001:0021f090       ?_Makpat@?$_Mpunct@_W@std@@AAEXAAUpattern@money_base@2@III@Z 00620090 f i libcpmtd:wlocale.obj
 0001:0021f110       ?_Modify_annotation@?$basic_string@GU?$char_traits@G@std@@V?$allocator@G@2@@std@@ABEXII@Z 00620110 f i libcpmtd:wlocale.obj
 0001:0021f170       ?_Modify_annotation@?$basic_string@_WU?$char_traits@_W@std@@V?$allocator@_W@2@@std@@ABEXII@Z 00620170 f i libcpmtd:wlocale.obj
 0001:0021f1d0       ?_Myptr@?$_String_val@U?$_Simple_types@G@std@@@std@@QAEPAGXZ 006201d0 f i libcpmtd:wlocale.obj
 0001:0021f220       ?_Myptr@?$_String_val@U?$_Simple_types@G@std@@@std@@QBEPBGXZ 00620220 f i libcpmtd:wlocale.obj
 0001:0021f270       ?_Myptr@?$_String_val@U?$_Simple_types@_W@std@@@std@@QAEPA_WXZ 00620270 f i libcpmtd:wlocale.obj
 0001:0021f2c0       ?_Myptr@?$_String_val@U?$_Simple_types@_W@std@@@std@@QBEPB_WXZ 006202c0 f i libcpmtd:wlocale.obj
 0001:0021f310       ?_Peek@?$istreambuf_iterator@GU?$char_traits@G@std@@@std@@ABEGXZ 00620310 f i libcpmtd:wlocale.obj
 0001:0021f3b0       ?_Peek@?$istreambuf_iterator@_WU?$char_traits@_W@std@@@std@@ABE_WXZ 006203b0 f i libcpmtd:wlocale.obj
 0001:0021f450       ?_Pnavail@?$basic_streambuf@GU?$char_traits@G@std@@@std@@IBE_JXZ 00620450 f i libcpmtd:wlocale.obj
 0001:0021f490       ?_Pnavail@?$basic_streambuf@_WU?$char_traits@_W@std@@@std@@IBE_JXZ 00620490 f i libcpmtd:wlocale.obj
 0001:0021f4d0       ?_Pninc@?$basic_streambuf@GU?$char_traits@G@std@@@std@@IAEPAGXZ 006204d0 f i libcpmtd:wlocale.obj
 0001:0021f530       ?_Pninc@?$basic_streambuf@_WU?$char_traits@_W@std@@@std@@IAEPA_WXZ 00620530 f i libcpmtd:wlocale.obj
 0001:0021f590       ?_Put@?$money_put@GV?$ostreambuf_iterator@GU?$char_traits@G@std@@@std@@@std@@CA?AV?$ostreambuf_iterator@GU?$char_traits@G@std@@@2@V32@V?$_String_const_iterator@V?$_String_val@U?$_Simple_types@G@std@@@std@@@2@I@Z 00620590 f i libcpmtd:wlocale.obj
 0001:0021f660       ?_Put@?$money_put@_WV?$ostreambuf_iterator@_WU?$char_traits@_W@std@@@std@@@std@@CA?AV?$ostreambuf_iterator@_WU?$char_traits@_W@std@@@2@V32@V?$_String_const_iterator@V?$_String_val@U?$_Simple_types@_W@std@@@std@@@2@I@Z 00620660 f i libcpmtd:wlocale.obj
 0001:0021f730       ?_Put@?$num_put@GV?$ostreambuf_iterator@GU?$char_traits@G@std@@@std@@@std@@ABA?AV?$ostreambuf_iterator@GU?$char_traits@G@std@@@2@V32@PBGI@Z 00620730 f i libcpmtd:wlocale.obj
 0001:0021f7b0       ?_Put@?$num_put@_WV?$ostreambuf_iterator@_WU?$char_traits@_W@std@@@std@@@std@@ABA?AV?$ostreambuf_iterator@_WU?$char_traits@_W@std@@@2@V32@PB_WI@Z 006207b0 f i libcpmtd:wlocale.obj
 0001:0021f830       ?_Putmfld@?$money_put@GV?$ostreambuf_iterator@GU?$char_traits@G@std@@@std@@@std@@ABE?AV?$ostreambuf_iterator@GU?$char_traits@G@std@@@2@V32@_NAAVios_base@2@G1V?$basic_string@GU?$char_traits@G@std@@V?$allocator@G@2@@2@G@Z 00620830 f i libcpmtd:wlocale.obj
 0001:00220b00       ?_Putmfld@?$money_put@_WV?$ostreambuf_iterator@_WU?$char_traits@_W@std@@@std@@@std@@ABE?AV?$ostreambuf_iterator@_WU?$char_traits@_W@std@@@2@V32@_NAAVios_base@2@_W1V?$basic_string@_WU?$char_traits@_W@std@@V?$allocator@_W@2@@2@3@Z 00621b00 f i libcpmtd:wlocale.obj
 0001:00221dd0       ?_Remove_annotation@?$basic_string@GU?$char_traits@G@std@@V?$allocator@G@2@@std@@ABEXXZ 00622dd0 f i libcpmtd:wlocale.obj
 0001:00221e40       ?_Remove_annotation@?$basic_string@_WU?$char_traits@_W@std@@V?$allocator@_W@2@@std@@ABEXXZ 00622e40 f i libcpmtd:wlocale.obj
 0001:00221eb0       ?_Rep@?$money_put@GV?$ostreambuf_iterator@GU?$char_traits@G@std@@@std@@@std@@CA?AV?$ostreambuf_iterator@GU?$char_traits@G@std@@@2@V32@GI@Z 00622eb0 f i libcpmtd:wlocale.obj
 0001:00221f10       ?_Rep@?$money_put@_WV?$ostreambuf_iterator@_WU?$char_traits@_W@std@@@std@@@std@@CA?AV?$ostreambuf_iterator@_WU?$char_traits@_W@std@@@2@V32@_WI@Z 00622f10 f i libcpmtd:wlocale.obj
 0001:00221f70       ?_Rep@?$num_put@GV?$ostreambuf_iterator@GU?$char_traits@G@std@@@std@@@std@@ABA?AV?$ostreambuf_iterator@GU?$char_traits@G@std@@@2@V32@GI@Z 00622f70 f i libcpmtd:wlocale.obj
 0001:00221fd0       ?_Rep@?$num_put@_WV?$ostreambuf_iterator@_WU?$char_traits@_W@std@@@std@@@std@@ABA?AV?$ostreambuf_iterator@_WU?$char_traits@_W@std@@@2@V32@_WI@Z 00622fd0 f i libcpmtd:wlocale.obj
 0001:00222030       ?_Swap_proxy_and_iterators@?$basic_string@GU?$char_traits@G@std@@V?$allocator@G@2@@std@@AAEXAAV12@@Z 00623030 f i libcpmtd:wlocale.obj
 0001:00222060       ?_Swap_proxy_and_iterators@?$basic_string@_WU?$char_traits@_W@std@@V?$allocator@_W@2@@std@@AAEXAAV12@@Z 00623060 f i libcpmtd:wlocale.obj
 0001:00222090       ?_Switch_to_buf@_Bxty@?$_String_val@U?$_Simple_types@G@std@@@std@@QAEXXZ 00623090 f i libcpmtd:wlocale.obj
 0001:002220f0       ?_Switch_to_buf@_Bxty@?$_String_val@U?$_Simple_types@_W@std@@@std@@QAEXXZ 006230f0 f i libcpmtd:wlocale.obj
 0001:00222150       ?_Take_contents@?$basic_string@GU?$char_traits@G@std@@V?$allocator@G@2@@std@@AAEXAAV12@@Z 00623150 f i libcpmtd:wlocale.obj
 0001:00222260       ?_Take_contents@?$basic_string@_WU?$char_traits@_W@std@@V?$allocator@_W@2@@std@@AAEXAAV12@@Z 00623260 f i libcpmtd:wlocale.obj
 0001:00222370       ?_Tidy@?$_Mpunct@G@std@@AAEXXZ 00623370 f i libcpmtd:wlocale.obj
 0001:002223d0       ?_Tidy@?$_Mpunct@_W@std@@AAEXXZ 006233d0 f i libcpmtd:wlocale.obj
 0001:00222430       ?_Tidy@?$numpunct@G@std@@AAEXXZ 00623430 f i libcpmtd:wlocale.obj
 0001:00222480       ?_Tidy@?$numpunct@_W@std@@AAEXXZ 00623480 f i libcpmtd:wlocale.obj
 0001:002224d0       ?_Tidy@?$time_get@GV?$istreambuf_iterator@GU?$char_traits@G@std@@@std@@@std@@AAEXXZ 006234d0 f i libcpmtd:wlocale.obj
 0001:00222520       ?_Tidy@?$time_get@_WV?$istreambuf_iterator@_WU?$char_traits@_W@std@@@std@@@std@@AAEXXZ 00623520 f i libcpmtd:wlocale.obj
 0001:00222570       ?_Tidy_deallocate@?$basic_string@GU?$char_traits@G@std@@V?$allocator@G@2@@std@@AAEXXZ 00623570 f i libcpmtd:wlocale.obj
 0001:00222630       ?_Tidy_deallocate@?$basic_string@_WU?$char_traits@_W@std@@V?$allocator@_W@2@@std@@AAEXXZ 00623630 f i libcpmtd:wlocale.obj
 0001:002226f0       ?_Verify_offset@?$_String_const_iterator@V?$_String_val@U?$_Simple_types@G@std@@@std@@@std@@QBEXH@Z 006236f0 f i libcpmtd:wlocale.obj
 0001:002228a0       ?_Verify_offset@?$_String_const_iterator@V?$_String_val@U?$_Simple_types@_W@std@@@std@@@std@@QBEXH@Z 006238a0 f i libcpmtd:wlocale.obj
 0001:00222a50       ?_W_Getdays@_Locinfo@std@@QBEPBGXZ 00623a50 f i libcpmtd:wlocale.obj
 0001:00222ad0       ?_W_Getmonths@_Locinfo@std@@QBEPBGXZ 00623ad0 f i libcpmtd:wlocale.obj
 0001:00222b50       ?_W_Gettnames@_Locinfo@std@@QBE?AV_Timevec@2@XZ 00623b50 f i libcpmtd:wlocale.obj
 0001:00222b90       ?_Xran@?$_String_val@U?$_Simple_types@G@std@@@std@@SAXXZ 00623b90 f i libcpmtd:wlocale.obj
 0001:00222bb0       ?_Xran@?$_String_val@U?$_Simple_types@_W@std@@@std@@SAXXZ 00623bb0 f i libcpmtd:wlocale.obj
 0001:00222bd0       ?allocate@?$allocator@G@std@@QAEPAGI@Z 00623bd0 f i libcpmtd:wlocale.obj
 0001:00222c00       ?allocate@?$allocator@_W@std@@QAEPA_WI@Z 00623c00 f i libcpmtd:wlocale.obj
 0001:00222c30       ?append@?$basic_string@GU?$char_traits@G@std@@V?$allocator@G@2@@std@@QAEAAV12@ABV12@@Z 00623c30 f i libcpmtd:wlocale.obj
 0001:00222c70       ?append@?$basic_string@GU?$char_traits@G@std@@V?$allocator@G@2@@std@@QAEAAV12@IG@Z 00623c70 f i libcpmtd:wlocale.obj
 0001:00222d50       ?append@?$basic_string@GU?$char_traits@G@std@@V?$allocator@G@2@@std@@QAEAAV12@QBGI@Z 00623d50 f i libcpmtd:wlocale.obj
 0001:00222e20       ?append@?$basic_string@_WU?$char_traits@_W@std@@V?$allocator@_W@2@@std@@QAEAAV12@ABV12@@Z 00623e20 f i libcpmtd:wlocale.obj
 0001:00222e60       ?append@?$basic_string@_WU?$char_traits@_W@std@@V?$allocator@_W@2@@std@@QAEAAV12@I_W@Z 00623e60 f i libcpmtd:wlocale.obj
 0001:00222f40       ?append@?$basic_string@_WU?$char_traits@_W@std@@V?$allocator@_W@2@@std@@QAEAAV12@QB_WI@Z 00623f40 f i libcpmtd:wlocale.obj
 0001:00223010       ?assign@?$_Char_traits@GG@std@@SAPAGQAGIG@Z 00624010 f i libcpmtd:wlocale.obj
 0001:00223060       ?assign@?$_Char_traits@GG@std@@SAXAAGABG@Z 00624060 f i libcpmtd:wlocale.obj
 0001:00223080       ?assign@?$_Char_traits@_WG@std@@SAPA_WQA_WI_W@Z 00624080 f i libcpmtd:wlocale.obj
 0001:002230d0       ?assign@?$_Char_traits@_WG@std@@SAXAA_WAB_W@Z 006240d0 f i libcpmtd:wlocale.obj
 0001:002230f0       ?assign@?$_WChar_traits@G@std@@SAPAGQAGIG@Z 006240f0 f i libcpmtd:wlocale.obj
 0001:00223140       ?assign@?$_WChar_traits@G@std@@SAXAAGABG@Z 00624140 f i libcpmtd:wlocale.obj
 0001:00223180       ?assign@?$_WChar_traits@_W@std@@SAPA_WQA_WI_W@Z 00624180 f i libcpmtd:wlocale.obj
 0001:002231d0       ?assign@?$_WChar_traits@_W@std@@SAXAA_WAB_W@Z 006241d0 f i libcpmtd:wlocale.obj
 0001:00223210       ?assign@?$basic_string@GU?$char_traits@G@std@@V?$allocator@G@2@@std@@QAEAAV12@$$QAV12@@Z 00624210 f i libcpmtd:wlocale.obj
 0001:00223240       ?assign@?$basic_string@_WU?$char_traits@_W@std@@V?$allocator@_W@2@@std@@QAEAAV12@$$QAV12@@Z 00624240 f i libcpmtd:wlocale.obj
 0001:00223270       ?begin@?$basic_string@GU?$char_traits@G@std@@V?$allocator@G@2@@std@@QAE?AV?$_String_iterator@V?$_String_val@U?$_Simple_types@G@std@@@std@@@2@XZ 00624270 f i libcpmtd:wlocale.obj
 0001:002232d0       ?begin@?$basic_string@_WU?$char_traits@_W@std@@V?$allocator@_W@2@@std@@QAE?AV?$_String_iterator@V?$_String_val@U?$_Simple_types@_W@std@@@std@@@2@XZ 006242d0 f i libcpmtd:wlocale.obj
 0001:00223330       ?c_str@?$basic_string@GU?$char_traits@G@std@@V?$allocator@G@2@@std@@QBEPBGXZ 00624330 f i libcpmtd:wlocale.obj
 0001:00223350       ?c_str@?$basic_string@_WU?$char_traits@_W@std@@V?$allocator@_W@2@@std@@QBEPB_WXZ 00624350 f i libcpmtd:wlocale.obj
 0001:00223370       ?copy@?$_Char_traits@GG@std@@SAPAGQAGQBGI@Z 00624370 f i libcpmtd:wlocale.obj
 0001:002233f0       ?copy@?$_Char_traits@_WG@std@@SAPA_WQA_WQB_WI@Z 006243f0 f i libcpmtd:wlocale.obj
 0001:00223470       ?curr_symbol@?$_Mpunct@G@std@@QBE?AV?$basic_string@GU?$char_traits@G@std@@V?$allocator@G@2@@2@XZ 00624470 f i libcpmtd:wlocale.obj
 0001:002234d0       ?curr_symbol@?$_Mpunct@_W@std@@QBE?AV?$basic_string@_WU?$char_traits@_W@std@@V?$allocator@_W@2@@2@XZ 006244d0 f i libcpmtd:wlocale.obj
 0001:00223530       ?date_order@?$time_get@GV?$istreambuf_iterator@GU?$char_traits@G@std@@@std@@@std@@QBE?AW4dateorder@time_base@2@XZ 00624530 f i libcpmtd:wlocale.obj
 0001:00223560       ?date_order@?$time_get@_WV?$istreambuf_iterator@_WU?$char_traits@_W@std@@@std@@@std@@QBE?AW4dateorder@time_base@2@XZ 00624560 f i libcpmtd:wlocale.obj
 0001:00223590       ?deallocate@?$allocator@G@std@@QAEXQAGI@Z 00624590 f i libcpmtd:wlocale.obj
 0001:00223610       ?deallocate@?$allocator@_W@std@@QAEXQA_WI@Z 00624610 f i libcpmtd:wlocale.obj
 0001:00223690       ?decimal_point@?$_Mpunct@G@std@@QBEGXZ 00624690 f i libcpmtd:wlocale.obj
 0001:002236c0       ?decimal_point@?$_Mpunct@_W@std@@QBE_WXZ 006246c0 f i libcpmtd:wlocale.obj
 0001:002236f0       ?decimal_point@?$numpunct@G@std@@QBEGXZ 006246f0 f i libcpmtd:wlocale.obj
 0001:00223720       ?decimal_point@?$numpunct@_W@std@@QBE_WXZ 00624720 f i libcpmtd:wlocale.obj
 0001:00223750       ?do_always_noconv@?$codecvt@GDU_Mbstatet@@@std@@MBE_NXZ 00624750 f i libcpmtd:wlocale.obj
 0001:00223760       ?do_always_noconv@?$codecvt@_WDU_Mbstatet@@@std@@MBE_NXZ 00624760 f i libcpmtd:wlocale.obj
 0001:00223770       ?do_close@?$messages@G@std@@MBEXH@Z 00624770 f i libcpmtd:wlocale.obj
 0001:00223780       ?do_close@?$messages@_W@std@@MBEXH@Z 00624780 f i libcpmtd:wlocale.obj
 0001:00223790       ?do_compare@?$collate@G@std@@MBEHPBG000@Z 00624790 f i libcpmtd:wlocale.obj
 0001:00223830       ?do_compare@?$collate@_W@std@@MBEHPB_W000@Z 00624830 f i libcpmtd:wlocale.obj
 0001:002238d0       ?do_curr_symbol@?$_Mpunct@G@std@@MBE?AV?$basic_string@GU?$char_traits@G@std@@V?$allocator@G@2@@2@XZ 006248d0 f i libcpmtd:wlocale.obj
 0001:00223910       ?do_curr_symbol@?$_Mpunct@_W@std@@MBE?AV?$basic_string@_WU?$char_traits@_W@std@@V?$allocator@_W@2@@2@XZ 00624910 f i libcpmtd:wlocale.obj
 0001:00223950       ?do_date_order@?$time_get@GV?$istreambuf_iterator@GU?$char_traits@G@std@@@std@@@std@@MBE?AW4dateorder@time_base@2@XZ 00624950 f i libcpmtd:wlocale.obj
 0001:00223970       ?do_date_order@?$time_get@_WV?$istreambuf_iterator@_WU?$char_traits@_W@std@@@std@@@std@@MBE?AW4dateorder@time_base@2@XZ 00624970 f i libcpmtd:wlocale.obj
 0001:00223990       ?do_decimal_point@?$_Mpunct@G@std@@MBEGXZ 00624990 f i libcpmtd:wlocale.obj
 0001:002239b0       ?do_decimal_point@?$_Mpunct@_W@std@@MBE_WXZ 006249b0 f i libcpmtd:wlocale.obj
 0001:002239d0       ?do_decimal_point@?$numpunct@G@std@@MBEGXZ 006249d0 f i libcpmtd:wlocale.obj
 0001:002239f0       ?do_decimal_point@?$numpunct@_W@std@@MBE_WXZ 006249f0 f i libcpmtd:wlocale.obj
 0001:00223a10       ?do_encoding@?$codecvt@GDU_Mbstatet@@@std@@MBEHXZ 00624a10 f i libcpmtd:wlocale.obj
 0001:00223a50       ?do_encoding@?$codecvt@_WDU_Mbstatet@@@std@@MBEHXZ 00624a50 f i libcpmtd:wlocale.obj
 0001:00223a90       ?do_falsename@?$numpunct@G@std@@MBE?AV?$basic_string@GU?$char_traits@G@std@@V?$allocator@G@2@@2@XZ 00624a90 f i libcpmtd:wlocale.obj
 0001:00223ad0       ?do_falsename@?$numpunct@_W@std@@MBE?AV?$basic_string@_WU?$char_traits@_W@std@@V?$allocator@_W@2@@2@XZ 00624ad0 f i libcpmtd:wlocale.obj
 0001:00223b10       ?do_frac_digits@?$_Mpunct@G@std@@MBEHXZ 00624b10 f i libcpmtd:wlocale.obj
 0001:00223b30       ?do_frac_digits@?$_Mpunct@_W@std@@MBEHXZ 00624b30 f i libcpmtd:wlocale.obj
 0001:00223b50       ?do_get@?$messages@G@std@@MBE?AV?$basic_string@GU?$char_traits@G@std@@V?$allocator@G@2@@2@HHHABV32@@Z 00624b50 f i libcpmtd:wlocale.obj
 0001:00223b90       ?do_get@?$messages@_W@std@@MBE?AV?$basic_string@_WU?$char_traits@_W@std@@V?$allocator@_W@2@@2@HHHABV32@@Z 00624b90 f i libcpmtd:wlocale.obj
 0001:00223bd0       ?do_get@?$money_get@GV?$istreambuf_iterator@GU?$char_traits@G@std@@@std@@@std@@MBE?AV?$istreambuf_iterator@GU?$char_traits@G@std@@@2@V32@0_NAAVios_base@2@AAHAAO@Z 00624bd0 f i libcpmtd:wlocale.obj
 0001:00223d40       ?do_get@?$money_get@GV?$istreambuf_iterator@GU?$char_traits@G@std@@@std@@@std@@MBE?AV?$istreambuf_iterator@GU?$char_traits@G@std@@@2@V32@0_NAAVios_base@2@AAHAAV?$basic_string@GU?$char_traits@G@std@@V?$allocator@G@2@@2@@Z 00624d40 f i libcpmtd:wlocale.obj
 0001:00223f10       ?do_get@?$money_get@_WV?$istreambuf_iterator@_WU?$char_traits@_W@std@@@std@@@std@@MBE?AV?$istreambuf_iterator@_WU?$char_traits@_W@std@@@2@V32@0_NAAVios_base@2@AAHAAO@Z 00624f10 f i libcpmtd:wlocale.obj
 0001:00224080       ?do_get@?$money_get@_WV?$istreambuf_iterator@_WU?$char_traits@_W@std@@@std@@@std@@MBE?AV?$istreambuf_iterator@_WU?$char_traits@_W@std@@@2@V32@0_NAAVios_base@2@AAHAAV?$basic_string@_WU?$char_traits@_W@std@@V?$allocator@_W@2@@2@@Z 00625080 f i libcpmtd:wlocale.obj
 0001:00224250       ?do_get@?$num_get@GV?$istreambuf_iterator@GU?$char_traits@G@std@@@std@@@std@@MBE?AV?$istreambuf_iterator@GU?$char_traits@G@std@@@2@V32@0AAVios_base@2@AAHAAG@Z 00625250 f i libcpmtd:wlocale.obj
 0001:00224480       ?do_get@?$num_get@GV?$istreambuf_iterator@GU?$char_traits@G@std@@@std@@@std@@MBE?AV?$istreambuf_iterator@GU?$char_traits@G@std@@@2@V32@0AAVios_base@2@AAHAAI@Z 00625480 f i libcpmtd:wlocale.obj
 0001:00224500       ?do_get@?$num_get@GV?$istreambuf_iterator@GU?$char_traits@G@std@@@std@@@std@@MBE?AV?$istreambuf_iterator@GU?$char_traits@G@std@@@2@V32@0AAVios_base@2@AAHAAJ@Z 00625500 f i libcpmtd:wlocale.obj
 0001:002246a0       ?do_get@?$num_get@GV?$istreambuf_iterator@GU?$char_traits@G@std@@@std@@@std@@MBE?AV?$istreambuf_iterator@GU?$char_traits@G@std@@@2@V32@0AAVios_base@2@AAHAAK@Z 006256a0 f i libcpmtd:wlocale.obj
 0001:00224840       ?do_get@?$num_get@GV?$istreambuf_iterator@GU?$char_traits@G@std@@@std@@@std@@MBE?AV?$istreambuf_iterator@GU?$char_traits@G@std@@@2@V32@0AAVios_base@2@AAHAAM@Z 00625840 f i libcpmtd:wlocale.obj
 0001:00224a00       ?do_get@?$num_get@GV?$istreambuf_iterator@GU?$char_traits@G@std@@@std@@@std@@MBE?AV?$istreambuf_iterator@GU?$char_traits@G@std@@@2@V32@0AAVios_base@2@AAHAAN@Z 00625a00 f i libcpmtd:wlocale.obj
 0001:00224bc0       ?do_get@?$num_get@GV?$istreambuf_iterator@GU?$char_traits@G@std@@@std@@@std@@MBE?AV?$istreambuf_iterator@GU?$char_traits@G@std@@@2@V32@0AAVios_base@2@AAHAAO@Z 00625bc0 f i libcpmtd:wlocale.obj
 0001:00224c40       ?do_get@?$num_get@GV?$istreambuf_iterator@GU?$char_traits@G@std@@@std@@@std@@MBE?AV?$istreambuf_iterator@GU?$char_traits@G@std@@@2@V32@0AAVios_base@2@AAHAAPAX@Z 00625c40 f i libcpmtd:wlocale.obj
 0001:00224de0       ?do_get@?$num_get@GV?$istreambuf_iterator@GU?$char_traits@G@std@@@std@@@std@@MBE?AV?$istreambuf_iterator@GU?$char_traits@G@std@@@2@V32@0AAVios_base@2@AAHAA_J@Z 00625de0 f i libcpmtd:wlocale.obj
 0001:00224f80       ?do_get@?$num_get@GV?$istreambuf_iterator@GU?$char_traits@G@std@@@std@@@std@@MBE?AV?$istreambuf_iterator@GU?$char_traits@G@std@@@2@V32@0AAVios_base@2@AAHAA_K@Z 00625f80 f i libcpmtd:wlocale.obj
 0001:00225120       ?do_get@?$num_get@GV?$istreambuf_iterator@GU?$char_traits@G@std@@@std@@@std@@MBE?AV?$istreambuf_iterator@GU?$char_traits@G@std@@@2@V32@0AAVios_base@2@AAHAA_N@Z 00626120 f i libcpmtd:wlocale.obj
 0001:00225530       ?do_get@?$num_get@_WV?$istreambuf_iterator@_WU?$char_traits@_W@std@@@std@@@std@@MBE?AV?$istreambuf_iterator@_WU?$char_traits@_W@std@@@2@V32@0AAVios_base@2@AAHAAG@Z 00626530 f i libcpmtd:wlocale.obj
 0001:00225760       ?do_get@?$num_get@_WV?$istreambuf_iterator@_WU?$char_traits@_W@std@@@std@@@std@@MBE?AV?$istreambuf_iterator@_WU?$char_traits@_W@std@@@2@V32@0AAVios_base@2@AAHAAI@Z 00626760 f i libcpmtd:wlocale.obj
 0001:002257e0       ?do_get@?$num_get@_WV?$istreambuf_iterator@_WU?$char_traits@_W@std@@@std@@@std@@MBE?AV?$istreambuf_iterator@_WU?$char_traits@_W@std@@@2@V32@0AAVios_base@2@AAHAAJ@Z 006267e0 f i libcpmtd:wlocale.obj
 0001:00225980       ?do_get@?$num_get@_WV?$istreambuf_iterator@_WU?$char_traits@_W@std@@@std@@@std@@MBE?AV?$istreambuf_iterator@_WU?$char_traits@_W@std@@@2@V32@0AAVios_base@2@AAHAAK@Z 00626980 f i libcpmtd:wlocale.obj
 0001:00225b20       ?do_get@?$num_get@_WV?$istreambuf_iterator@_WU?$char_traits@_W@std@@@std@@@std@@MBE?AV?$istreambuf_iterator@_WU?$char_traits@_W@std@@@2@V32@0AAVios_base@2@AAHAAM@Z 00626b20 f i libcpmtd:wlocale.obj
 0001:00225ce0       ?do_get@?$num_get@_WV?$istreambuf_iterator@_WU?$char_traits@_W@std@@@std@@@std@@MBE?AV?$istreambuf_iterator@_WU?$char_traits@_W@std@@@2@V32@0AAVios_base@2@AAHAAN@Z 00626ce0 f i libcpmtd:wlocale.obj
 0001:00225ea0       ?do_get@?$num_get@_WV?$istreambuf_iterator@_WU?$char_traits@_W@std@@@std@@@std@@MBE?AV?$istreambuf_iterator@_WU?$char_traits@_W@std@@@2@V32@0AAVios_base@2@AAHAAO@Z 00626ea0 f i libcpmtd:wlocale.obj
 0001:00225f20       ?do_get@?$num_get@_WV?$istreambuf_iterator@_WU?$char_traits@_W@std@@@std@@@std@@MBE?AV?$istreambuf_iterator@_WU?$char_traits@_W@std@@@2@V32@0AAVios_base@2@AAHAAPAX@Z 00626f20 f i libcpmtd:wlocale.obj
 0001:002260c0       ?do_get@?$num_get@_WV?$istreambuf_iterator@_WU?$char_traits@_W@std@@@std@@@std@@MBE?AV?$istreambuf_iterator@_WU?$char_traits@_W@std@@@2@V32@0AAVios_base@2@AAHAA_J@Z 006270c0 f i libcpmtd:wlocale.obj
 0001:00226260       ?do_get@?$num_get@_WV?$istreambuf_iterator@_WU?$char_traits@_W@std@@@std@@@std@@MBE?AV?$istreambuf_iterator@_WU?$char_traits@_W@std@@@2@V32@0AAVios_base@2@AAHAA_K@Z 00627260 f i libcpmtd:wlocale.obj
 0001:00226400       ?do_get@?$num_get@_WV?$istreambuf_iterator@_WU?$char_traits@_W@std@@@std@@@std@@MBE?AV?$istreambuf_iterator@_WU?$char_traits@_W@std@@@2@V32@0AAVios_base@2@AAHAA_N@Z 00627400 f i libcpmtd:wlocale.obj
 0001:00226810       ?do_get@?$time_get@GV?$istreambuf_iterator@GU?$char_traits@G@std@@@std@@@std@@MBE?AV?$istreambuf_iterator@GU?$char_traits@G@std@@@2@V32@0AAVios_base@2@AAHPAUtm@@DD@Z 00627810 f i libcpmtd:wlocale.obj
 0001:002271f0       ?do_get@?$time_get@_WV?$istreambuf_iterator@_WU?$char_traits@_W@std@@@std@@@std@@MBE?AV?$istreambuf_iterator@_WU?$char_traits@_W@std@@@2@V32@0AAVios_base@2@AAHPAUtm@@DD@Z 006281f0 f i libcpmtd:wlocale.obj
 0001:00227bd0       ?do_get_date@?$time_get@GV?$istreambuf_iterator@GU?$char_traits@G@std@@@std@@@std@@MBE?AV?$istreambuf_iterator@GU?$char_traits@G@std@@@2@V32@0AAVios_base@2@AAHPAUtm@@@Z 00628bd0 f i libcpmtd:wlocale.obj
 0001:00228380       ?do_get_date@?$time_get@_WV?$istreambuf_iterator@_WU?$char_traits@_W@std@@@std@@@std@@MBE?AV?$istreambuf_iterator@_WU?$char_traits@_W@std@@@2@V32@0AAVios_base@2@AAHPAUtm@@@Z 00629380 f i libcpmtd:wlocale.obj
 0001:00228b30       ?do_get_monthname@?$time_get@GV?$istreambuf_iterator@GU?$char_traits@G@std@@@std@@@std@@MBE?AV?$istreambuf_iterator@GU?$char_traits@G@std@@@2@V32@0AAVios_base@2@AAHPAUtm@@@Z 00629b30 f i libcpmtd:wlocale.obj
 0001:00228bb0       ?do_get_monthname@?$time_get@_WV?$istreambuf_iterator@_WU?$char_traits@_W@std@@@std@@@std@@MBE?AV?$istreambuf_iterator@_WU?$char_traits@_W@std@@@2@V32@0AAVios_base@2@AAHPAUtm@@@Z 00629bb0 f i libcpmtd:wlocale.obj
 0001:00228c30       ?do_get_time@?$time_get@GV?$istreambuf_iterator@GU?$char_traits@G@std@@@std@@@std@@MBE?AV?$istreambuf_iterator@GU?$char_traits@G@std@@@2@V32@0AAVios_base@2@AAHPAUtm@@@Z 00629c30 f i libcpmtd:wlocale.obj
 0001:00228e40       ?do_get_time@?$time_get@_WV?$istreambuf_iterator@_WU?$char_traits@_W@std@@@std@@@std@@MBE?AV?$istreambuf_iterator@_WU?$char_traits@_W@std@@@2@V32@0AAVios_base@2@AAHPAUtm@@@Z 00629e40 f i libcpmtd:wlocale.obj
 0001:00229050       ?do_get_weekday@?$time_get@GV?$istreambuf_iterator@GU?$char_traits@G@std@@@std@@@std@@MBE?AV?$istreambuf_iterator@GU?$char_traits@G@std@@@2@V32@0AAVios_base@2@AAHPAUtm@@@Z 0062a050 f i libcpmtd:wlocale.obj
 0001:002290d0       ?do_get_weekday@?$time_get@_WV?$istreambuf_iterator@_WU?$char_traits@_W@std@@@std@@@std@@MBE?AV?$istreambuf_iterator@_WU?$char_traits@_W@std@@@2@V32@0AAVios_base@2@AAHPAUtm@@@Z 0062a0d0 f i libcpmtd:wlocale.obj
 0001:00229150       ?do_get_year@?$time_get@GV?$istreambuf_iterator@GU?$char_traits@G@std@@@std@@@std@@MBE?AV?$istreambuf_iterator@GU?$char_traits@G@std@@@2@V32@0AAVios_base@2@AAHPAUtm@@@Z 0062a150 f i libcpmtd:wlocale.obj
 0001:002292a0       ?do_get_year@?$time_get@_WV?$istreambuf_iterator@_WU?$char_traits@_W@std@@@std@@@std@@MBE?AV?$istreambuf_iterator@_WU?$char_traits@_W@std@@@2@V32@0AAVios_base@2@AAHPAUtm@@@Z 0062a2a0 f i libcpmtd:wlocale.obj
 0001:002293f0       ?do_grouping@?$_Mpunct@G@std@@MBE?AV?$basic_string@DU?$char_traits@D@std@@V?$allocator@D@2@@2@XZ 0062a3f0 f i libcpmtd:wlocale.obj
 0001:00229430       ?do_grouping@?$_Mpunct@_W@std@@MBE?AV?$basic_string@DU?$char_traits@D@std@@V?$allocator@D@2@@2@XZ 0062a430 f i libcpmtd:wlocale.obj
 0001:00229470       ?do_grouping@?$numpunct@G@std@@MBE?AV?$basic_string@DU?$char_traits@D@std@@V?$allocator@D@2@@2@XZ 0062a470 f i libcpmtd:wlocale.obj
 0001:002294b0       ?do_grouping@?$numpunct@_W@std@@MBE?AV?$basic_string@DU?$char_traits@D@std@@V?$allocator@D@2@@2@XZ 0062a4b0 f i libcpmtd:wlocale.obj
 0001:002294f0       ?do_hash@?$collate@G@std@@MBEJPBG0@Z 0062a4f0 f i libcpmtd:wlocale.obj
 0001:00229530       ?do_hash@?$collate@_W@std@@MBEJPB_W0@Z 0062a530 f i libcpmtd:wlocale.obj
 0001:00229570       ?do_in@?$codecvt@GDU_Mbstatet@@@std@@MBEHAAU_Mbstatet@@PBD1AAPBDPAG3AAPAG@Z 0062a570 f i libcpmtd:wlocale.obj
 0001:00229690       ?do_in@?$codecvt@_WDU_Mbstatet@@@std@@MBEHAAU_Mbstatet@@PBD1AAPBDPA_W3AAPA_W@Z 0062a690 f i libcpmtd:wlocale.obj
 0001:002297b0       ?do_is@?$ctype@G@std@@MBEPBGPBG0PAF@Z 0062a7b0 f i libcpmtd:wlocale.obj
 0001:00229800       ?do_is@?$ctype@G@std@@MBE_NFG@Z 0062a800 f i libcpmtd:wlocale.obj
 0001:00229860       ?do_is@?$ctype@_W@std@@MBEPB_WPB_W0PAF@Z 0062a860 f i libcpmtd:wlocale.obj
 0001:002298b0       ?do_is@?$ctype@_W@std@@MBE_NF_W@Z 0062a8b0 f i libcpmtd:wlocale.obj
 0001:00229910       ?do_length@?$codecvt@GDU_Mbstatet@@@std@@MBEHAAU_Mbstatet@@PBD1I@Z 0062a910 f i libcpmtd:wlocale.obj
 0001:002299e0       ?do_length@?$codecvt@_WDU_Mbstatet@@@std@@MBEHAAU_Mbstatet@@PBD1I@Z 0062a9e0 f i libcpmtd:wlocale.obj
 0001:00229ab0       ?do_max_length@?$codecvt@GDU_Mbstatet@@@std@@MBEHXZ 0062aab0 f i libcpmtd:wlocale.obj
 0001:00229ad0       ?do_max_length@?$codecvt@_WDU_Mbstatet@@@std@@MBEHXZ 0062aad0 f i libcpmtd:wlocale.obj
 0001:00229af0       ?do_narrow@?$ctype@G@std@@MBEDGD@Z 0062aaf0 f i libcpmtd:wlocale.obj
 0001:00229b20       ?do_narrow@?$ctype@G@std@@MBEPBGPBG0DPAD@Z 0062ab20 f i libcpmtd:wlocale.obj
 0001:00229b90       ?do_narrow@?$ctype@_W@std@@MBED_WD@Z 0062ab90 f i libcpmtd:wlocale.obj
 0001:00229bc0       ?do_narrow@?$ctype@_W@std@@MBEPB_WPB_W0DPAD@Z 0062abc0 f i libcpmtd:wlocale.obj
 0001:00229c30       ?do_neg_format@?$_Mpunct@G@std@@MBE?AUpattern@money_base@2@XZ 0062ac30 f i libcpmtd:wlocale.obj
 0001:00229c60       ?do_neg_format@?$_Mpunct@_W@std@@MBE?AUpattern@money_base@2@XZ 0062ac60 f i libcpmtd:wlocale.obj
 0001:00229c90       ?do_negative_sign@?$_Mpunct@G@std@@MBE?AV?$basic_string@GU?$char_traits@G@std@@V?$allocator@G@2@@2@XZ 0062ac90 f i libcpmtd:wlocale.obj
 0001:00229cd0       ?do_negative_sign@?$_Mpunct@_W@std@@MBE?AV?$basic_string@_WU?$char_traits@_W@std@@V?$allocator@_W@2@@2@XZ 0062acd0 f i libcpmtd:wlocale.obj
 0001:00229d10       ?do_open@?$messages@G@std@@MBEHABV?$basic_string@DU?$char_traits@D@std@@V?$allocator@D@2@@2@ABVlocale@2@@Z 0062ad10 f i libcpmtd:wlocale.obj
 0001:00229d30       ?do_open@?$messages@_W@std@@MBEHABV?$basic_string@DU?$char_traits@D@std@@V?$allocator@D@2@@2@ABVlocale@2@@Z 0062ad30 f i libcpmtd:wlocale.obj
 0001:00229d50       ?do_out@?$codecvt@GDU_Mbstatet@@@std@@MBEHAAU_Mbstatet@@PBG1AAPBGPAD3AAPAD@Z 0062ad50 f i libcpmtd:wlocale.obj
 0001:00229f40       ?do_out@?$codecvt@_WDU_Mbstatet@@@std@@MBEHAAU_Mbstatet@@PB_W1AAPB_WPAD3AAPAD@Z 0062af40 f i libcpmtd:wlocale.obj
 0001:0022a130       ?do_pos_format@?$_Mpunct@G@std@@MBE?AUpattern@money_base@2@XZ 0062b130 f i libcpmtd:wlocale.obj
 0001:0022a160       ?do_pos_format@?$_Mpunct@_W@std@@MBE?AUpattern@money_base@2@XZ 0062b160 f i libcpmtd:wlocale.obj
 0001:0022a190       ?do_positive_sign@?$_Mpunct@G@std@@MBE?AV?$basic_string@GU?$char_traits@G@std@@V?$allocator@G@2@@2@XZ 0062b190 f i libcpmtd:wlocale.obj
 0001:0022a1d0       ?do_positive_sign@?$_Mpunct@_W@std@@MBE?AV?$basic_string@_WU?$char_traits@_W@std@@V?$allocator@_W@2@@2@XZ 0062b1d0 f i libcpmtd:wlocale.obj
 0001:0022a210       ?do_put@?$money_put@GV?$ostreambuf_iterator@GU?$char_traits@G@std@@@std@@@std@@MBE?AV?$ostreambuf_iterator@GU?$char_traits@G@std@@@2@V32@_NAAVios_base@2@GABV?$basic_string@GU?$char_traits@G@std@@V?$allocator@G@2@@2@@Z 0062b210 f i libcpmtd:wlocale.obj
 0001:0022a480       ?do_put@?$money_put@GV?$ostreambuf_iterator@GU?$char_traits@G@std@@@std@@@std@@MBE?AV?$ostreambuf_iterator@GU?$char_traits@G@std@@@2@V32@_NAAVios_base@2@GO@Z 0062b480 f i libcpmtd:wlocale.obj
 0001:0022a6c0       ?do_put@?$money_put@_WV?$ostreambuf_iterator@_WU?$char_traits@_W@std@@@std@@@std@@MBE?AV?$ostreambuf_iterator@_WU?$char_traits@_W@std@@@2@V32@_NAAVios_base@2@_WABV?$basic_string@_WU?$char_traits@_W@std@@V?$allocator@_W@2@@2@@Z 0062b6c0 f i libcpmtd:wlocale.obj
 0001:0022a930       ?do_put@?$money_put@_WV?$ostreambuf_iterator@_WU?$char_traits@_W@std@@@std@@@std@@MBE?AV?$ostreambuf_iterator@_WU?$char_traits@_W@std@@@2@V32@_NAAVios_base@2@_WO@Z 0062b930 f i libcpmtd:wlocale.obj
 0001:0022ab70       ?do_put@?$num_put@GV?$ostreambuf_iterator@GU?$char_traits@G@std@@@std@@@std@@MBE?AV?$ostreambuf_iterator@GU?$char_traits@G@std@@@2@V32@AAVios_base@2@GJ@Z 0062bb70 f i libcpmtd:wlocale.obj
 0001:0022ac10       ?do_put@?$num_put@GV?$ostreambuf_iterator@GU?$char_traits@G@std@@@std@@@std@@MBE?AV?$ostreambuf_iterator@GU?$char_traits@G@std@@@2@V32@AAVios_base@2@GK@Z 0062bc10 f i libcpmtd:wlocale.obj
 0001:0022acb0       ?do_put@?$num_put@GV?$ostreambuf_iterator@GU?$char_traits@G@std@@@std@@@std@@MBE?AV?$ostreambuf_iterator@GU?$char_traits@G@std@@@2@V32@AAVios_base@2@GN@Z 0062bcb0 f i libcpmtd:wlocale.obj
 0001:0022af80       ?do_put@?$num_put@GV?$ostreambuf_iterator@GU?$char_traits@G@std@@@std@@@std@@MBE?AV?$ostreambuf_iterator@GU?$char_traits@G@std@@@2@V32@AAVios_base@2@GO@Z 0062bf80 f i libcpmtd:wlocale.obj
 0001:0022b250       ?do_put@?$num_put@GV?$ostreambuf_iterator@GU?$char_traits@G@std@@@std@@@std@@MBE?AV?$ostreambuf_iterator@GU?$char_traits@G@std@@@2@V32@AAVios_base@2@GPBX@Z 0062c250 f i libcpmtd:wlocale.obj
 0001:0022b2d0       ?do_put@?$num_put@GV?$ostreambuf_iterator@GU?$char_traits@G@std@@@std@@@std@@MBE?AV?$ostreambuf_iterator@GU?$char_traits@G@std@@@2@V32@AAVios_base@2@G_J@Z 0062c2d0 f i libcpmtd:wlocale.obj
 0001:0022b380       ?do_put@?$num_put@GV?$ostreambuf_iterator@GU?$char_traits@G@std@@@std@@@std@@MBE?AV?$ostreambuf_iterator@GU?$char_traits@G@std@@@2@V32@AAVios_base@2@G_K@Z 0062c380 f i libcpmtd:wlocale.obj
 0001:0022b430       ?do_put@?$num_put@GV?$ostreambuf_iterator@GU?$char_traits@G@std@@@std@@@std@@MBE?AV?$ostreambuf_iterator@GU?$char_traits@G@std@@@2@V32@AAVios_base@2@G_N@Z 0062c430 f i libcpmtd:wlocale.obj
 0001:0022b760       ?do_put@?$num_put@_WV?$ostreambuf_iterator@_WU?$char_traits@_W@std@@@std@@@std@@MBE?AV?$ostreambuf_iterator@_WU?$char_traits@_W@std@@@2@V32@AAVios_base@2@_WJ@Z 0062c760 f i libcpmtd:wlocale.obj
 0001:0022b800       ?do_put@?$num_put@_WV?$ostreambuf_iterator@_WU?$char_traits@_W@std@@@std@@@std@@MBE?AV?$ostreambuf_iterator@_WU?$char_traits@_W@std@@@2@V32@AAVios_base@2@_WK@Z 0062c800 f i libcpmtd:wlocale.obj
 0001:0022b8a0       ?do_put@?$num_put@_WV?$ostreambuf_iterator@_WU?$char_traits@_W@std@@@std@@@std@@MBE?AV?$ostreambuf_iterator@_WU?$char_traits@_W@std@@@2@V32@AAVios_base@2@_WN@Z 0062c8a0 f i libcpmtd:wlocale.obj
 0001:0022bb70       ?do_put@?$num_put@_WV?$ostreambuf_iterator@_WU?$char_traits@_W@std@@@std@@@std@@MBE?AV?$ostreambuf_iterator@_WU?$char_traits@_W@std@@@2@V32@AAVios_base@2@_WO@Z 0062cb70 f i libcpmtd:wlocale.obj
 0001:0022be40       ?do_put@?$num_put@_WV?$ostreambuf_iterator@_WU?$char_traits@_W@std@@@std@@@std@@MBE?AV?$ostreambuf_iterator@_WU?$char_traits@_W@std@@@2@V32@AAVios_base@2@_WPBX@Z 0062ce40 f i libcpmtd:wlocale.obj
 0001:0022bec0       ?do_put@?$num_put@_WV?$ostreambuf_iterator@_WU?$char_traits@_W@std@@@std@@@std@@MBE?AV?$ostreambuf_iterator@_WU?$char_traits@_W@std@@@2@V32@AAVios_base@2@_W_J@Z 0062cec0 f i libcpmtd:wlocale.obj
 0001:0022bf70       ?do_put@?$num_put@_WV?$ostreambuf_iterator@_WU?$char_traits@_W@std@@@std@@@std@@MBE?AV?$ostreambuf_iterator@_WU?$char_traits@_W@std@@@2@V32@AAVios_base@2@_W_K@Z 0062cf70 f i libcpmtd:wlocale.obj
 0001:0022c020       ?do_put@?$num_put@_WV?$ostreambuf_iterator@_WU?$char_traits@_W@std@@@std@@@std@@MBE?AV?$ostreambuf_iterator@_WU?$char_traits@_W@std@@@2@V32@AAVios_base@2@_W_N@Z 0062d020 f i libcpmtd:wlocale.obj
 0001:0022c350       ?do_put@?$time_put@GV?$ostreambuf_iterator@GU?$char_traits@G@std@@@std@@@std@@MBE?AV?$ostreambuf_iterator@GU?$char_traits@G@std@@@2@V32@AAVios_base@2@GPBUtm@@DD@Z 0062d350 f i libcpmtd:wlocale.obj
 0001:0022c580       ?do_put@?$time_put@_WV?$ostreambuf_iterator@_WU?$char_traits@_W@std@@@std@@@std@@MBE?AV?$ostreambuf_iterator@_WU?$char_traits@_W@std@@@2@V32@AAVios_base@2@_WPBUtm@@DD@Z 0062d580 f i libcpmtd:wlocale.obj
 0001:0022c7b0       ?do_scan_is@?$ctype@G@std@@MBEPBGFPBG0@Z 0062d7b0 f i libcpmtd:wlocale.obj
 0001:0022c820       ?do_scan_is@?$ctype@_W@std@@MBEPB_WFPB_W0@Z 0062d820 f i libcpmtd:wlocale.obj
 0001:0022c890       ?do_scan_not@?$ctype@G@std@@MBEPBGFPBG0@Z 0062d890 f i libcpmtd:wlocale.obj
 0001:0022c900       ?do_scan_not@?$ctype@_W@std@@MBEPB_WFPB_W0@Z 0062d900 f i libcpmtd:wlocale.obj
 0001:0022c970       ?do_thousands_sep@?$_Mpunct@G@std@@MBEGXZ 0062d970 f i libcpmtd:wlocale.obj
 0001:0022c990       ?do_thousands_sep@?$_Mpunct@_W@std@@MBE_WXZ 0062d990 f i libcpmtd:wlocale.obj
 0001:0022c9b0       ?do_thousands_sep@?$numpunct@G@std@@MBEGXZ 0062d9b0 f i libcpmtd:wlocale.obj
 0001:0022c9d0       ?do_thousands_sep@?$numpunct@_W@std@@MBE_WXZ 0062d9d0 f i libcpmtd:wlocale.obj
 0001:0022c9f0       ?do_tolower@?$ctype@G@std@@MBEGG@Z 0062d9f0 f i libcpmtd:wlocale.obj
 0001:0022ca20       ?do_tolower@?$ctype@G@std@@MBEPBGPAGPBG@Z 0062da20 f i libcpmtd:wlocale.obj
 0001:0022ca90       ?do_tolower@?$ctype@_W@std@@MBEPB_WPA_WPB_W@Z 0062da90 f i libcpmtd:wlocale.obj
 0001:0022cb00       ?do_tolower@?$ctype@_W@std@@MBE_W_W@Z 0062db00 f i libcpmtd:wlocale.obj
 0001:0022cb30       ?do_toupper@?$ctype@G@std@@MBEGG@Z 0062db30 f i libcpmtd:wlocale.obj
 0001:0022cb60       ?do_toupper@?$ctype@G@std@@MBEPBGPAGPBG@Z 0062db60 f i libcpmtd:wlocale.obj
 0001:0022cbd0       ?do_toupper@?$ctype@_W@std@@MBEPB_WPA_WPB_W@Z 0062dbd0 f i libcpmtd:wlocale.obj
 0001:0022cc40       ?do_toupper@?$ctype@_W@std@@MBE_W_W@Z 0062dc40 f i libcpmtd:wlocale.obj
 0001:0022cc70       ?do_transform@?$collate@G@std@@MBE?AV?$basic_string@GU?$char_traits@G@std@@V?$allocator@G@2@@2@PBG0@Z 0062dc70 f i libcpmtd:wlocale.obj
 0001:0022cdc0       ?do_transform@?$collate@_W@std@@MBE?AV?$basic_string@_WU?$char_traits@_W@std@@V?$allocator@_W@2@@2@PB_W0@Z 0062ddc0 f i libcpmtd:wlocale.obj
 0001:0022cf10       ?do_truename@?$numpunct@G@std@@MBE?AV?$basic_string@GU?$char_traits@G@std@@V?$allocator@G@2@@2@XZ 0062df10 f i libcpmtd:wlocale.obj
 0001:0022cf50       ?do_truename@?$numpunct@_W@std@@MBE?AV?$basic_string@_WU?$char_traits@_W@std@@V?$allocator@_W@2@@2@XZ 0062df50 f i libcpmtd:wlocale.obj
 0001:0022cf90       ?do_unshift@?$codecvt@GDU_Mbstatet@@@std@@MBEHAAU_Mbstatet@@PAD1AAPAD@Z 0062df90 f i libcpmtd:wlocale.obj
 0001:0022d0a0       ?do_unshift@?$codecvt@_WDU_Mbstatet@@@std@@MBEHAAU_Mbstatet@@PAD1AAPAD@Z 0062e0a0 f i libcpmtd:wlocale.obj
 0001:0022d1b0       ?do_widen@?$ctype@G@std@@MBEGD@Z 0062e1b0 f i libcpmtd:wlocale.obj
 0001:0022d1d0       ?do_widen@?$ctype@G@std@@MBEPBDPBD0PAG@Z 0062e1d0 f i libcpmtd:wlocale.obj
 0001:0022d240       ?do_widen@?$ctype@_W@std@@MBEPBDPBD0PA_W@Z 0062e240 f i libcpmtd:wlocale.obj
 0001:0022d2b0       ?do_widen@?$ctype@_W@std@@MBE_WD@Z 0062e2b0 f i libcpmtd:wlocale.obj
 0001:0022d2d0       ?empty@?$basic_string@GU?$char_traits@G@std@@V?$allocator@G@2@@std@@QBE_NXZ 0062e2d0 f i libcpmtd:wlocale.obj
 0001:0022d310       ?empty@?$basic_string@_WU?$char_traits@_W@std@@V?$allocator@_W@2@@std@@QBE_NXZ 0062e310 f i libcpmtd:wlocale.obj
 0001:0022d350       ?end@?$basic_string@GU?$char_traits@G@std@@V?$allocator@G@2@@std@@QAE?AV?$_String_iterator@V?$_String_val@U?$_Simple_types@G@std@@@std@@@2@XZ 0062e350 f i libcpmtd:wlocale.obj
 0001:0022d3c0       ?end@?$basic_string@_WU?$char_traits@_W@std@@V?$allocator@_W@2@@std@@QAE?AV?$_String_iterator@V?$_String_val@U?$_Simple_types@_W@std@@@std@@@2@XZ 0062e3c0 f i libcpmtd:wlocale.obj
 0001:0022d430       ?eof@?$_WChar_traits@G@std@@SAGXZ 0062e430 f i libcpmtd:wlocale.obj
 0001:0022d440       ?eof@?$_WChar_traits@_W@std@@SAGXZ 0062e440 f i libcpmtd:wlocale.obj
 0001:0022d450       ?eq_int_type@?$_WChar_traits@G@std@@SA_NGG@Z 0062e450 f i libcpmtd:wlocale.obj
 0001:0022d490       ?eq_int_type@?$_WChar_traits@_W@std@@SA_NGG@Z 0062e490 f i libcpmtd:wlocale.obj
 0001:0022d4d0       ?equal@?$istreambuf_iterator@GU?$char_traits@G@std@@@std@@QBE_NABV12@@Z 0062e4d0 f i libcpmtd:wlocale.obj
 0001:0022d560       ?equal@?$istreambuf_iterator@_WU?$char_traits@_W@std@@@std@@QBE_NABV12@@Z 0062e560 f i libcpmtd:wlocale.obj
 0001:0022d5f0       ?erase@?$basic_string@GU?$char_traits@G@std@@V?$allocator@G@2@@std@@QAEAAV12@I@Z 0062e5f0 f i libcpmtd:wlocale.obj
 0001:0022d630       ?erase@?$basic_string@_WU?$char_traits@_W@std@@V?$allocator@_W@2@@std@@QAEAAV12@I@Z 0062e630 f i libcpmtd:wlocale.obj
 0001:0022d670       ?falsename@?$numpunct@G@std@@QBE?AV?$basic_string@GU?$char_traits@G@std@@V?$allocator@G@2@@2@XZ 0062e670 f i libcpmtd:wlocale.obj
 0001:0022d6d0       ?falsename@?$numpunct@_W@std@@QBE?AV?$basic_string@_WU?$char_traits@_W@std@@V?$allocator@_W@2@@2@XZ 0062e6d0 f i libcpmtd:wlocale.obj
 0001:0022d730       ?frac_digits@?$_Mpunct@G@std@@QBEHXZ 0062e730 f i libcpmtd:wlocale.obj
 0001:0022d760       ?frac_digits@?$_Mpunct@_W@std@@QBEHXZ 0062e760 f i libcpmtd:wlocale.obj
 0001:0022d790       ?get_monthname@?$time_get@GV?$istreambuf_iterator@GU?$char_traits@G@std@@@std@@@std@@QBE?AV?$istreambuf_iterator@GU?$char_traits@G@std@@@2@V32@0AAVios_base@2@AAHPAUtm@@@Z 0062e790 f i libcpmtd:wlocale.obj
 0001:0022d800       ?get_monthname@?$time_get@_WV?$istreambuf_iterator@_WU?$char_traits@_W@std@@@std@@@std@@QBE?AV?$istreambuf_iterator@_WU?$char_traits@_W@std@@@2@V32@0AAVios_base@2@AAHPAUtm@@@Z 0062e800 f i libcpmtd:wlocale.obj
 0001:0022d870       ?get_weekday@?$time_get@GV?$istreambuf_iterator@GU?$char_traits@G@std@@@std@@@std@@QBE?AV?$istreambuf_iterator@GU?$char_traits@G@std@@@2@V32@0AAVios_base@2@AAHPAUtm@@@Z 0062e870 f i libcpmtd:wlocale.obj
 0001:0022d8e0       ?get_weekday@?$time_get@_WV?$istreambuf_iterator@_WU?$char_traits@_W@std@@@std@@@std@@QBE?AV?$istreambuf_iterator@_WU?$char_traits@_W@std@@@2@V32@0AAVios_base@2@AAHPAUtm@@@Z 0062e8e0 f i libcpmtd:wlocale.obj
 0001:0022d950       ?get_year@?$time_get@GV?$istreambuf_iterator@GU?$char_traits@G@std@@@std@@@std@@QBE?AV?$istreambuf_iterator@GU?$char_traits@G@std@@@2@V32@0AAVios_base@2@AAHPAUtm@@@Z 0062e950 f i libcpmtd:wlocale.obj
 0001:0022d9c0       ?get_year@?$time_get@_WV?$istreambuf_iterator@_WU?$char_traits@_W@std@@@std@@@std@@QBE?AV?$istreambuf_iterator@_WU?$char_traits@_W@std@@@2@V32@0AAVios_base@2@AAHPAUtm@@@Z 0062e9c0 f i libcpmtd:wlocale.obj
 0001:0022da30       ?gptr@?$basic_streambuf@GU?$char_traits@G@std@@@std@@IBEPAGXZ 0062ea30 f i libcpmtd:wlocale.obj
 0001:0022da50       ?gptr@?$basic_streambuf@_WU?$char_traits@_W@std@@@std@@IBEPA_WXZ 0062ea50 f i libcpmtd:wlocale.obj
 0001:0022da70       ?grouping@?$_Mpunct@G@std@@QBE?AV?$basic_string@DU?$char_traits@D@std@@V?$allocator@D@2@@2@XZ 0062ea70 f i libcpmtd:wlocale.obj
 0001:0022dad0       ?grouping@?$_Mpunct@_W@std@@QBE?AV?$basic_string@DU?$char_traits@D@std@@V?$allocator@D@2@@2@XZ 0062ead0 f i libcpmtd:wlocale.obj
 0001:0022db30       ?grouping@?$numpunct@G@std@@QBE?AV?$basic_string@DU?$char_traits@D@std@@V?$allocator@D@2@@2@XZ 0062eb30 f i libcpmtd:wlocale.obj
 0001:0022db90       ?grouping@?$numpunct@_W@std@@QBE?AV?$basic_string@DU?$char_traits@D@std@@V?$allocator@D@2@@2@XZ 0062eb90 f i libcpmtd:wlocale.obj
 0001:0022dbf0       ?insert@?$basic_string@GU?$char_traits@G@std@@V?$allocator@G@2@@std@@QAEAAV12@IIG@Z 0062ebf0 f i libcpmtd:wlocale.obj
 0001:0022dcf0       ?insert@?$basic_string@_WU?$char_traits@_W@std@@V?$allocator@_W@2@@std@@QAEAAV12@II_W@Z 0062ecf0 f i libcpmtd:wlocale.obj
 0001:0022ddf0       ?is@?$ctype@G@std@@QBE_NFG@Z 0062edf0 f i libcpmtd:wlocale.obj
 0001:0022de40       ?is@?$ctype@_W@std@@QBE_NF_W@Z 0062ee40 f i libcpmtd:wlocale.obj
 0001:0022de90       ?length@?$_Char_traits@GG@std@@SAIPBG@Z 0062ee90 f i libcpmtd:wlocale.obj
 0001:0022ded0       ?length@?$_WChar_traits@G@std@@SAIPBG@Z 0062eed0 f i libcpmtd:wlocale.obj
 0001:0022df10       ?length@?$_WChar_traits@_W@std@@SAIPB_W@Z 0062ef10 f i libcpmtd:wlocale.obj
 0001:0022df80       ?max_size@?$_Default_allocator_traits@V?$allocator@G@std@@@std@@SAIABV?$allocator@G@2@@Z 0062ef80 f i libcpmtd:wlocale.obj
 0001:0022df90       ?max_size@?$_Default_allocator_traits@V?$allocator@_W@std@@@std@@SAIABV?$allocator@_W@2@@Z 0062ef90 f i libcpmtd:wlocale.obj
 0001:0022dfa0       ?max_size@?$basic_string@GU?$char_traits@G@std@@V?$allocator@G@2@@std@@QBEIXZ 0062efa0 f i libcpmtd:wlocale.obj
 0001:0022e020       ?max_size@?$basic_string@_WU?$char_traits@_W@std@@V?$allocator@_W@2@@std@@QBEIXZ 0062f020 f i libcpmtd:wlocale.obj
 0001:0022e0a0       ?move@?$_Char_traits@GG@std@@SAPAGQAGQBGI@Z 0062f0a0 f i libcpmtd:wlocale.obj
 0001:0022e1b0       ?move@?$_Char_traits@_WG@std@@SAPA_WQA_WQB_WI@Z 0062f1b0 f i libcpmtd:wlocale.obj
 0001:0022e2c0       ?name@locale@std@@QBE?AV?$basic_string@DU?$char_traits@D@std@@V?$allocator@D@2@@2@XZ 0062f2c0 f i libcpmtd:wlocale.obj
 0001:0022e3b0       ?narrow@?$ctype@G@std@@QBEDGD@Z 0062f3b0 f i libcpmtd:wlocale.obj
 0001:0022e400       ?narrow@?$ctype@_W@std@@QBED_WD@Z 0062f400 f i libcpmtd:wlocale.obj
 0001:0022e450       ?neg_format@?$_Mpunct@G@std@@QBE?AUpattern@money_base@2@XZ 0062f450 f i libcpmtd:wlocale.obj
 0001:0022e4a0       ?neg_format@?$_Mpunct@_W@std@@QBE?AUpattern@money_base@2@XZ 0062f4a0 f i libcpmtd:wlocale.obj
 0001:0022e4f0       ?negative_sign@?$_Mpunct@G@std@@QBE?AV?$basic_string@GU?$char_traits@G@std@@V?$allocator@G@2@@2@XZ 0062f4f0 f i libcpmtd:wlocale.obj
 0001:0022e550       ?negative_sign@?$_Mpunct@_W@std@@QBE?AV?$basic_string@_WU?$char_traits@_W@std@@V?$allocator@_W@2@@2@XZ 0062f550 f i libcpmtd:wlocale.obj
 0001:0022e5b0       ?pos_format@?$_Mpunct@G@std@@QBE?AUpattern@money_base@2@XZ 0062f5b0 f i libcpmtd:wlocale.obj
 0001:0022e600       ?pos_format@?$_Mpunct@_W@std@@QBE?AUpattern@money_base@2@XZ 0062f600 f i libcpmtd:wlocale.obj
 0001:0022e650       ?positive_sign@?$_Mpunct@G@std@@QBE?AV?$basic_string@GU?$char_traits@G@std@@V?$allocator@G@2@@2@XZ 0062f650 f i libcpmtd:wlocale.obj
 0001:0022e6b0       ?positive_sign@?$_Mpunct@_W@std@@QBE?AV?$basic_string@_WU?$char_traits@_W@std@@V?$allocator@_W@2@@2@XZ 0062f6b0 f i libcpmtd:wlocale.obj
 0001:0022e710       ?push_back@?$basic_string@GU?$char_traits@G@std@@V?$allocator@G@2@@std@@QAEXG@Z 0062f710 f i libcpmtd:wlocale.obj
 0001:0022e7d0       ?push_back@?$basic_string@_WU?$char_traits@_W@std@@V?$allocator@_W@2@@std@@QAEX_W@Z 0062f7d0 f i libcpmtd:wlocale.obj
 0001:0022e890       ?resize@?$basic_string@GU?$char_traits@G@std@@V?$allocator@G@2@@std@@QAEXIG@Z 0062f890 f i libcpmtd:wlocale.obj
 0001:0022e8f0       ?resize@?$basic_string@_WU?$char_traits@_W@std@@V?$allocator@_W@2@@std@@QAEXI_W@Z 0062f8f0 f i libcpmtd:wlocale.obj
 0001:0022e950       ?sbumpc@?$basic_streambuf@GU?$char_traits@G@std@@@std@@QAEGXZ 0062f950 f i libcpmtd:wlocale.obj
 0001:0022e9e0       ?sbumpc@?$basic_streambuf@_WU?$char_traits@_W@std@@@std@@QAEGXZ 0062f9e0 f i libcpmtd:wlocale.obj
 0001:0022ea70       ?select_on_container_copy_construction@?$_Default_allocator_traits@V?$allocator@G@std@@@std@@SA?AV?$allocator@G@2@ABV32@@Z 0062fa70 f i libcpmtd:wlocale.obj
 0001:0022ea80       ?select_on_container_copy_construction@?$_Default_allocator_traits@V?$allocator@_W@std@@@std@@SA?AV?$allocator@_W@2@ABV32@@Z 0062fa80 f i libcpmtd:wlocale.obj
 0001:0022ea90       ?setstate@ios_base@std@@QAEXH@Z 0062fa90 f i libcpmtd:wlocale.obj
 0001:0022eac0       ?sgetc@?$basic_streambuf@GU?$char_traits@G@std@@@std@@QAEGXZ 0062fac0 f i libcpmtd:wlocale.obj
 0001:0022eb50       ?sgetc@?$basic_streambuf@_WU?$char_traits@_W@std@@@std@@QAEGXZ 0062fb50 f i libcpmtd:wlocale.obj
 0001:0022ebe0       ?size@?$basic_string@GU?$char_traits@G@std@@V?$allocator@G@2@@std@@QBEIXZ 0062fbe0 f i libcpmtd:wlocale.obj
 0001:0022ec00       ?size@?$basic_string@_WU?$char_traits@_W@std@@V?$allocator@_W@2@@std@@QBEIXZ 0062fc00 f i libcpmtd:wlocale.obj
 0001:0022ec20       ?sputc@?$basic_streambuf@GU?$char_traits@G@std@@@std@@QAEGG@Z 0062fc20 f i libcpmtd:wlocale.obj
 0001:0022ecd0       ?sputc@?$basic_streambuf@_WU?$char_traits@_W@std@@@std@@QAEG_W@Z 0062fcd0 f i libcpmtd:wlocale.obj
 0001:0022ed80       ?thousands_sep@?$_Mpunct@G@std@@QBEGXZ 0062fd80 f i libcpmtd:wlocale.obj
 0001:0022edb0       ?thousands_sep@?$_Mpunct@_W@std@@QBE_WXZ 0062fdb0 f i libcpmtd:wlocale.obj
 0001:0022ede0       ?thousands_sep@?$numpunct@G@std@@QBEGXZ 0062fde0 f i libcpmtd:wlocale.obj
 0001:0022ee10       ?thousands_sep@?$numpunct@_W@std@@QBE_WXZ 0062fe10 f i libcpmtd:wlocale.obj
 0001:0022ee40       ?to_char_type@?$_WChar_traits@G@std@@SAGG@Z 0062fe40 f i libcpmtd:wlocale.obj
 0001:0022ee50       ?to_char_type@?$_WChar_traits@_W@std@@SA_WG@Z 0062fe50 f i libcpmtd:wlocale.obj
 0001:0022ee60       ?to_int_type@?$_WChar_traits@G@std@@SAGG@Z 0062fe60 f i libcpmtd:wlocale.obj
 0001:0022ee70       ?to_int_type@?$_WChar_traits@_W@std@@SAG_W@Z 0062fe70 f i libcpmtd:wlocale.obj
 0001:0022ee80       ?tolower@?$ctype@G@std@@QBEGG@Z 0062fe80 f i libcpmtd:wlocale.obj
 0001:0022eed0       ?tolower@?$ctype@_W@std@@QBE_W_W@Z 0062fed0 f i libcpmtd:wlocale.obj
 0001:0022ef20       ?truename@?$numpunct@G@std@@QBE?AV?$basic_string@GU?$char_traits@G@std@@V?$allocator@G@2@@2@XZ 0062ff20 f i libcpmtd:wlocale.obj
 0001:0022ef80       ?truename@?$numpunct@_W@std@@QBE?AV?$basic_string@_WU?$char_traits@_W@std@@V?$allocator@_W@2@@2@XZ 0062ff80 f i libcpmtd:wlocale.obj
 0001:0022efe0       ?widen@?$ctype@G@std@@QBEGD@Z 0062ffe0 f i libcpmtd:wlocale.obj
 0001:0022f030       ?widen@?$ctype@G@std@@QBEPBDPBD0PAG@Z 00630030 f i libcpmtd:wlocale.obj
 0001:0022f080       ?widen@?$ctype@_W@std@@QBEPBDPBD0PA_W@Z 00630080 f i libcpmtd:wlocale.obj
 0001:0022f0d0       ?widen@?$ctype@_W@std@@QBE_WD@Z 006300d0 f i libcpmtd:wlocale.obj
 0001:0022f120       _wmemcpy                   00630120 f i libcpmtd:wlocale.obj
 0001:0022f150       _wmemset                   00630150 f i libcpmtd:wlocale.obj
 0001:0022f1a0       ??$_Copy_unchecked@PADPADV?$ostreambuf_iterator@DU?$char_traits@D@std@@@std@@@std@@YA?AV?$ostreambuf_iterator@DU?$char_traits@D@std@@@0@PAD0V10@@Z 006301a0 f i libcpmtd:xlocale.obj
 0001:0022f210       ??$_Find_elem@D$0M@@std@@YAIAAY0M@$$CBDD@Z 00630210 f i libcpmtd:xlocale.obj
 0001:0022f240       ??$_Get_unwrapped_n@V?$ostreambuf_iterator@DU?$char_traits@D@std@@@std@@H@std@@YA?A_T$$QAV?$ostreambuf_iterator@DU?$char_traits@D@std@@@0@H@Z 00630240 f i libcpmtd:xlocale.obj
 0001:0022f250       ??$_Getint_v2@V?$istreambuf_iterator@DU?$char_traits@D@std@@@std@@D@std@@YAHAAV?$istreambuf_iterator@DU?$char_traits@D@std@@@0@0HHAAH1ABV?$ctype@D@0@@Z 00630250 f i libcpmtd:xlocale.obj
 0001:0022f5e0       ??$_Getvals@D@?$time_get@DV?$istreambuf_iterator@DU?$char_traits@D@std@@@std@@@std@@IAEXDABV_Locinfo@1@@Z 006305e0 f i libcpmtd:xlocale.obj
 0001:0022f6b0       ??$_Hash_array_representation@D@std@@YAIQBDI@Z 006306b0 f i libcpmtd:xlocale.obj
 0001:0022f6d0       ??$_Idl_distance@PADPAD@std@@YA?A_PABQAD0@Z 006306d0 f i libcpmtd:xlocale.obj
 0001:0022f6f0       ??$_LStrcoll@D@std@@YAHPBD000PBU_Collvec@@@Z 006306f0 f i libcpmtd:xlocale.obj
 0001:0022f720       ??$_LStrxfrm@D@std@@YAIPAD0PBD1PBU_Collvec@@@Z 00630720 f i libcpmtd:xlocale.obj
 0001:0022f750       ??$_Refancy@PAD$0A@@std@@YAPADPAD@Z 00630750 f i libcpmtd:xlocale.obj
 0001:0022f760       ??$_Seek_wrapped@V?$ostreambuf_iterator@DU?$char_traits@D@std@@@std@@V12@@std@@YAXAAV?$ostreambuf_iterator@DU?$char_traits@D@std@@@0@$$QAV10@@Z 00630760 f i libcpmtd:xlocale.obj
 0001:0022f780       ??$_Unfancy@$$CBD@std@@YAPBDPBD@Z 00630780 f i libcpmtd:xlocale.obj
 0001:0022f790       ??$addressof@$$CBV?$moneypunct@D$00@std@@@std@@YAPBV?$moneypunct@D$00@0@ABV10@@Z 00630790 f i libcpmtd:xlocale.obj
 0001:0022f7a0       ??$addressof@$$CBV?$moneypunct@D$0A@@std@@@std@@YAPBV?$moneypunct@D$0A@@0@ABV10@@Z 006307a0 f i libcpmtd:xlocale.obj
 0001:0022f7b0       ??$copy@PADV?$ostreambuf_iterator@DU?$char_traits@D@std@@@std@@@std@@YA?AV?$ostreambuf_iterator@DU?$char_traits@D@std@@@0@PAD0V10@@Z 006307b0 f i libcpmtd:xlocale.obj
 0001:0022f870       ??$use_facet@V?$collate@D@std@@@std@@YAABV?$collate@D@0@ABVlocale@0@@Z 00630870 f i libcpmtd:xlocale.obj
 0001:0022f9d0       ??$use_facet@V?$messages@D@std@@@std@@YAABV?$messages@D@0@ABVlocale@0@@Z 006309d0 f i libcpmtd:xlocale.obj
 0001:0022fb30       ??$use_facet@V?$money_get@DV?$istreambuf_iterator@DU?$char_traits@D@std@@@std@@@std@@@std@@YAABV?$money_get@DV?$istreambuf_iterator@DU?$char_traits@D@std@@@std@@@0@ABVlocale@0@@Z 00630b30 f i libcpmtd:xlocale.obj
 0001:0022fc90       ??$use_facet@V?$money_put@DV?$ostreambuf_iterator@DU?$char_traits@D@std@@@std@@@std@@@std@@YAABV?$money_put@DV?$ostreambuf_iterator@DU?$char_traits@D@std@@@std@@@0@ABVlocale@0@@Z 00630c90 f i libcpmtd:xlocale.obj
 0001:0022fdf0       ??$use_facet@V?$moneypunct@D$00@std@@@std@@YAABV?$moneypunct@D$00@0@ABVlocale@0@@Z 00630df0 f i libcpmtd:xlocale.obj
 0001:0022ff50       ??$use_facet@V?$moneypunct@D$0A@@std@@@std@@YAABV?$moneypunct@D$0A@@0@ABVlocale@0@@Z 00630f50 f i libcpmtd:xlocale.obj
 0001:002300b0       ??$use_facet@V?$time_get@DV?$istreambuf_iterator@DU?$char_traits@D@std@@@std@@@std@@@std@@YAABV?$time_get@DV?$istreambuf_iterator@DU?$char_traits@D@std@@@std@@@0@ABVlocale@0@@Z 006310b0 f i libcpmtd:xlocale.obj
 0001:00230210       ??$use_facet@V?$time_put@DV?$ostreambuf_iterator@DU?$char_traits@D@std@@@std@@@std@@@std@@YAABV?$time_put@DV?$ostreambuf_iterator@DU?$char_traits@D@std@@@std@@@0@ABVlocale@0@@Z 00631210 f i libcpmtd:xlocale.obj
 0001:00230370       ??0?$_Mpunct@D@std@@QAE@ABV_Locinfo@1@I_N1@Z 00631370 f i libcpmtd:xlocale.obj
 0001:00230410       ??0?$_String_const_iterator@V?$_String_val@U?$_Simple_types@D@std@@@std@@@std@@QAE@$$QAV01@@Z 00631410 f i libcpmtd:xlocale.obj
 0001:00230450       ??0?$_String_const_iterator@V?$_String_val@U?$_Simple_types@D@std@@@std@@@std@@QAE@ABV01@@Z 00631450 f i libcpmtd:xlocale.obj
 0001:00230490       ??0?$_String_const_iterator@V?$_String_val@U?$_Simple_types@D@std@@@std@@@std@@QAE@PBDPBU_Container_base12@1@@Z 00631490 f i libcpmtd:xlocale.obj
 0001:002304d0       ??0?$_String_const_iterator@V?$_String_val@U?$_Simple_types@D@std@@@std@@@std@@QAE@XZ 006314d0 f i libcpmtd:xlocale.obj
 0001:00230500       ??0?$_String_iterator@V?$_String_val@U?$_Simple_types@D@std@@@std@@@std@@QAE@ABV01@@Z 00631500 f i libcpmtd:xlocale.obj
 0001:00230530       ??0?$_String_iterator@V?$_String_val@U?$_Simple_types@D@std@@@std@@@std@@QAE@PBDPBU_Container_base12@1@@Z 00631530 f i libcpmtd:xlocale.obj
 0001:00230560       ??0?$collate@D@std@@QAE@ABV_Locinfo@1@I@Z 00631560 f i libcpmtd:xlocale.obj
 0001:002305f0       ??0?$messages@D@std@@QAE@ABV_Locinfo@1@I@Z 006315f0 f i libcpmtd:xlocale.obj
 0001:00230680       ??0?$money_get@DV?$istreambuf_iterator@DU?$char_traits@D@std@@@std@@@std@@QAE@ABV_Locinfo@1@I@Z 00631680 f i libcpmtd:xlocale.obj
 0001:00230710       ??0?$money_put@DV?$ostreambuf_iterator@DU?$char_traits@D@std@@@std@@@std@@QAE@ABV_Locinfo@1@I@Z 00631710 f i libcpmtd:xlocale.obj
 0001:002307a0       ??0?$moneypunct@D$00@std@@QAE@ABV_Locinfo@1@I_N@Z 006317a0 f i libcpmtd:xlocale.obj
 0001:002307e0       ??0?$moneypunct@D$0A@@std@@QAE@ABV_Locinfo@1@I_N@Z 006317e0 f i libcpmtd:xlocale.obj
 0001:00230820       ??0?$time_get@DV?$istreambuf_iterator@DU?$char_traits@D@std@@@std@@@std@@QAE@ABV_Locinfo@1@I@Z 00631820 f i libcpmtd:xlocale.obj
 0001:002308b0       ??0?$time_put@DV?$ostreambuf_iterator@DU?$char_traits@D@std@@@std@@@std@@QAE@ABV_Locinfo@1@I@Z 006318b0 f i libcpmtd:xlocale.obj
 0001:00230960       ??1?$_Mpunct@D@std@@MAE@XZ 00631960 f i libcpmtd:xlocale.obj
 0001:00230990       ??1?$_String_const_iterator@V?$_String_val@U?$_Simple_types@D@std@@@std@@@std@@QAE@XZ 00631990 f i libcpmtd:xlocale.obj
 0001:002309b0       ??1?$_String_iterator@V?$_String_val@U?$_Simple_types@D@std@@@std@@@std@@QAE@XZ 006319b0 f i libcpmtd:xlocale.obj
 0001:002309d0       ??1?$_Tidy_guard@V?$_Mpunct@D@std@@@std@@QAE@XZ 006319d0 f i libcpmtd:xlocale.obj
 0001:00230a00       ??1?$_Tidy_guard@V?$time_get@DV?$istreambuf_iterator@DU?$char_traits@D@std@@@std@@@std@@@std@@QAE@XZ 00631a00 f i libcpmtd:xlocale.obj
 0001:00230a30       ??1?$collate@D@std@@MAE@XZ 00631a30 f i libcpmtd:xlocale.obj
 0001:00230a70       ??1?$messages@D@std@@MAE@XZ 00631a70 f i libcpmtd:xlocale.obj
 0001:00230aa0       ??1?$money_get@DV?$istreambuf_iterator@DU?$char_traits@D@std@@@std@@@std@@MAE@XZ 00631aa0 f i libcpmtd:xlocale.obj
 0001:00230ad0       ??1?$money_put@DV?$ostreambuf_iterator@DU?$char_traits@D@std@@@std@@@std@@MAE@XZ 00631ad0 f i libcpmtd:xlocale.obj
 0001:00230b00       ??1?$moneypunct@D$00@std@@MAE@XZ 00631b00 f i libcpmtd:xlocale.obj
 0001:00230b30       ??1?$moneypunct@D$0A@@std@@MAE@XZ 00631b30 f i libcpmtd:xlocale.obj
 0001:00230b60       ??1?$time_get@DV?$istreambuf_iterator@DU?$char_traits@D@std@@@std@@@std@@MAE@XZ 00631b60 f i libcpmtd:xlocale.obj
 0001:00230b90       ??1?$time_put@DV?$ostreambuf_iterator@DU?$char_traits@D@std@@@std@@@std@@MAE@XZ 00631b90 f i libcpmtd:xlocale.obj
 0001:00230bd0       ??4?$_String_const_iterator@V?$_String_val@U?$_Simple_types@D@std@@@std@@@std@@QAEAAV01@$$QAV01@@Z 00631bd0 f i libcpmtd:xlocale.obj
 0001:00230c10       ??8?$_String_const_iterator@V?$_String_val@U?$_Simple_types@D@std@@@std@@@std@@QBE_NABV01@@Z 00631c10 f i libcpmtd:xlocale.obj
 0001:00230c60       ??D?$_String_const_iterator@V?$_String_val@U?$_Simple_types@D@std@@@std@@@std@@QBEABDXZ 00631c60 f i libcpmtd:xlocale.obj
 0001:00230da0       ??D?$_String_iterator@V?$_String_val@U?$_Simple_types@D@std@@@std@@@std@@QBEAADXZ 00631da0 f i libcpmtd:xlocale.obj
 0001:00230dc0       ??E?$_String_const_iterator@V?$_String_val@U?$_Simple_types@D@std@@@std@@@std@@QAEAAV01@XZ 00631dc0 f i libcpmtd:xlocale.obj
 0001:00230f00       ??E?$_String_iterator@V?$_String_val@U?$_Simple_types@D@std@@@std@@@std@@QAEAAV01@XZ 00631f00 f i libcpmtd:xlocale.obj
 0001:00230f20       ??E?$ostreambuf_iterator@DU?$char_traits@D@std@@@std@@QAEAAV01@H@Z 00631f20 f i libcpmtd:xlocale.obj
 0001:00230f40       ??G?$_String_iterator@V?$_String_val@U?$_Simple_types@D@std@@@std@@@std@@QBE?AV01@H@Z 00631f40 f i libcpmtd:xlocale.obj
 0001:00230f80       ??H?$_String_iterator@V?$_String_val@U?$_Simple_types@D@std@@@std@@@std@@QBE?AV01@H@Z 00631f80 f i libcpmtd:xlocale.obj
 0001:00230fc0       ??Y?$_String_const_iterator@V?$_String_val@U?$_Simple_types@D@std@@@std@@@std@@QAEAAV01@H@Z 00631fc0 f i libcpmtd:xlocale.obj
 0001:00231000       ??Y?$_String_iterator@V?$_String_val@U?$_Simple_types@D@std@@@std@@@std@@QAEAAV01@H@Z 00632000 f i libcpmtd:xlocale.obj
 0001:00231030       ??Z?$_String_const_iterator@V?$_String_val@U?$_Simple_types@D@std@@@std@@@std@@QAEAAV01@H@Z 00632030 f i libcpmtd:xlocale.obj
 0001:00231060       ??Z?$_String_iterator@V?$_String_val@U?$_Simple_types@D@std@@@std@@@std@@QAEAAV01@H@Z 00632060 f i libcpmtd:xlocale.obj
 0001:00231090       ??_E?$_Mpunct@D@std@@MAEPAXI@Z 00632090 f i libcpmtd:xlocale.obj
 0001:00231090       ??_G?$_Mpunct@D@std@@MAEPAXI@Z 00632090 f i libcpmtd:xlocale.obj
 0001:002310f0       ??_E?$collate@D@std@@MAEPAXI@Z 006320f0 f i libcpmtd:xlocale.obj
 0001:002310f0       ??_G?$collate@D@std@@MAEPAXI@Z 006320f0 f i libcpmtd:xlocale.obj
 0001:00231150       ??_E?$messages@D@std@@MAEPAXI@Z 00632150 f i libcpmtd:xlocale.obj
 0001:00231150       ??_G?$messages@D@std@@MAEPAXI@Z 00632150 f i libcpmtd:xlocale.obj
 0001:002311b0       ??_E?$money_get@DV?$istreambuf_iterator@DU?$char_traits@D@std@@@std@@@std@@MAEPAXI@Z 006321b0 f i libcpmtd:xlocale.obj
 0001:002311b0       ??_G?$money_get@DV?$istreambuf_iterator@DU?$char_traits@D@std@@@std@@@std@@MAEPAXI@Z 006321b0 f i libcpmtd:xlocale.obj
 0001:00231210       ??_E?$money_put@DV?$ostreambuf_iterator@DU?$char_traits@D@std@@@std@@@std@@MAEPAXI@Z 00632210 f i libcpmtd:xlocale.obj
 0001:00231210       ??_G?$money_put@DV?$ostreambuf_iterator@DU?$char_traits@D@std@@@std@@@std@@MAEPAXI@Z 00632210 f i libcpmtd:xlocale.obj
 0001:00231270       ??_E?$moneypunct@D$00@std@@MAEPAXI@Z 00632270 f i libcpmtd:xlocale.obj
 0001:00231270       ??_G?$moneypunct@D$00@std@@MAEPAXI@Z 00632270 f i libcpmtd:xlocale.obj
 0001:002312d0       ??_E?$moneypunct@D$0A@@std@@MAEPAXI@Z 006322d0 f i libcpmtd:xlocale.obj
 0001:002312d0       ??_G?$moneypunct@D$0A@@std@@MAEPAXI@Z 006322d0 f i libcpmtd:xlocale.obj
 0001:00231330       ??_E?$time_get@DV?$istreambuf_iterator@DU?$char_traits@D@std@@@std@@@std@@MAEPAXI@Z 00632330 f i libcpmtd:xlocale.obj
 0001:00231330       ??_G?$time_get@DV?$istreambuf_iterator@DU?$char_traits@D@std@@@std@@@std@@MAEPAXI@Z 00632330 f i libcpmtd:xlocale.obj
 0001:00231390       ??_E?$time_put@DV?$ostreambuf_iterator@DU?$char_traits@D@std@@@std@@@std@@MAEPAXI@Z 00632390 f i libcpmtd:xlocale.obj
 0001:00231390       ??_G?$time_put@DV?$ostreambuf_iterator@DU?$char_traits@D@std@@@std@@@std@@MAEPAXI@Z 00632390 f i libcpmtd:xlocale.obj
 0001:002313f0       ?_Compat@?$_String_const_iterator@V?$_String_val@U?$_Simple_types@D@std@@@std@@@std@@QBEXABV12@@Z 006323f0 f i libcpmtd:xlocale.obj
 0001:00231470       ?_Getcat@?$collate@D@std@@SAIPAPBVfacet@locale@2@PBV42@@Z 00632470 f i libcpmtd:xlocale.obj
 0001:00231600       ?_Getcat@?$messages@D@std@@SAIPAPBVfacet@locale@2@PBV42@@Z 00632600 f i libcpmtd:xlocale.obj
 0001:00231730       ?_Getcat@?$money_get@DV?$istreambuf_iterator@DU?$char_traits@D@std@@@std@@@std@@SAIPAPBVfacet@locale@2@PBV42@@Z 00632730 f i libcpmtd:xlocale.obj
 0001:00231860       ?_Getcat@?$money_put@DV?$ostreambuf_iterator@DU?$char_traits@D@std@@@std@@@std@@SAIPAPBVfacet@locale@2@PBV42@@Z 00632860 f i libcpmtd:xlocale.obj
 0001:00231990       ?_Getcat@?$moneypunct@D$00@std@@SAIPAPBVfacet@locale@2@PBV42@@Z 00632990 f i libcpmtd:xlocale.obj
 0001:00231ac0       ?_Getcat@?$moneypunct@D$0A@@std@@SAIPAPBVfacet@locale@2@PBV42@@Z 00632ac0 f i libcpmtd:xlocale.obj
 0001:00231bf0       ?_Getcat@?$time_get@DV?$istreambuf_iterator@DU?$char_traits@D@std@@@std@@@std@@SAIPAPBVfacet@locale@2@PBV42@@Z 00632bf0 f i libcpmtd:xlocale.obj
 0001:00231d20       ?_Getcat@?$time_put@DV?$ostreambuf_iterator@DU?$char_traits@D@std@@@std@@@std@@SAIPAPBVfacet@locale@2@PBV42@@Z 00632d20 f i libcpmtd:xlocale.obj
 0001:00231e50       ?_Getfmt@?$time_get@DV?$istreambuf_iterator@DU?$char_traits@D@std@@@std@@@std@@IBE?AV?$istreambuf_iterator@DU?$char_traits@D@std@@@2@V32@0AAVios_base@2@AAHPAUtm@@PBD@Z 00632e50 f i libcpmtd:xlocale.obj
 0001:002320c0       ?_Getint@?$time_get@DV?$istreambuf_iterator@DU?$char_traits@D@std@@@std@@@std@@ABAHAAV?$istreambuf_iterator@DU?$char_traits@D@std@@@2@0HHAAHABV?$ctype@D@2@@Z 006330c0 f i libcpmtd:xlocale.obj
 0001:00232100       ?_Getmfld@?$money_get@DV?$istreambuf_iterator@DU?$char_traits@D@std@@@std@@@std@@ABE?AV?$basic_string@DU?$char_traits@D@std@@V?$allocator@D@2@@2@AAV?$istreambuf_iterator@DU?$char_traits@D@std@@@2@0_NAAVios_base@2@AAY0M@D@Z 00633100 f i libcpmtd:xlocale.obj
 0001:002335b0       ?_Gettnames@_Locinfo@std@@QBE?AV_Timevec@2@XZ 006345b0 f i libcpmtd:xlocale.obj
 0001:002335f0       ?_Init@?$_Mpunct@D@std@@IAEXABV_Locinfo@2@_N@Z 006345f0 f i libcpmtd:xlocale.obj
 0001:00233960       ?_Init@?$collate@D@std@@IAEXABV_Locinfo@2@@Z 00634960 f i libcpmtd:xlocale.obj
 0001:002339a0       ?_Init@?$messages@D@std@@IAEXABV_Locinfo@2@@Z 006349a0 f i libcpmtd:xlocale.obj
 0001:002339b0       ?_Init@?$money_get@DV?$istreambuf_iterator@DU?$char_traits@D@std@@@std@@@std@@IAEXABV_Locinfo@2@@Z 006349b0 f i libcpmtd:xlocale.obj
 0001:002339c0       ?_Init@?$money_put@DV?$ostreambuf_iterator@DU?$char_traits@D@std@@@std@@@std@@IAEXABV_Locinfo@2@@Z 006349c0 f i libcpmtd:xlocale.obj
 0001:002339d0       ?_Init@?$time_get@DV?$istreambuf_iterator@DU?$char_traits@D@std@@@std@@@std@@IAEXABV_Locinfo@2@@Z 006349d0 f i libcpmtd:xlocale.obj
 0001:00233a90       ?_Init@?$time_put@DV?$ostreambuf_iterator@DU?$char_traits@D@std@@@std@@@std@@IAEXABV_Locinfo@2@@Z 00634a90 f i libcpmtd:xlocale.obj
 0001:00233b30       ?_Makexloc@_Locimp@locale@std@@CAXABV_Locinfo@3@HPAV123@PBV23@@Z 00634b30 f   libcpmtd:xlocale.obj
 0001:002343a0       ?_Makpat@?$_Mpunct@D@std@@AAEXAAUpattern@money_base@2@III@Z 006353a0 f i libcpmtd:xlocale.obj
 0001:00234420       ?_Put@?$money_put@DV?$ostreambuf_iterator@DU?$char_traits@D@std@@@std@@@std@@CA?AV?$ostreambuf_iterator@DU?$char_traits@D@std@@@2@V32@V?$_String_const_iterator@V?$_String_val@U?$_Simple_types@D@std@@@std@@@2@I@Z 00635420 f i libcpmtd:xlocale.obj
 0001:002344f0       ?_Putmfld@?$money_put@DV?$ostreambuf_iterator@DU?$char_traits@D@std@@@std@@@std@@ABE?AV?$ostreambuf_iterator@DU?$char_traits@D@std@@@2@V32@_NAAVios_base@2@D1V?$basic_string@DU?$char_traits@D@std@@V?$allocator@D@2@@2@D@Z 006354f0 f i libcpmtd:xlocale.obj
 0001:002357c0       ?_Rep@?$money_put@DV?$ostreambuf_iterator@DU?$char_traits@D@std@@@std@@@std@@CA?AV?$ostreambuf_iterator@DU?$char_traits@D@std@@@2@V32@DI@Z 006367c0 f i libcpmtd:xlocale.obj
 0001:00235820       ?_Tidy@?$_Mpunct@D@std@@AAEXXZ 00636820 f i libcpmtd:xlocale.obj
 0001:00235880       ?_Tidy@?$time_get@DV?$istreambuf_iterator@DU?$char_traits@D@std@@@std@@@std@@AAEXXZ 00636880 f i libcpmtd:xlocale.obj
 0001:002358d0       ?_Verify_offset@?$_String_const_iterator@V?$_String_val@U?$_Simple_types@D@std@@@std@@@std@@QBEXH@Z 006368d0 f i libcpmtd:xlocale.obj
 0001:00235a70       ?begin@?$basic_string@DU?$char_traits@D@std@@V?$allocator@D@2@@std@@QAE?AV?$_String_iterator@V?$_String_val@U?$_Simple_types@D@std@@@std@@@2@XZ 00636a70 f i libcpmtd:xlocale.obj
 0001:00235ad0       ?curr_symbol@?$_Mpunct@D@std@@QBE?AV?$basic_string@DU?$char_traits@D@std@@V?$allocator@D@2@@2@XZ 00636ad0 f i libcpmtd:xlocale.obj
 0001:00235b30       ?date_order@?$time_get@DV?$istreambuf_iterator@DU?$char_traits@D@std@@@std@@@std@@QBE?AW4dateorder@time_base@2@XZ 00636b30 f i libcpmtd:xlocale.obj
 0001:00235b60       ?decimal_point@?$_Mpunct@D@std@@QBEDXZ 00636b60 f i libcpmtd:xlocale.obj
 0001:00235b90       ?do_close@?$messages@D@std@@MBEXH@Z 00636b90 f i libcpmtd:xlocale.obj
 0001:00235ba0       ?do_compare@?$collate@D@std@@MBEHPBD000@Z 00636ba0 f i libcpmtd:xlocale.obj
 0001:00235c40       ?do_curr_symbol@?$_Mpunct@D@std@@MBE?AV?$basic_string@DU?$char_traits@D@std@@V?$allocator@D@2@@2@XZ 00636c40 f i libcpmtd:xlocale.obj
 0001:00235c80       ?do_date_order@?$time_get@DV?$istreambuf_iterator@DU?$char_traits@D@std@@@std@@@std@@MBE?AW4dateorder@time_base@2@XZ 00636c80 f i libcpmtd:xlocale.obj
 0001:00235ca0       ?do_decimal_point@?$_Mpunct@D@std@@MBEDXZ 00636ca0 f i libcpmtd:xlocale.obj
 0001:00235cc0       ?do_frac_digits@?$_Mpunct@D@std@@MBEHXZ 00636cc0 f i libcpmtd:xlocale.obj
 0001:00235ce0       ?do_get@?$messages@D@std@@MBE?AV?$basic_string@DU?$char_traits@D@std@@V?$allocator@D@2@@2@HHHABV32@@Z 00636ce0 f i libcpmtd:xlocale.obj
 0001:00235d20       ?do_get@?$money_get@DV?$istreambuf_iterator@DU?$char_traits@D@std@@@std@@@std@@MBE?AV?$istreambuf_iterator@DU?$char_traits@D@std@@@2@V32@0_NAAVios_base@2@AAHAAO@Z 00636d20 f i libcpmtd:xlocale.obj
 0001:00235e90       ?do_get@?$money_get@DV?$istreambuf_iterator@DU?$char_traits@D@std@@@std@@@std@@MBE?AV?$istreambuf_iterator@DU?$char_traits@D@std@@@2@V32@0_NAAVios_base@2@AAHAAV?$basic_string@DU?$char_traits@D@std@@V?$allocator@D@2@@2@@Z 00636e90 f i libcpmtd:xlocale.obj
 0001:00236060       ?do_get@?$time_get@DV?$istreambuf_iterator@DU?$char_traits@D@std@@@std@@@std@@MBE?AV?$istreambuf_iterator@DU?$char_traits@D@std@@@2@V32@0AAVios_base@2@AAHPAUtm@@DD@Z 00637060 f i libcpmtd:xlocale.obj
 0001:00236a40       ?do_get_date@?$time_get@DV?$istreambuf_iterator@DU?$char_traits@D@std@@@std@@@std@@MBE?AV?$istreambuf_iterator@DU?$char_traits@D@std@@@2@V32@0AAVios_base@2@AAHPAUtm@@@Z 00637a40 f i libcpmtd:xlocale.obj
 0001:002371f0       ?do_get_monthname@?$time_get@DV?$istreambuf_iterator@DU?$char_traits@D@std@@@std@@@std@@MBE?AV?$istreambuf_iterator@DU?$char_traits@D@std@@@2@V32@0AAVios_base@2@AAHPAUtm@@@Z 006381f0 f i libcpmtd:xlocale.obj
 0001:00237270       ?do_get_time@?$time_get@DV?$istreambuf_iterator@DU?$char_traits@D@std@@@std@@@std@@MBE?AV?$istreambuf_iterator@DU?$char_traits@D@std@@@2@V32@0AAVios_base@2@AAHPAUtm@@@Z 00638270 f i libcpmtd:xlocale.obj
 0001:00237480       ?do_get_weekday@?$time_get@DV?$istreambuf_iterator@DU?$char_traits@D@std@@@std@@@std@@MBE?AV?$istreambuf_iterator@DU?$char_traits@D@std@@@2@V32@0AAVios_base@2@AAHPAUtm@@@Z 00638480 f i libcpmtd:xlocale.obj
 0001:00237500       ?do_get_year@?$time_get@DV?$istreambuf_iterator@DU?$char_traits@D@std@@@std@@@std@@MBE?AV?$istreambuf_iterator@DU?$char_traits@D@std@@@2@V32@0AAVios_base@2@AAHPAUtm@@@Z 00638500 f i libcpmtd:xlocale.obj
 0001:00237650       ?do_grouping@?$_Mpunct@D@std@@MBE?AV?$basic_string@DU?$char_traits@D@std@@V?$allocator@D@2@@2@XZ 00638650 f i libcpmtd:xlocale.obj
 0001:00237690       ?do_hash@?$collate@D@std@@MBEJPBD0@Z 00638690 f i libcpmtd:xlocale.obj
 0001:002376d0       ?do_neg_format@?$_Mpunct@D@std@@MBE?AUpattern@money_base@2@XZ 006386d0 f i libcpmtd:xlocale.obj
 0001:00237700       ?do_negative_sign@?$_Mpunct@D@std@@MBE?AV?$basic_string@DU?$char_traits@D@std@@V?$allocator@D@2@@2@XZ 00638700 f i libcpmtd:xlocale.obj
 0001:00237740       ?do_open@?$messages@D@std@@MBEHABV?$basic_string@DU?$char_traits@D@std@@V?$allocator@D@2@@2@ABVlocale@2@@Z 00638740 f i libcpmtd:xlocale.obj
 0001:00237760       ?do_pos_format@?$_Mpunct@D@std@@MBE?AUpattern@money_base@2@XZ 00638760 f i libcpmtd:xlocale.obj
 0001:00237790       ?do_positive_sign@?$_Mpunct@D@std@@MBE?AV?$basic_string@DU?$char_traits@D@std@@V?$allocator@D@2@@2@XZ 00638790 f i libcpmtd:xlocale.obj
 0001:002377d0       ?do_put@?$money_put@DV?$ostreambuf_iterator@DU?$char_traits@D@std@@@std@@@std@@MBE?AV?$ostreambuf_iterator@DU?$char_traits@D@std@@@2@V32@_NAAVios_base@2@DABV?$basic_string@DU?$char_traits@D@std@@V?$allocator@D@2@@2@@Z 006387d0 f i libcpmtd:xlocale.obj
 0001:00237a40       ?do_put@?$money_put@DV?$ostreambuf_iterator@DU?$char_traits@D@std@@@std@@@std@@MBE?AV?$ostreambuf_iterator@DU?$char_traits@D@std@@@2@V32@_NAAVios_base@2@DO@Z 00638a40 f i libcpmtd:xlocale.obj
 0001:00237c80       ?do_put@?$time_put@DV?$ostreambuf_iterator@DU?$char_traits@D@std@@@std@@@std@@MBE?AV?$ostreambuf_iterator@DU?$char_traits@D@std@@@2@V32@AAVios_base@2@DPBUtm@@DD@Z 00638c80 f i libcpmtd:xlocale.obj
 0001:00237e90       ?do_thousands_sep@?$_Mpunct@D@std@@MBEDXZ 00638e90 f i libcpmtd:xlocale.obj
 0001:00237eb0       ?do_transform@?$collate@D@std@@MBE?AV?$basic_string@DU?$char_traits@D@std@@V?$allocator@D@2@@2@PBD0@Z 00638eb0 f i libcpmtd:xlocale.obj
 0001:00238000       ?end@?$basic_string@DU?$char_traits@D@std@@V?$allocator@D@2@@std@@QAE?AV?$_String_iterator@V?$_String_val@U?$_Simple_types@D@std@@@std@@@2@XZ 00639000 f i libcpmtd:xlocale.obj
 0001:00238060       ?frac_digits@?$_Mpunct@D@std@@QBEHXZ 00639060 f i libcpmtd:xlocale.obj
 0001:00238090       ?get_monthname@?$time_get@DV?$istreambuf_iterator@DU?$char_traits@D@std@@@std@@@std@@QBE?AV?$istreambuf_iterator@DU?$char_traits@D@std@@@2@V32@0AAVios_base@2@AAHPAUtm@@@Z 00639090 f i libcpmtd:xlocale.obj
 0001:00238100       ?get_weekday@?$time_get@DV?$istreambuf_iterator@DU?$char_traits@D@std@@@std@@@std@@QBE?AV?$istreambuf_iterator@DU?$char_traits@D@std@@@2@V32@0AAVios_base@2@AAHPAUtm@@@Z 00639100 f i libcpmtd:xlocale.obj
 0001:00238170       ?get_year@?$time_get@DV?$istreambuf_iterator@DU?$char_traits@D@std@@@std@@@std@@QBE?AV?$istreambuf_iterator@DU?$char_traits@D@std@@@2@V32@0AAVios_base@2@AAHPAUtm@@@Z 00639170 f i libcpmtd:xlocale.obj
 0001:002381e0       ?grouping@?$_Mpunct@D@std@@QBE?AV?$basic_string@DU?$char_traits@D@std@@V?$allocator@D@2@@2@XZ 006391e0 f i libcpmtd:xlocale.obj
 0001:00238240       ?narrow@?$ctype@D@std@@QBEDDD@Z 00639240 f i libcpmtd:xlocale.obj
 0001:00238290       ?neg_format@?$_Mpunct@D@std@@QBE?AUpattern@money_base@2@XZ 00639290 f i libcpmtd:xlocale.obj
 0001:002382e0       ?negative_sign@?$_Mpunct@D@std@@QBE?AV?$basic_string@DU?$char_traits@D@std@@V?$allocator@D@2@@2@XZ 006392e0 f i libcpmtd:xlocale.obj
 0001:00238340       ?pos_format@?$_Mpunct@D@std@@QBE?AUpattern@money_base@2@XZ 00639340 f i libcpmtd:xlocale.obj
 0001:00238390       ?positive_sign@?$_Mpunct@D@std@@QBE?AV?$basic_string@DU?$char_traits@D@std@@V?$allocator@D@2@@2@XZ 00639390 f i libcpmtd:xlocale.obj
 0001:002383f0       ?thousands_sep@?$_Mpunct@D@std@@QBEDXZ 006393f0 f i libcpmtd:xlocale.obj
 0001:00238420       __Stolx                    00639420 f   libcpmtd:xstol.obj
 0001:00238590       __Stoul                    00639590 f   libcpmtd:xstoul.obj
 0001:002385c0       __Stoulx                   006395c0 f   libcpmtd:xstoul.obj
 0001:002388d0       __Stoll                    006398d0 f   libcpmtd:xstoll.obj
 0001:00238900       __Stollx                   00639900 f   libcpmtd:xstoll.obj
 0001:00238ac0       __Stoull                   00639ac0 f   libcpmtd:xstoull.obj
 0001:00238af0       __Stoullx                  00639af0 f   libcpmtd:xstoull.obj
 0001:00238e90       __Getcoll                  00639e90 f   libcpmtd:xstrcoll.obj
 0001:00238ef0       __Strcoll                  00639ef0 f   libcpmtd:xstrcoll.obj
 0001:00239050       __Getdateorder             0063a050 f   libcpmtd:xdateord.obj
 0001:00239140       __Mbrtowc                  0063a140 f   libcpmtd:xmbtowc.obj
 0001:002394e0       __Wcscoll                  0063a4e0 f   libcpmtd:xwcscoll.obj
 0001:00239630       _wmemcmp                   0063a630 f i libcpmtd:xwcscoll.obj
 0001:002396b0       ??$?RE@__crt_internal_free_policy@@QBEXQBE@Z 0063a6b0 f i libcpmtd:xwcsxfrm.obj
 0001:002396e0       ??0?$__crt_unique_heap_ptr@EU__crt_internal_free_policy@@@@QAE@QAE@Z 0063a6e0 f i libcpmtd:xwcsxfrm.obj
 0001:00239700       ??1?$__crt_unique_heap_ptr@EU__crt_internal_free_policy@@@@QAE@XZ 0063a700 f i libcpmtd:xwcsxfrm.obj
 0001:00239720       ??B?$__crt_unique_heap_ptr@EU__crt_internal_free_policy@@@@QBE_NXZ 0063a720 f i libcpmtd:xwcsxfrm.obj
 0001:00239740       ?get@?$__crt_unique_heap_ptr@EU__crt_internal_free_policy@@@@QBEPAEXZ 0063a740 f i libcpmtd:xwcsxfrm.obj
 0001:00239760       ?is_valid@?$__crt_unique_heap_ptr@EU__crt_internal_free_policy@@@@QBE_NXZ 0063a760 f i libcpmtd:xwcsxfrm.obj
 0001:002397a0       ?release@?$__crt_unique_heap_ptr@EU__crt_internal_free_policy@@@@QAEXXZ 0063a7a0 f i libcpmtd:xwcsxfrm.obj
 0001:002397d0       __Wcsxfrm                  0063a7d0 f   libcpmtd:xwcsxfrm.obj
 0001:00239970       __Getwctype                0063a970 f   libcpmtd:xgetwctype.obj
 0001:002399c0       __Getwctypes               0063a9c0 f   libcpmtd:xgetwctype.obj
 0001:002399f0       __Towlower                 0063a9f0 f   libcpmtd:xtowlower.obj
 0001:00239a90       __Towupper                 0063aa90 f   libcpmtd:xtowupper.obj
 0001:00239b30       __Strxfrm                  0063ab30 f   libcpmtd:xstrxfrm.obj
 0001:00239c60       ___crtCompareStringA       0063ac60 f   libcpmtd:StlCompareStringA.obj
 0001:0023a230       ___crtCompareStringW       0063b230 f   libcpmtd:StlCompareStringW.obj
 0001:0023a300       ___crtLCMapStringW         0063b300 f   libcpmtd:StlLCMapStringW.obj
 0001:0023a380       ??2@YAPAXI@Z               0063b380 f   LIBCMTD:new_scalar.obj
 0001:0023a3e0       ??3@YAXPAXI@Z              0063b3e0 f   LIBCMTD:delete_scalar_size.obj
 0001:0023a400       ??_V@YAXPAX@Z              0063b400 f   LIBCMTD:delete_array.obj
 0001:0023a420       ?configure_argv@__scrt_narrow_argv_policy@@SAHXZ 0063b420 f i LIBCMTD:utility.obj
 0001:0023a4f0       ?initialize_environment@__scrt_narrow_environment_policy@@SAHXZ 0063b4f0 f i LIBCMTD:utility.obj
 0001:0023a590       _NtCurrentTeb              0063b590 f i LIBCMTD:utility.obj
 0001:0023a5a0       ___scrt_acquire_startup_lock 0063b5a0 f   LIBCMTD:utility.obj
 0001:0023a600       ___scrt_dllmain_after_initialize_c 0063b600 f   LIBCMTD:utility.obj
 0001:0023a640       ___scrt_dllmain_before_initialize_c 0063b640 f   LIBCMTD:utility.obj
 0001:0023a670       ___scrt_dllmain_crt_thread_attach 0063b670 f   LIBCMTD:utility.obj
 0001:0023a6b0       ___scrt_dllmain_crt_thread_detach 0063b6b0 f   LIBCMTD:utility.obj
 0001:0023a6d0       ___scrt_dllmain_exception_filter 0063b6d0 f   LIBCMTD:utility.obj
 0001:0023a730       ___scrt_dllmain_uninitialize_c 0063b730 f   LIBCMTD:utility.obj
 0001:0023a770       ___scrt_dllmain_uninitialize_critical 0063b770 f   LIBCMTD:utility.obj
 0001:0023a790       ___scrt_initialize_crt     0063b790 f   LIBCMTD:utility.obj
 0001:0023a7f0       ___scrt_initialize_onexit_tables 0063b7f0 f   LIBCMTD:utility.obj
 0001:0023a900       ___scrt_is_nonwritable_in_current_image 0063b900 f   LIBCMTD:utility.obj
 0001:0023aa80       ___scrt_release_startup_lock 0063ba80 f   LIBCMTD:utility.obj
 0001:0023aab0       ___scrt_uninitialize_crt   0063bab0 f   LIBCMTD:utility.obj
 0001:0023ab00       __onexit                   0063bb00 f   LIBCMTD:utility.obj
 0001:0023ab80       _at_quick_exit             0063bb80 f   LIBCMTD:utility.obj
 0001:0023abd0       _atexit                    0063bbd0 f   LIBCMTD:utility.obj
 0001:0023ac10       @__security_check_cookie@4 0063bc10 f   LIBCMTD:secchk.obj
 0001:0023ac30       ??1type_info@@UAE@XZ       0063bc30 f   LIBCMTD:std_type_info_static.obj
 0001:0023ac50       ??_Etype_info@@UAEPAXI@Z   0063bc50 f i LIBCMTD:std_type_info_static.obj
 0001:0023ac50       ??_Gtype_info@@UAEPAXI@Z   0063bc50 f i LIBCMTD:std_type_info_static.obj
 0001:0023ac90       ___raise_securityfailure   0063bc90 f   LIBCMTD:gs_report.obj
 0001:0023acd0       ___report_gsfailure        0063bcd0 f   LIBCMTD:gs_report.obj
 0001:0023ae20       ___report_rangecheckfailure 0063be20 f   LIBCMTD:gs_report.obj
 0001:0023ae30       ___report_securityfailure  0063be30 f   LIBCMTD:gs_report.obj
 0001:0023af40       ___report_securityfailureEx 0063bf40 f   LIBCMTD:gs_report.obj
 0001:0023b0b0       __alloca_probe             0063c0b0 f   LIBCMTD:chkstk.obj
 0001:0023b0b0       __chkstk                   0063c0b0 f   LIBCMTD:chkstk.obj
 0001:0023b0f0       ??_L@YGXPAXIHP6EX0@Z1@Z    0063c0f0 f   LIBCMTD:ehvecctr.obj
 0001:0023b120       ??_L@YGXPAXIIP6EX0@Z1@Z    0063c120 f   LIBCMTD:ehvecctr.obj
 0001:0023b210       ??_M@YGXPAXIHP6EX0@Z@Z     0063c210 f   LIBCMTD:ehvecdtr.obj
 0001:0023b240       ??_M@YGXPAXIIP6EX0@Z@Z     0063c240 f   LIBCMTD:ehvecdtr.obj
 0001:0023b3a0       ?__ArrayUnwind@@YGXPAXIIP6EX0@Z@Z 0063c3a0 f   LIBCMTD:ehvecdtr.obj
 0001:0023b480       ??_U@YAPAXI@Z              0063c480 f   LIBCMTD:new_array.obj
 0001:0023b4a0       __alldiv                   0063c4a0 f   LIBCMTD:lldiv.obj
 0001:0023b580       __allmul                   0063c580 f   LIBCMTD:llmul.obj
 0001:0023b5d0       __allrem                   0063c5d0 f   LIBCMTD:llrem.obj
 0001:0023b6b0       __ftol2_sse_excpt          0063c6b0 f   LIBCMTD:ftol2.obj
 0001:0023b6c0       __ftol2_sse                0063c6c0 f   LIBCMTD:ftol2.obj
 0001:0023b6d0       __ftoi2                    0063c6d0 f   LIBCMTD:ftol2.obj
 0001:0023b770       __ftoui2                   0063c770 f   LIBCMTD:ftol2.obj
 0001:0023b840       __ftol2                    0063c840 f   LIBCMTD:ftol2.obj
 0001:0023b920       __ftoul2                   0063c920 f   LIBCMTD:ftol2.obj
 0001:0023ba10       __ftoul2_legacy            0063ca10 f   LIBCMTD:ftol2.obj
 0001:0023ba30       __ftoui3                   0063ca30 f   LIBCMTD:ftol3.obj
 0001:0023ba90       __ftoul3                   0063ca90 f   LIBCMTD:ftol3.obj
 0001:0023bb20       __ftoul3_legacy            0063cb20 f   LIBCMTD:ftol3.obj
 0001:0023bb50       __ftol3                    0063cb50 f   LIBCMTD:ftol3.obj
 0001:0023bbe0       __dtoui3                   0063cbe0 f   LIBCMTD:ftol3.obj
 0001:0023bc80       __dtoul3                   0063cc80 f   LIBCMTD:ftol3.obj
 0001:0023bd50       __dtoul3_legacy            0063cd50 f   LIBCMTD:ftol3.obj
 0001:0023bd90       __dtol3                    0063cd90 f   LIBCMTD:ftol3.obj
 0001:0023be70       __ultod3                   0063ce70 f   LIBCMTD:ftol3.obj
 0001:0023bed0       __ltod3                    0063ced0 f   LIBCMTD:ftol3.obj
 0001:0023bf30       __ultof3                   0063cf30 f   LIBCMTD:ftol3.obj
 0001:0023bfd0       __ltof3                    0063cfd0 f   LIBCMTD:ftol3.obj
 0001:0023c030       ??_V@YAXPAXI@Z             0063d030 f   LIBCMTD:delete_array_size.obj
 0001:0023c490       ?set_app_type@__scrt_main_policy@@SAXXZ 0063d490 f i LIBCMTD:exe_main.obj
 0001:0023c4b0       ?set_commode@__scrt_file_policy@@SAXXZ 0063d4b0 f i LIBCMTD:exe_main.obj
 0001:0023c4d0       ?set_fmode@__scrt_file_policy@@SAXXZ 0063d4d0 f i LIBCMTD:exe_main.obj
 0001:0023c4f0       _mainCRTStartup            0063d4f0 f   LIBCMTD:exe_main.obj
 0001:0023c500       @_guard_check_icall_nop@4  0063d500 f i LIBCMTD:guard_support.obj
 0001:0023c510       _ReadNoFence               0063d510 f i LIBCMTD:guard_support.obj
 0001:0023c530       _ReadPointerNoFence        0063d530 f i LIBCMTD:guard_support.obj
 0001:0023c550       __InlineInterlockedExchangePointer 0063d550 f i LIBCMTD:guard_support.obj
 0001:0023c560       ___castguard_check_failure_debugbreak 0063d560 f i LIBCMTD:guard_support.obj
 0001:0023c580       ___castguard_check_failure_fastfail 0063d580 f i LIBCMTD:guard_support.obj
 0001:0023c5b0       ___castguard_check_failure_nop 0063d5b0 f i LIBCMTD:guard_support.obj
 0001:0023c5c0       ___castguard_check_failure_os_handled 0063d5c0 f i LIBCMTD:guard_support.obj
 0001:0023c630       ___castguard_check_failure_user_handled 0063d630 f i LIBCMTD:guard_support.obj
 0001:0023c700       ___castguard_set_user_handler 0063d700 f i LIBCMTD:guard_support.obj
 0001:0023c730       ___castguard_slow_path_check_debugbreak 0063d730 f i LIBCMTD:guard_support.obj
 0001:0023c770       ___castguard_slow_path_check_fastfail 0063d770 f i LIBCMTD:guard_support.obj
 0001:0023c7c0       ___castguard_slow_path_check_nop 0063d7c0 f i LIBCMTD:guard_support.obj
 0001:0023c7d0       ___castguard_slow_path_check_os_handled 0063d7d0 f i LIBCMTD:guard_support.obj
 0001:0023c820       ___castguard_slow_path_check_user_handled 0063d820 f i LIBCMTD:guard_support.obj
 0001:0023c8c0       __guard_icall_checks_enforced 0063d8c0 f i LIBCMTD:guard_support.obj
 0001:0023c900       ??3@YAXPAX@Z               0063d900 f   LIBCMTD:delete_scalar.obj
 0001:0023c920       __aullshr                  0063d920 f   LIBCMTD:ullshr.obj
 0001:0023c950       ___isa_available_init      0063d950 f   LIBCMTD:cpu_disp.obj
 0001:0023cf10       __allshl                   0063df10 f   LIBCMTD:llshl.obj
 0001:0023cf40       __aulldiv                  0063df40 f   LIBCMTD:ulldiv.obj
 0001:0023cfd0       __aullrem                  0063dfd0 f   LIBCMTD:ullrem.obj
 0001:0023d070       ?__scrt_throw_std_bad_alloc@@YAXXZ 0063e070 f   LIBCMTD:throw_bad_alloc.obj
 0001:0023d0a0       ?__scrt_throw_std_bad_array_new_length@@YAXXZ 0063e0a0 f   LIBCMTD:throw_bad_alloc.obj
 0001:0023d0d0       __get_startup_argv_mode    0063e0d0 f   LIBCMTD:argv_mode.obj
 0001:0023d0e0       ___scrt_is_ucrt_dll_in_use 0063e0e0 f   LIBCMTD:ucrt_detection.obj
 0001:0023d110       ___scrt_fastfail           0063e110 f   LIBCMTD:utility_desktop.obj
 0001:0023d2a0       ___scrt_get_show_window_mode 0063e2a0 f   LIBCMTD:utility_desktop.obj
 0001:0023d2f0       ___scrt_initialize_mta     0063e2f0 f   LIBCMTD:utility_desktop.obj
 0001:0023d300       ___scrt_initialize_winrt   0063e300 f   LIBCMTD:utility_desktop.obj
 0001:0023d310       ___scrt_is_managed_app     0063e310 f   LIBCMTD:utility_desktop.obj
 0001:0023d3c0       ___scrt_set_unhandled_exception_filter 0063e3c0 f   LIBCMTD:utility_desktop.obj
 0001:0023d3e0       ___scrt_exe_initialize_mta 0063e3e0 f   LIBCMTD:utility_desktop.obj
 0001:0023d3e0       ___scrt_stub_for_initialize_mta 0063e3e0 f   LIBCMTD:utility_desktop.obj
 0001:0023d3f0       ___scrt_unhandled_exception_filter@4 0063e3f0 f   LIBCMTD:utility_desktop.obj
 0001:0023d490       __crt_debugger_hook        0063e490 f   LIBCMTD:utility_desktop.obj
 0001:0023d540       ___security_init_cookie    0063e540 f   LIBCMTD:gs_support.obj
 0001:0023d5e0       __matherr                  0063e5e0 f   LIBCMTD:matherr.obj
 0001:0023d5f0       __get_startup_commit_mode  0063e5f0 f   LIBCMTD:commit_mode.obj
 0001:0023d600       __get_startup_file_mode    0063e600 f   LIBCMTD:file_mode.obj
 0001:0023d610       __get_startup_new_mode     0063e610 f   LIBCMTD:new_mode.obj
 0001:0023d620       __get_startup_thread_locale_mode 0063e620 f   LIBCMTD:thread_locale.obj
 0001:0023d630       ?__scrt_initialize_type_info@@YAXXZ 0063e630 f   LIBCMTD:tncleanup.obj
 0001:0023d650       ?__scrt_uninitialize_type_info@@YAXXZ 0063e650 f   LIBCMTD:tncleanup.obj
 0001:0023d670       __should_initialize_environment 0063e670 f   LIBCMTD:env_mode.obj
 0001:0023d680       __initialize_default_precision 0063e680 f   LIBCMTD:default_precision.obj
 0001:0023d6b0       __initialize_invalid_parameter_handler 0063e6b0 f   LIBCMTD:invalid_parameter_handler.obj
 0001:0023d6c0       __initialize_denormal_control 0063e6c0 f   LIBCMTD:denormal_control.obj
 0001:0023d6d0       ___scrt_initialize_default_local_stdio_options 0063e6d0 f   LIBCMTD:default_local_stdio_options.obj
 0001:0023d720       ___scrt_is_user_matherr_present 0063e720 f   LIBCMTD:matherr_detection.obj
 0001:0023d750       ___scrt_get_dyn_tls_init_callback 0063e750 f   LIBCMTD:dyn_tls_init.obj
 0001:0023d760       ___scrt_get_dyn_tls_dtor_callback 0063e760 f   LIBCMTD:dyn_tls_dtor.obj
 0001:0023d770       __RTC_Initialize           0063e770 f   LIBCMTD:initsect.obj
 0001:0023d7b0       __RTC_Terminate            0063e7b0 f   LIBCMTD:initsect.obj
 0001:0023d7f0       ??$__crt_interlocked_exchange_pointer@$$A6AXXZP6AXXZ@@YAP6AXXZPDS6AXXZQ6AXXZ@Z 0063e7f0 f i libvcruntimed:purevirt.obj
 0001:0023d800       ??$__crt_interlocked_read_pointer@$$A6AXXZ@@YAP6AXXZPDS6AXXZ@Z 0063e800 f i libvcruntimed:purevirt.obj
 0001:0023d820       ?__crt_interlocked_read_32@@YAHPDH@Z 0063e820 f i libvcruntimed:purevirt.obj
 0001:0023d840       __get_purecall_handler     0063e840 f   libvcruntimed:purevirt.obj
 0001:0023d860       __purecall                 0063e860 f   libvcruntimed:purevirt.obj
 0001:0023d8a0       __set_purecall_handler     0063e8a0 f   libvcruntimed:purevirt.obj
 0001:0023d8c0       _memcpy                    0063e8c0 f   libvcruntimed:memcpy.obj
 0001:0023dfa0       _memmove                   0063efa0 f   libvcruntimed:memmove.obj
 0001:0023e680       _memset                    0063f680 f   libvcruntimed:memset.obj
 0001:0023e830       ??$?RD@__crt_public_free_policy@@QBEXQBD@Z 0063f830 f i libvcruntimed:std_exception.obj
 0001:0023e850       ??0?$__crt_unique_heap_ptr@DU__crt_public_free_policy@@@@QAE@QAD@Z 0063f850 f i libvcruntimed:std_exception.obj
 0001:0023e870       ??1?$__crt_unique_heap_ptr@DU__crt_public_free_policy@@@@QAE@XZ 0063f870 f i libvcruntimed:std_exception.obj
 0001:0023e890       ??B?$__crt_unique_heap_ptr@DU__crt_public_free_policy@@@@QBE_NXZ 0063f890 f i libvcruntimed:std_exception.obj
 0001:0023e8b0       ?detach@?$__crt_unique_heap_ptr@DU__crt_public_free_policy@@@@QAEPADXZ 0063f8b0 f i libvcruntimed:std_exception.obj
 0001:0023e8e0       ?get@?$__crt_unique_heap_ptr@DU__crt_public_free_policy@@@@QBEPADXZ 0063f8e0 f i libvcruntimed:std_exception.obj
 0001:0023e900       ?is_valid@?$__crt_unique_heap_ptr@DU__crt_public_free_policy@@@@QBE_NXZ 0063f900 f i libvcruntimed:std_exception.obj
 0001:0023e940       ?release@?$__crt_unique_heap_ptr@DU__crt_public_free_policy@@@@QAEXXZ 0063f940 f i libvcruntimed:std_exception.obj
 0001:0023e970       ___std_exception_copy      0063f970 f   libvcruntimed:std_exception.obj
 0001:0023eaa0       ___std_exception_destroy   0063faa0 f   libvcruntimed:std_exception.obj
 0001:0023eae0       __CxxThrowException@8      0063fae0 f   libvcruntimed:throw.obj
 0001:0023ebc0       ??$?0AAViterator@TryBlockMap@__FrameHandler3@@AAV012@$0A@@?$pair@Viterator@TryBlockMap@__FrameHandler3@@V123@@std@@QAE@AAViterator@TryBlockMap@__FrameHandler3@@0@Z 0063fbc0 f i libvcruntimed:trnsctrl.obj
 0001:0023ec00       ??0iterator@TryBlockMap@__FrameHandler3@@QAE@AAV12@I@Z 0063fc00 f i libvcruntimed:trnsctrl.obj
 0001:0023ec30       ?GetRangeOfTrysToCheck@__FrameHandler3@@SA?AU?$pair@Viterator@TryBlockMap@__FrameHandler3@@V123@@std@@AAVTryBlockMap@1@HPAXPBU_s_FuncInfo@@H@Z 0063fc30 f   libvcruntimed:trnsctrl.obj
 0001:0023ed50       ?_CallCatchBlock2@@YAPAXPAUEHRegistrationNode@@PBU_s_FuncInfo@@PAXHK@Z 0063fd50 f   libvcruntimed:trnsctrl.obj
 0001:0023ede0       ?_CallSETranslator@@YAHPAUEHExceptionRecord@@PAUEHRegistrationNode@@PAX2PBU_s_FuncInfo@@H1@Z 0063fde0 f   libvcruntimed:trnsctrl.obj
 0001:0023ef30       ?_JumpToContinuation@@YGXPAXPAUEHRegistrationNode@@@Z 0063ff30 f   libvcruntimed:trnsctrl.obj
 0001:0023ef70       ?_UnwindNestedFrames@@YGXPAUEHRegistrationNode@@PAUEHExceptionRecord@@@Z 0063ff70 f   libvcruntimed:trnsctrl.obj
 0001:0023efe0       __CatchGuardHandler        0063ffe0 f   libvcruntimed:trnsctrl.obj
 0001:0023f040       __CreateFrameInfo          00640040 f   libvcruntimed:trnsctrl.obj
 0001:0023f080       __FindAndUnlinkFrame       00640080 f   libvcruntimed:trnsctrl.obj
 0001:0023f110       __TranslatorGuardHandler   00640110 f   libvcruntimed:trnsctrl.obj
 0001:0023f1f0       ___CxxFrameHandler         006401f0 f   libvcruntimed:trnsctrl.obj
 0001:0023f240       ___CxxFrameHandler2        00640240 f   libvcruntimed:trnsctrl.obj
 0001:0023f290       ___CxxFrameHandler3        00640290 f   libvcruntimed:trnsctrl.obj
 0001:0023f2e0       ___CxxLongjmpUnwind@4      006402e0 f   libvcruntimed:trnsctrl.obj
 0001:0023f330       _memchr                    00640330 f   libvcruntimed:memchr.obj
 0001:0023f620       _memcmp                    00640620 f   libvcruntimed:memcmp.obj
 0001:00240120       ___uncaught_exception      00641120 f   libvcruntimed:uncaught_exception.obj
 0001:00240180       ___vcrt_initialize         00641180 f   libvcruntimed:initialization.obj
 0001:002401c0       ___vcrt_thread_attach      006411c0 f   libvcruntimed:initialization.obj
 0001:002401e0       ___vcrt_thread_detach      006411e0 f   libvcruntimed:initialization.obj
 0001:002401f0       ___vcrt_uninitialize       006411f0 f   libvcruntimed:initialization.obj
 0001:00240210       ___vcrt_uninitialize_critical 00641210 f   libvcruntimed:initialization.obj
 0001:002402b0       __except_handler4          006412b0 f   libvcruntimed:chandler4.obj
 0001:00240510       ___DestructExceptionObject 00641510 f   libvcruntimed:ehhelpers.obj
 0001:00240680       ?_CallMemberFunction0@@YGXQAX0@Z 00641680 f i libvcruntimed:ehhelpers.obj
 0001:00240750       ?raw_name@type_info@@QBEPBDXZ 00641750 f i libvcruntimed:ehhelpers.obj
 0001:00240770       __IsExceptionObjectToBeDestroyed 00641770 f   libvcruntimed:ehhelpers.obj
 0001:002407c0       __SetWinRTOutOfMemoryExceptionCallback 006417c0 f   libvcruntimed:ehhelpers.obj
 0001:002407d0       ___AdjustPointer           006417d0 f   libvcruntimed:ehhelpers.obj
 0001:00240830       ___FrameUnwindFilter       00641830 f   libvcruntimed:ehhelpers.obj
 0001:002408e0       ___GetPlatformExceptionInfo 006418e0 f   libvcruntimed:ehhelpers.obj
 0001:00240980       ___current_exception       00641980 f   libvcruntimed:ehhelpers.obj
 0001:00240990       ___current_exception_context 00641990 f   libvcruntimed:ehhelpers.obj
 0001:002409a0       ___processing_throw        006419a0 f   libvcruntimed:ehhelpers.obj
 0001:002409b0       ___std_terminate           006419b0 f   libvcruntimed:ehhelpers.obj
 0001:002409c0       __is_exception_typeof      006419c0 f   libvcruntimed:ehhelpers.obj
 0001:00240b20       ??$?RD@__crt_internal_free_policy@@QBEXQBD@Z 00641b20 f i libvcruntimed:std_type_info.obj
 0001:00240b50       ??$?RX@__crt_internal_free_policy@@QBEXQBX@Z 00641b50 f i libvcruntimed:std_type_info.obj
 0001:00240b80       ??$__crt_interlocked_compare_exchange_pointer@$$CBDPAD$$T@@YAPBDPDSBDQAD$$T@Z 00641b80 f i libvcruntimed:std_type_info.obj
 0001:00240ba0       ??$__crt_interlocked_read_pointer@$$CBD@@YAPBDPDSBD@Z 00641ba0 f i libvcruntimed:std_type_info.obj
 0001:00240bc0       ??0?$__crt_unique_heap_ptr@DU__crt_internal_free_policy@@@@QAE@QAD@Z 00641bc0 f i libvcruntimed:std_type_info.obj
 0001:00240be0       ??0?$__crt_unique_heap_ptr@XU__crt_internal_free_policy@@@@QAE@QAX@Z 00641be0 f i libvcruntimed:std_type_info.obj
 0001:00240c00       ??1?$__crt_unique_heap_ptr@DU__crt_internal_free_policy@@@@QAE@XZ 00641c00 f i libvcruntimed:std_type_info.obj
 0001:00240c20       ??1?$__crt_unique_heap_ptr@XU__crt_internal_free_policy@@@@QAE@XZ 00641c20 f i libvcruntimed:std_type_info.obj
 0001:00240c40       ??B?$__crt_unique_heap_ptr@DU__crt_internal_free_policy@@@@QBE_NXZ 00641c40 f i libvcruntimed:std_type_info.obj
 0001:00240c60       ??B?$__crt_unique_heap_ptr@XU__crt_internal_free_policy@@@@QBE_NXZ 00641c60 f i libvcruntimed:std_type_info.obj
 0001:00240ce0       ?detach@?$__crt_unique_heap_ptr@XU__crt_internal_free_policy@@@@QAEPAXXZ 00641ce0 f i libvcruntimed:std_type_info.obj
 0001:00240d10       ?get@?$__crt_unique_heap_ptr@DU__crt_internal_free_policy@@@@QBEPADXZ 00641d10 f i libvcruntimed:std_type_info.obj
 0001:00240d30       ?get@?$__crt_unique_heap_ptr@XU__crt_internal_free_policy@@@@QBEPAXXZ 00641d30 f i libvcruntimed:std_type_info.obj
 0001:00240d50       ?is_valid@?$__crt_unique_heap_ptr@DU__crt_internal_free_policy@@@@QBE_NXZ 00641d50 f i libvcruntimed:std_type_info.obj
 0001:00240d90       ?is_valid@?$__crt_unique_heap_ptr@XU__crt_internal_free_policy@@@@QBE_NXZ 00641d90 f i libvcruntimed:std_type_info.obj
 0001:00240dd0       ?release@?$__crt_unique_heap_ptr@DU__crt_internal_free_policy@@@@QAEXXZ 00641dd0 f i libvcruntimed:std_type_info.obj
 0001:00240e00       ?release@?$__crt_unique_heap_ptr@XU__crt_internal_free_policy@@@@QAEXXZ 00641e00 f i libvcruntimed:std_type_info.obj
 0001:00240e30       ___std_type_info_compare   00641e30 f   libvcruntimed:std_type_info.obj
 0001:00240e60       ___std_type_info_destroy_list 00641e60 f   libvcruntimed:std_type_info.obj
 0001:00240eb0       ___std_type_info_hash      00641eb0 f   libvcruntimed:std_type_info.obj
 0001:00240f20       ___std_type_info_name      00641f20 f   libvcruntimed:std_type_info.obj
 0001:00241160       ??$?RU__vcrt_ptd@@@__crt_internal_free_policy@@QBEXQBU__vcrt_ptd@@@Z 00642160 f i libvcruntimed:per_thread_data.obj
 0001:00241190       ??0?$__crt_unique_heap_ptr@U__vcrt_ptd@@U__crt_internal_free_policy@@@@QAE@QAU__vcrt_ptd@@@Z 00642190 f i libvcruntimed:per_thread_data.obj
 0001:002411d0       ??1?$__crt_unique_heap_ptr@U__vcrt_ptd@@U__crt_internal_free_policy@@@@QAE@XZ 006421d0 f i libvcruntimed:per_thread_data.obj
 0001:00241210       ??B?$__crt_unique_heap_ptr@U__vcrt_ptd@@U__crt_internal_free_policy@@@@QBE_NXZ 00642210 f i libvcruntimed:per_thread_data.obj
 0001:00241230       ?detach@?$__crt_unique_heap_ptr@U__vcrt_ptd@@U__crt_internal_free_policy@@@@QAEPAU__vcrt_ptd@@XZ 00642230 f i libvcruntimed:per_thread_data.obj
 0001:00241260       ?get@?$__crt_unique_heap_ptr@U__vcrt_ptd@@U__crt_internal_free_policy@@@@QBEPAU__vcrt_ptd@@XZ 00642260 f i libvcruntimed:per_thread_data.obj
 0001:00241280       ?is_valid@?$__crt_unique_heap_ptr@U__vcrt_ptd@@U__crt_internal_free_policy@@@@QBE_NXZ 00642280 f i libvcruntimed:per_thread_data.obj
 0001:002412c0       ?release@?$__crt_unique_heap_ptr@U__vcrt_ptd@@U__crt_internal_free_policy@@@@QAEXXZ 006422c0 f i libvcruntimed:per_thread_data.obj
 0001:00241320       ___vcrt_freefls@4          00642320 f   libvcruntimed:per_thread_data.obj
 0001:00241350       ___vcrt_freeptd_for_this_thread 00642350 f   libvcruntimed:per_thread_data.obj
 0001:002413a0       ___vcrt_getptd             006423a0 f   libvcruntimed:per_thread_data.obj
 0001:002413d0       ___vcrt_getptd_noexit      006423d0 f   libvcruntimed:per_thread_data.obj
 0001:00241580       ___vcrt_getptd_noinit      00642580 f   libvcruntimed:per_thread_data.obj
 0001:002415f0       ___vcrt_initialize_ptd     006425f0 f   libvcruntimed:per_thread_data.obj
 0001:00241650       ___vcrt_uninitialize_ptd   00642650 f   libvcruntimed:per_thread_data.obj
 0001:002424d0       ??$TypeMatchHelper@V__FrameHandler3@@@@YAHPBU_s_HandlerType@@PBU_s_CatchableType@@PBU_s_ThrowInfo@@@Z 006434d0 f i libvcruntimed:frame.obj
 0001:002425e0       ??$__InternalCxxFrameHandler@V__FrameHandler3@@@@YA?AW4_EXCEPTION_DISPOSITION@@PAUEHExceptionRecord@@PAUEHRegistrationNode@@PAU_CONTEXT@@PAXPBU_s_FuncInfo@@H1E@Z 006435e0 f i libvcruntimed:frame.obj
 0001:00242810       ??$__InternalCxxFrameHandlerWrapper@V__FrameHandler3@@@@YA?AW4_EXCEPTION_DISPOSITION@@PAUEHExceptionRecord@@PAUEHRegistrationNode@@PAU_CONTEXT@@PAXPBU_s_FuncInfo@@H1E@Z 00643810 f i libvcruntimed:frame.obj
 0001:00242850       ??0HandlerMap@__FrameHandler3@@QAE@PBU_s_TryBlockMapEntry@@II@Z 00643850 f i libvcruntimed:frame.obj
 0001:00242880       ??0TryBlockMap@__FrameHandler3@@QAE@PBU_s_FuncInfo@@I@Z 00643880 f i libvcruntimed:frame.obj
 0001:002428b0       ??0bad_exception@std@@QAE@ABV01@@Z 006438b0 f i libvcruntimed:frame.obj
 0001:002428e0       ??0bad_exception@std@@QAE@XZ 006438e0 f i libvcruntimed:frame.obj
 0001:00242910       ??0iterator@HandlerMap@__FrameHandler3@@QAE@AAV12@I@Z 00643910 f i libvcruntimed:frame.obj
 0001:00242940       ??1bad_exception@std@@UAE@XZ 00643940 f i libvcruntimed:frame.obj
 0001:00242960       ??8iterator@HandlerMap@__FrameHandler3@@QBE_NABV012@@Z 00643960 f i libvcruntimed:frame.obj
 0001:002429a0       ??8type_info@@QBE_NABV0@@Z 006439a0 f i libvcruntimed:frame.obj
 0001:00242a20       ??9iterator@HandlerMap@__FrameHandler3@@QBE_NABV012@@Z 00643a20 f i libvcruntimed:frame.obj
 0001:00242a70       ??Diterator@HandlerMap@__FrameHandler3@@QAE?BU_s_HandlerType@@XZ 00643a70 f i libvcruntimed:frame.obj
 0001:00242ac0       ??Diterator@TryBlockMap@__FrameHandler3@@QAE?BU_s_TryBlockMapEntry@@XZ 00643ac0 f i libvcruntimed:frame.obj
 0001:00242b20       ??Eiterator@HandlerMap@__FrameHandler3@@QAEAAV012@XZ 00643b20 f i libvcruntimed:frame.obj
 0001:00242b50       ??Eiterator@TryBlockMap@__FrameHandler3@@QAEAAV012@XZ 00643b50 f i libvcruntimed:frame.obj
 0001:00242b80       ??Miterator@TryBlockMap@__FrameHandler3@@QBE_NABV012@@Z 00643b80 f i libvcruntimed:frame.obj
 0001:00242bc0       ??_Ebad_exception@std@@UAEPAXI@Z 00643bc0 f i libvcruntimed:frame.obj
 0001:00242bc0       ??_Gbad_exception@std@@UAEPAXI@Z 00643bc0 f i libvcruntimed:frame.obj
 0001:00242c00       ?BuildCatchObject@__FrameHandler3@@SAXPAUEHExceptionRecord@@PAXPBU_s_HandlerType@@PBU_s_CatchableType@@@Z 00643c00 f   libvcruntimed:frame.obj
 0001:00242c30       ?BuildCatchObjectHelper@__FrameHandler3@@SAHPAUEHExceptionRecord@@PAXPBU_s_HandlerType@@PBU_s_CatchableType@@@Z 00643c30 f   libvcruntimed:frame.obj
 0001:002430c0       ?FrameUnwindToEmptyState@__FrameHandler3@@SAXPAUEHRegistrationNode@@PAXPBU_s_FuncInfo@@@Z 006440c0 f   libvcruntimed:frame.obj
 0001:002430f0       ?FrameUnwindToState@__FrameHandler3@@SAXPAUEHRegistrationNode@@PAXPBU_s_FuncInfo@@H@Z 006440f0 f   libvcruntimed:frame.obj
 0001:002432d0       ?GetMaxState@__FrameHandler3@@SAHPAXPBU_s_FuncInfo@@@Z 006442d0 f i libvcruntimed:frame.obj
 0001:00243430       ?TypeMatch@__FrameHandler3@@SAHPBU_s_HandlerType@@PBU_s_CatchableType@@PBU_s_ThrowInfo@@@Z 00644430 f   libvcruntimed:frame.obj
 0001:00243450       ?_CallMemberFunction1@@YGXQAX00@Z 00644450 f i libvcruntimed:frame.obj
 0001:00243480       ?_CallMemberFunction2@@YGXQAX00H@Z 00644480 f i libvcruntimed:frame.obj
 0001:002434b0       ?begin@HandlerMap@__FrameHandler3@@QAE?AViterator@12@XZ 006444b0 f i libvcruntimed:frame.obj
 0001:002434e0       ?end@HandlerMap@__FrameHandler3@@QAE?AViterator@12@XZ 006444e0 f i libvcruntimed:frame.obj
 0001:00243510       ?getESTypes@__FrameHandler3@@SAPBU_s_ESTypeList@@PBU_s_FuncInfo@@@Z 00644510 f i libvcruntimed:frame.obj
 0001:00243520       ?getLastEntry@HandlerMap@__FrameHandler3@@QAEPBU_s_HandlerType@@XZ 00644520 f i libvcruntimed:frame.obj
 0001:00243550       ?getMagicNum@__FrameHandler3@@SAIPBU_s_FuncInfo@@@Z 00644550 f i libvcruntimed:frame.obj
 0001:00243570       ?getNumTryBlocks@TryBlockMap@__FrameHandler3@@QAEIXZ 00644570 f i libvcruntimed:frame.obj
 0001:00243590       ?isEHs@__FrameHandler3@@SA_NPBU_s_FuncInfo@@@Z 00644590 f i libvcruntimed:frame.obj
 0001:002435c0       ?isNoExcept@__FrameHandler3@@SA_NPBU_s_FuncInfo@@@Z 006445c0 f i libvcruntimed:frame.obj
 0001:002435f0       ___BuildCatchObject        006445f0 f   libvcruntimed:frame.obj
 0001:00243620       ___BuildCatchObjectHelper  00644620 f   libvcruntimed:frame.obj
 0001:00243650       ___TypeMatch               00644650 f   libvcruntimed:frame.obj
 0001:00243670       ___vcrt_EncodePointer      00644670 f i libvcruntimed:frame.obj
 0001:00243690       __CallSettingFrame@12      00644690 f   libvcruntimed:lowhelpr.obj
 0001:002436b7       __NLG_Return               006446b7     libvcruntimed:lowhelpr.obj
 0001:00243700       ___except_validate_context_record 00644700 f   libvcruntimed:jbcxrval.obj
 0001:00243760       ___except_validate_jump_buffer 00644760 f   libvcruntimed:jbcxrval.obj
 0001:00243780       ___except_validate_jump_buffer_common 00644780 f i libvcruntimed:jbcxrval.obj
 0001:002437f0       ___vcrt_initialize_locks   006447f0 f   libvcruntimed:locks.obj
 0001:00243860       ___vcrt_lock               00644860 f   libvcruntimed:locks.obj
 0001:00243880       ___vcrt_uninitialize_locks 00644880 f   libvcruntimed:locks.obj
 0001:002438e0       ___vcrt_unlock             006448e0 f   libvcruntimed:locks.obj
 0001:00243900       __local_unwind4            00644900 f   libvcruntimed:exsup4.obj
 0001:00243a30       __seh_longjmp_unwind4@4    00644a30 f   libvcruntimed:exsup4.obj
 0001:00243a70       @_EH4_CallFilterFunc@8     00644a70 f   libvcruntimed:exsup4.obj
 0001:00243a90       @_EH4_TransferToHandler@8  00644a90 f   libvcruntimed:exsup4.obj
 0001:00243ab0       @_EH4_GlobalUnwind2@8      00644ab0 f   libvcruntimed:exsup4.obj
 0001:00243ad0       @_EH4_LocalUnwind@16       00644ad0 f   libvcruntimed:exsup4.obj
 0001:00243af0       ??$?0$00@DName@@QAE@PAVUnDecorator@@PBDU?$StringLifeSelector@$00@@@Z 00644af0 f i libvcruntimed:undname.obj
 0001:00243b60       ??$?0$00@pcharNode@@QAE@PBDHU?$StringLifeSelector@$00@@AAV_HeapManager@@@Z 00644b60 f i libvcruntimed:undname.obj
 0001:00243ba0       ??$?0$01@DName@@QAE@PAVUnDecorator@@PBDU?$StringLifeSelector@$01@@@Z 00644ba0 f i libvcruntimed:undname.obj
 0001:00243c10       ??$?0$01@pcharNode@@QAE@PBDHU?$StringLifeSelector@$01@@AAV_HeapManager@@@Z 00644c10 f i libvcruntimed:undname.obj
 0001:00243cb0       ??$?0$0A@@DName@@QAE@PAVUnDecorator@@PBDU?$StringLifeSelector@$0A@@@@Z 00644cb0 f i libvcruntimed:undname.obj
 0001:00243d20       ??$?0$0A@@pcharNode@@QAE@PBDHU?$StringLifeSelector@$0A@@@AAV_HeapManager@@@Z 00644d20 f i libvcruntimed:undname.obj
 0001:00243dc0       ??$?0_K$0A@@?$optional@_K@std@@QAE@$$QA_K@Z 00644dc0 f i libvcruntimed:undname.obj
 0001:00243df0       ??$?0_K@?$_Optional_construct_base@_K@std@@QAE@Uin_place_t@1@$$QA_K@Z 00644df0 f i libvcruntimed:undname.obj
 0001:00243e20       ??$?0_K@?$_Optional_destruct_base@_K$00@std@@QAE@Uin_place_t@1@$$QA_K@Z 00644e20 f i libvcruntimed:undname.obj
 0001:00243e50       ??$append@VDNameNode@@@DName@@AAEXPBVDNameNode@@@Z 00644e50 f i libvcruntimed:undname.obj
 0001:00243f10       ??$append@VDNameStatusNode@@@DName@@AAEXPBVDNameStatusNode@@@Z 00644f10 f i libvcruntimed:undname.obj
 0001:00243fd0       ??$append@VcharNode@@@DName@@AAEXPBVcharNode@@@Z 00644fd0 f i libvcruntimed:undname.obj
 0001:00244090       ??$append@VpDNameNode@@@DName@@AAEXPBVpDNameNode@@@Z 00645090 f i libvcruntimed:undname.obj
 0001:00244150       ??$append@VpcharNode@@@DName@@AAEXPBVpcharNode@@@Z 00645150 f i libvcruntimed:undname.obj
 0001:00244210       ??$doPchar@$00@DName@@AAEXPBDH@Z 00645210 f i libvcruntimed:undname.obj
 0001:00244390       ??$doPchar@$01@DName@@AAEXPBDH@Z 00645390 f i libvcruntimed:undname.obj
 0001:00244510       ??$doPchar@$0A@@DName@@AAEXPBDH@Z 00645510 f i libvcruntimed:undname.obj
 0001:00244810       ??0?$_Optional_construct_base@_K@std@@QAE@XZ 00645810 f i libvcruntimed:undname.obj
 0001:00244830       ??0?$_Optional_destruct_base@_K$00@std@@QAE@XZ 00645830 f i libvcruntimed:undname.obj
 0001:00244860       ??0?$optional@_K@std@@QAE@XZ 00645860 f i libvcruntimed:undname.obj
 0001:00244880       ??0Block@_HeapManager@@QAE@XZ 00645880 f i libvcruntimed:undname.obj
 0001:002448a0       ??0DName@@QAE@ABV0@@Z      006458a0 f i libvcruntimed:undname.obj
 0001:002448e0       ??0DName@@QAE@PAVUnDecorator@@@Z 006458e0 f i libvcruntimed:undname.obj
 0001:00244920       ??0DName@@QAE@PAVUnDecorator@@AAPBDD@Z 00645920 f   libvcruntimed:undname.obj
 0001:00244b00       ??0DName@@QAE@PAVUnDecorator@@ABUStringLiteral@@@Z 00645b00 f   libvcruntimed:undname.obj
 0001:00244b60       ??0DName@@QAE@PAVUnDecorator@@D@Z 00645b60 f   libvcruntimed:undname.obj
 0001:00244bb0       ??0DName@@QAE@PAVUnDecorator@@PAV0@@Z 00645bb0 f   libvcruntimed:undname.obj
 0001:00244ca0       ??0DName@@QAE@PAVUnDecorator@@W4DNameStatus@@@Z 00645ca0 f   libvcruntimed:undname.obj
 0001:00244d60       ??0DName@@QAE@PAVUnDecorator@@_J@Z 00645d60 f   libvcruntimed:undname.obj
 0001:00244e90       ??0DName@@QAE@PAVUnDecorator@@_K@Z 00645e90 f   libvcruntimed:undname.obj
 0001:00244f70       ??0DNameNode@@IAE@XZ       00645f70 f i libvcruntimed:undname.obj
 0001:00244f90       ??0Replicator@@QAE@PAVUnDecorator@@@Z 00645f90 f i libvcruntimed:undname.obj
 0001:00245030       ??0UnDecorator@@QAE@PBDP6APADJ@ZKP6APAXI@ZP6AXPAX@Z@Z 00646030 f i libvcruntimed:undname.obj
 0001:002451b0       ??0_HeapManager@@QAE@P6APAXI@ZP6AXPAX@Z@Z 006461b0 f i libvcruntimed:undname.obj
 0001:00245200       ??0_Nontrivial_dummy_type@std@@QAE@XZ 00646200 f i libvcruntimed:undname.obj
 0001:00245220       ??0charNode@@QAE@D@Z       00646220 f i libvcruntimed:undname.obj
 0001:00245260       ??0pDNameNode@@QAE@PAVDName@@@Z 00646260 f   libvcruntimed:undname.obj
 0001:002452e0       ??0pairNode@@QAE@PBVDNameNode@@0@Z 006462e0 f i libvcruntimed:undname.obj
 0001:00245360       ??2@YAPAXIAAV_HeapManager@@H@Z 00646360 f   libvcruntimed:undname.obj
 0001:002453b0       ??4DName@@QAEAAV0@ABUStringLiteral@@@Z 006463b0 f   libvcruntimed:undname.obj
 0001:00245400       ??4DName@@QAEAAV0@ABV0@@Z  00646400 f   libvcruntimed:undname.obj
 0001:00245430       ??4DName@@QAEAAV0@D@Z      00646430 f i libvcruntimed:undname.obj
 0001:00245470       ??4DName@@QAEAAV0@PAV0@@Z  00646470 f   libvcruntimed:undname.obj
 0001:00245540       ??4DName@@QAEAAV0@W4DNameStatus@@@Z 00646540 f   libvcruntimed:undname.obj
 0001:002455e0       ??AReplicator@@QBE?AVDName@@H@Z 006465e0 f   libvcruntimed:undname.obj
 0001:00245670       ??B?$optional@_K@std@@QBE_NXZ 00646670 f i libvcruntimed:undname.obj
 0001:00245690       ??D?$_Optional_construct_base@_K@std@@QGAEAA_KXZ 00646690 f i libvcruntimed:undname.obj
 0001:00245700       ??H@YA?AVDName@@ABUStringLiteral@@ABV0@@Z 00646700 f i libvcruntimed:undname.obj
 0001:00245750       ??H@YA?AVDName@@DABV0@@Z   00646750 f i libvcruntimed:undname.obj
 0001:002457a0       ??H@YA?AVDName@@W4DNameStatus@@ABV0@@Z 006467a0 f i libvcruntimed:undname.obj
 0001:002457f0       ??HDName@@QBE?AV0@ABUStringLiteral@@@Z 006467f0 f   libvcruntimed:undname.obj
 0001:00245830       ??HDName@@QBE?AV0@ABV0@@Z  00646830 f   libvcruntimed:undname.obj
 0001:00245870       ??HDName@@QBE?AV0@D@Z      00646870 f   libvcruntimed:undname.obj
 0001:002458b0       ??HDName@@QBE?AV0@PAV0@@Z  006468b0 f   libvcruntimed:undname.obj
 0001:002458f0       ??HDName@@QBE?AV0@W4DNameStatus@@@Z 006468f0 f   libvcruntimed:undname.obj
 0001:00245930       ??HStringLiteral@@QBE?AU0@H@Z 00646930 f i libvcruntimed:undname.obj
 0001:00245970       ??YDName@@QAEAAV0@ABUStringLiteral@@@Z 00646970 f   libvcruntimed:undname.obj
 0001:00245a70       ??YDName@@QAEAAV0@ABV0@@Z  00646a70 f   libvcruntimed:undname.obj
 0001:00245b30       ??YDName@@QAEAAV0@D@Z      00646b30 f   libvcruntimed:undname.obj
 0001:00245be0       ??YDName@@QAEAAV0@PAV0@@Z  00646be0 f   libvcruntimed:undname.obj
 0001:00245cd0       ??YDName@@QAEAAV0@W4DNameStatus@@@Z 00646cd0 f   libvcruntimed:undname.obj
 0001:00245d50       ??YReplicator@@QAEAAV0@ABVDName@@@Z 00646d50 f   libvcruntimed:undname.obj
 0001:00245e10       ??_5DName@@QAEAAV0@ABV0@@Z 00646e10 f   libvcruntimed:undname.obj
 0001:00245e90       ??__K_l@@YA?AUStringLiteral@@PBDI@Z 00646e90 f i libvcruntimed:undname.obj
 0001:00245ec0       ?Destructor@UnDecorator@@QAEXXZ 00646ec0 f i libvcruntimed:undname.obj
 0001:00245ee0       ?Destructor@_HeapManager@@QAEXXZ 00646ee0 f i libvcruntimed:undname.obj
 0001:00245f80       ?UScore@UnDecorator@@QAE?AUStringLiteral@@W4Tokens@@@Z 00646f80 f   libvcruntimed:undname.obj
 0001:00245ff0       ?composeDeclaration@UnDecorator@@AAE?AVDName@@ABV2@@Z 00646ff0 f i libvcruntimed:undname.obj
 0001:00248860       ?doAccessSpecifiers@UnDecorator@@QAEHXZ 00649860 f i libvcruntimed:undname.obj
 0001:002488a0       ?doAllocationLanguage@UnDecorator@@QAEHXZ 006498a0 f i libvcruntimed:undname.obj
 0001:002488e0       ?doAllocationModel@UnDecorator@@QAEHXZ 006498e0 f i libvcruntimed:undname.obj
 0001:00248920       ?doEcsu@UnDecorator@@QAEHXZ 00649920 f i libvcruntimed:undname.obj
 0001:00248960       ?doEllipsis@UnDecorator@@QAEHXZ 00649960 f i libvcruntimed:undname.obj
 0001:002489a0       ?doFunctionReturns@UnDecorator@@QAEHXZ 006499a0 f i libvcruntimed:undname.obj
 0001:002489e0       ?doMSKeywords@UnDecorator@@QAEHXZ 006499e0 f i libvcruntimed:undname.obj
 0001:00248a20       ?doMemberTypes@UnDecorator@@QAEHXZ 00649a20 f i libvcruntimed:undname.obj
 0001:00248a60       ?doNameOnly@UnDecorator@@QAEHXZ 00649a60 f i libvcruntimed:undname.obj
 0001:00248a80       ?doNoIdentCharCheck@UnDecorator@@QAEHXZ 00649a80 f i libvcruntimed:undname.obj
 0001:00248aa0       ?doPchar@DName@@AAEXD@Z    00649aa0 f   libvcruntimed:undname.obj
 0001:00248b40       ?doPtr64@UnDecorator@@QAEHXZ 00649b40 f i libvcruntimed:undname.obj
 0001:00248b80       ?doRestrictionSpec@UnDecorator@@QAEHXZ 00649b80 f i libvcruntimed:undname.obj
 0001:00248bc0       ?doThisTypes@UnDecorator@@QAEHXZ 00649bc0 f i libvcruntimed:undname.obj
 0001:00248c00       ?doThrowTypes@UnDecorator@@QAEHXZ 00649c00 f i libvcruntimed:undname.obj
 0001:00248c40       ?doTypeOnly@UnDecorator@@QAEHXZ 00649c40 f i libvcruntimed:undname.obj
 0001:00248c60       ?doUnderScore@UnDecorator@@QAEHXZ 00649c60 f i libvcruntimed:undname.obj
 0001:00248ca0       ?getAddressOf@UnDecorator@@AAE?AVDName@@XZ 00649ca0 f   libvcruntimed:undname.obj
 0001:00248d60       ?getArgumentList@UnDecorator@@AAE?AVDName@@XZ 00649d60 f   libvcruntimed:undname.obj
 0001:00248f20       ?getArgumentTypes@UnDecorator@@AAE?AVDName@@XZ 00649f20 f   libvcruntimed:undname.obj
 0001:00249170       ?getArrayAccess@UnDecorator@@AAE?AVDName@@XZ 0064a170 f   libvcruntimed:undname.obj
 0001:00249240       ?getArrayObject@UnDecorator@@AAE?AVDName@@XZ 0064a240 f   libvcruntimed:undname.obj
 0001:002493b0       ?getArrayType@UnDecorator@@AAE?AVDName@@ABV2@@Z 0064a3b0 f i libvcruntimed:undname.obj
 0001:00249730       ?getBasedType@UnDecorator@@AAE?AVDName@@XZ 0064a730 f   libvcruntimed:undname.obj
 0001:002498a0       ?getBasicDataType@UnDecorator@@AAE?AVDName@@ABV2@@Z 0064a8a0 f   libvcruntimed:undname.obj
 0001:0024a5e0       ?getCHPEName@UnDecorator@@QAEPADPADH@Z 0064b5e0 f i libvcruntimed:undname.obj
 0001:0024a7d0       ?getCallIndex@UnDecorator@@AAE?AVDName@@XZ 0064b7d0 f i libvcruntimed:undname.obj
 0001:0024a800       ?getCallingConvention@UnDecorator@@AAE?AVDName@@XZ 0064b800 f   libvcruntimed:undname.obj
 0001:0024aac0       ?getDataIndirectType@UnDecorator@@AAE?AVDName@@ABV2@W4IndirectionKind@@0H@Z 0064bac0 f   libvcruntimed:undname.obj
 0001:0024b6c0       ?getDataIndirectType@UnDecorator@@AAE?AVDName@@XZ 0064c6c0 f i libvcruntimed:undname.obj
 0001:0024b720       ?getDataType@UnDecorator@@AAE?AVDName@@PAV2@@Z 0064c720 f   libvcruntimed:undname.obj
 0001:0024b8a0       ?getDecoratedName@UnDecorator@@AAE?AVDName@@XZ 0064c8a0 f   libvcruntimed:undname.obj
 0001:0024be60       ?getDimension@UnDecorator@@AAE?AVDName@@_N@Z 0064ce60 f   libvcruntimed:undname.obj
 0001:0024c160       ?getDispatchTarget@UnDecorator@@AAE?AVDName@@XZ 0064d160 f   libvcruntimed:undname.obj
 0001:0024c230       ?getDisplacement@UnDecorator@@AAE?AVDName@@XZ 0064d230 f i libvcruntimed:undname.obj
 0001:0024c260       ?getECSUDataType@UnDecorator@@AAE?AVDName@@XZ 0064d260 f   libvcruntimed:undname.obj
 0001:0024c640       ?getECSUName@UnDecorator@@AAE?AVDName@@XZ 0064d640 f i libvcruntimed:undname.obj
 0001:0024c670       ?getEnumType@UnDecorator@@AAE?AVDName@@XZ 0064d670 f i libvcruntimed:undname.obj
 0001:0024c8b0       ?getExtendedDataIndirectType@UnDecorator@@AAE?AVDName@@AAW4IndirectionKind@@AA_NH@Z 0064d8b0 f   libvcruntimed:undname.obj
 0001:0024cc20       ?getExternalDataType@UnDecorator@@AAE?AVDName@@ABV2@@Z 0064dc20 f i libvcruntimed:undname.obj
 0001:0024cce0       ?getFloatingPoint@UnDecorator@@AAE?AVDName@@H@Z 0064dce0 f   libvcruntimed:undname.obj
 0001:0024ce90       ?getFunctionIndirectType@UnDecorator@@AAE?AVDName@@ABV2@@Z 0064de90 f   libvcruntimed:undname.obj
 0001:0024d510       ?getGuardNumber@UnDecorator@@AAE?AVDName@@XZ 0064e510 f i libvcruntimed:undname.obj
 0001:0024d540       ?getHeap@UnDecorator@@QAEAAV_HeapManager@@XZ 0064e540 f i libvcruntimed:undname.obj
 0001:0024d560       ?getLastChar@DName@@QBEDXZ 0064e560 f i libvcruntimed:undname.obj
 0001:0024d5b0       ?getLastChar@DNameStatusNode@@UBEDXZ 0064e5b0 f i libvcruntimed:undname.obj
 0001:0024d5f0       ?getLastChar@charNode@@UBEDXZ 0064e5f0 f i libvcruntimed:undname.obj
 0001:0024d610       ?getLastChar@pDNameNode@@UBEDXZ 0064e610 f i libvcruntimed:undname.obj
 0001:0024d650       ?getLastChar@pairNode@@UBEDXZ 0064e650 f i libvcruntimed:undname.obj
 0001:0024d6d0       ?getLastChar@pcharNode@@UBEDXZ 0064e6d0 f i libvcruntimed:undname.obj
 0001:0024d710       ?getLexicalFrame@UnDecorator@@AAE?AVDName@@XZ 0064e710 f i libvcruntimed:undname.obj
 0001:0024d770       ?getMemberAccess@UnDecorator@@AAE?AVDName@@XZ 0064e770 f   libvcruntimed:undname.obj
 0001:0024d840       ?getMemoryWithBuffer@_HeapManager@@QAEPAXI@Z 0064e840 f   libvcruntimed:undname.obj
 0001:0024d960       ?getMemoryWithoutBuffer@_HeapManager@@QAEPAXI@Z 0064e960 f   libvcruntimed:undname.obj
 0001:0024d9b0       ?getNoexcept@UnDecorator@@AAE?AVDName@@XZ 0064e9b0 f   libvcruntimed:undname.obj
 0001:0024da50       ?getNumberOfDimensions@UnDecorator@@AAEHXZ 0064ea50 f   libvcruntimed:undname.obj
 0001:0024db70       ?getOperatorName@UnDecorator@@AAE?AVDName@@_NPA_N@Z 0064eb70 f i libvcruntimed:undname.obj
 0001:0024e950       ?getPointerToMember@UnDecorator@@AAE?AVDName@@XZ 0064f950 f   libvcruntimed:undname.obj
 0001:0024ea90       ?getPointerType@UnDecorator@@AAE?AVDName@@ABV2@0@Z 0064fa90 f i libvcruntimed:undname.obj
 0001:0024eac0       ?getPointerTypeArray@UnDecorator@@AAE?AVDName@@ABV2@0@Z 0064fac0 f i libvcruntimed:undname.obj
 0001:0024eaf0       ?getPrimaryDataType@UnDecorator@@AAE?AVDName@@ABV2@@Z 0064faf0 f   libvcruntimed:undname.obj
 0001:0024f090       ?getPtrRefDataType@UnDecorator@@AAE?AVDName@@ABV2@H@Z 00650090 f   libvcruntimed:undname.obj
 0001:0024f410       ?getPtrRefType@UnDecorator@@AAE?AVDName@@ABV2@0W4IndirectionKind@@@Z 00650410 f   libvcruntimed:undname.obj
 0001:0024f620       ?getReferenceType@UnDecorator@@AAE?AVDName@@ABV2@0W4IndirectionKind@@@Z 00650620 f i libvcruntimed:undname.obj
 0001:0024f660       ?getRestrictionSpec@UnDecorator@@AAE?AVDName@@XZ 00650660 f   libvcruntimed:undname.obj
 0001:0024f890       ?getReturnType@UnDecorator@@AAE?AVDName@@PAV2@@Z 00650890 f   libvcruntimed:undname.obj
 0001:0024f900       ?getScope@UnDecorator@@AAE?AVDName@@XZ 00650900 f   libvcruntimed:undname.obj
 0001:00250020       ?getScopedName@UnDecorator@@AAE?AVDName@@XZ 00651020 f   libvcruntimed:undname.obj
 0001:002501e0       ?getSignedDimension@UnDecorator@@AAE?AVDName@@XZ 006511e0 f   libvcruntimed:undname.obj
 0001:00250290       ?getStorageConvention@UnDecorator@@AAE?AVDName@@XZ 00651290 f i libvcruntimed:undname.obj
 0001:002502c0       ?getString@DName@@QBEPADPAD0@Z 006512c0 f i libvcruntimed:undname.obj
 0001:00250330       ?getString@DName@@QBEPADPADH@Z 00651330 f i libvcruntimed:undname.obj
 0001:002503e0       ?getString@DNameStatusNode@@UBEPADPAD0@Z 006513e0 f i libvcruntimed:undname.obj
 0001:00250420       ?getString@charNode@@UBEPADPAD0@Z 00651420 f i libvcruntimed:undname.obj
 0001:00250460       ?getString@pDNameNode@@UBEPADPAD0@Z 00651460 f i libvcruntimed:undname.obj
 0001:002504b0       ?getString@pairNode@@UBEPADPAD0@Z 006514b0 f i libvcruntimed:undname.obj
 0001:00250560       ?getString@pcharNode@@UBEPADPAD0@Z 00651560 f i libvcruntimed:undname.obj
 0001:002505a0       ?getStringEncoding@UnDecorator@@AAE?AVDName@@W4PrefixKind@@H@Z 006515a0 f   libvcruntimed:undname.obj
 0001:00250710       ?getStringHelper@@YAPADPADPBD1H@Z 00651710 f i libvcruntimed:undname.obj
 0001:00250760       ?getStringObject@UnDecorator@@AAE?AVDName@@XZ 00651760 f   libvcruntimed:undname.obj
 0001:00250830       ?getSymbolName@UnDecorator@@AAE?AVDName@@XZ 00651830 f i libvcruntimed:undname.obj
 0001:002508e0       ?getTemplateArgumentList@UnDecorator@@AAE?AVDName@@XZ 006518e0 f   libvcruntimed:undname.obj
 0001:00250cc0       ?getTemplateName@UnDecorator@@AAE?AVDName@@_N@Z 00651cc0 f   libvcruntimed:undname.obj
 0001:00250f20       ?getTemplateNonTypeArgument@UnDecorator@@AAE?AVDName@@XZ 00651f20 f   libvcruntimed:undname.obj
 0001:00251750       ?getTemplateTypeArgument@UnDecorator@@AAE?AVDName@@XZ 00652750 f   libvcruntimed:undname.obj
 0001:00251990       ?getThisType@UnDecorator@@AAE?AVDName@@XZ 00652990 f i libvcruntimed:undname.obj
 0001:002519f0       ?getThrowTypes@UnDecorator@@AAE?AVDName@@XZ 006529f0 f   libvcruntimed:undname.obj
 0001:00251a40       ?getTypeEncoding@UnDecorator@@AAEHXZ 00652a40 f i libvcruntimed:undname.obj
 0001:002527f0       ?getUndecoratedName@UnDecorator@@QAEPADPADH@Z 006537f0 f i libvcruntimed:undname.obj
 0001:002529c0       ?getUnionObject@UnDecorator@@AAE?AVDName@@XZ 006539c0 f   libvcruntimed:undname.obj
 0001:00252ae0       ?getVCallThunkType@UnDecorator@@AAE?AVDName@@XZ 00653ae0 f i libvcruntimed:undname.obj
 0001:00252b90       ?getValue@UnDecorator@@AAE?AV?$optional@_K@std@@XZ 00653b90 f   libvcruntimed:undname.obj
 0001:00252c90       ?getValueObject@UnDecorator@@AAE?AVDName@@XZ 00653c90 f   libvcruntimed:undname.obj
 0001:00252f50       ?getVbTableType@UnDecorator@@AAE?AVDName@@ABV2@@Z 00653f50 f i libvcruntimed:undname.obj
 0001:00252f80       ?getVdispMapType@UnDecorator@@AAE?AVDName@@ABV2@@Z 00653f80 f i libvcruntimed:undname.obj
 0001:00253020       ?getVfTableType@UnDecorator@@AAE?AVDName@@ABV2@@Z 00654020 f i libvcruntimed:undname.obj
 0001:002532b0       ?getZName@UnDecorator@@AAE?AVDName@@_N0@Z 006542b0 f   libvcruntimed:undname.obj
 0001:002536f0       ?get_current_character_and_increment_buffer@UnDecorator@@AAEDXZ 006546f0 f i libvcruntimed:undname.obj
 0001:00253740       ?haveTemplateParameters@UnDecorator@@QAEHXZ 00654740 f i libvcruntimed:undname.obj
 0001:00253760       ?increment_buffer@UnDecorator@@AAE_NI@Z 00654760 f i libvcruntimed:undname.obj
 0001:002537d0       ?increment_buffer_no_check@UnDecorator@@AAEXI@Z 006547d0 f i libvcruntimed:undname.obj
 0001:00253820       ?increment_buffer_no_check@UnDecorator@@AAEXXZ 00654820 f i libvcruntimed:undname.obj
 0001:00253850       ?isArray@DName@@QBEHXZ     00654850 f i libvcruntimed:undname.obj
 0001:00253870       ?isComArray@DName@@QBEHXZ  00654870 f i libvcruntimed:undname.obj
 0001:00253890       ?isEmpty@DName@@QBEHXZ     00654890 f i libvcruntimed:undname.obj
 0001:002538d0       ?isFull@Replicator@@QBEHXZ 006548d0 f i libvcruntimed:undname.obj
 0001:00253910       ?isNoTE@DName@@QBEHXZ      00654910 f i libvcruntimed:undname.obj
 0001:00253930       ?isPinPtr@DName@@QBEHXZ    00654930 f i libvcruntimed:undname.obj
 0001:00253950       ?isPtrRef@DName@@QBEHXZ    00654950 f i libvcruntimed:undname.obj
 0001:00253970       ?isUDC@DName@@QBEHXZ       00654970 f i libvcruntimed:undname.obj
 0001:002539c0       ?isUDTThunk@DName@@QBEHXZ  006549c0 f i libvcruntimed:undname.obj
 0001:00253a10       ?isVCallThunk@DName@@QBEHXZ 00654a10 f i libvcruntimed:undname.obj
 0001:00253a30       ?isValid@DName@@QBEHXZ     00654a30 f i libvcruntimed:undname.obj
 0001:00253a70       ?length@DName@@QBEHXZ      00654a70 f i libvcruntimed:undname.obj
